; Listing generated by Microsoft (R) Optimizing Compiler Version 19.26.28806.0 

	TITLE	F:\open_codec_learn_2021\kvazaar-master\src\encoder_state-geometry.c
	.686P
	.XMM
	include listing.inc
	.model	flat

INCLUDELIB MSVCRTD
INCLUDELIB OLDNAMES

msvcjmc	SEGMENT
__ED9CC025_corecrt_memcpy_s@h DB 01H
__875914C9_corecrt_wstring@h DB 01H
__731387C4_string@h DB 01H
__1850469A_corecrt_stdio_config@h DB 01H
__01D10305_corecrt_wstdio@h DB 01H
__9FF75F13_stdio@h DB 01H
__6C65A336_cu@h DB 01H
__E2865EBA_corecrt_math@h DB 01H
__546CF5FC_crypto@h DB 01H
__6BE1C69C_encoderstate@h DB 01H
__5DECB962_encoder_state-geometry@c DB 01H
msvcjmc	ENDS
CONST	SEGMENT
_default_fast_coeff_cost_wts DD 03e282e88r	; 0.16424
	DD	040852b41r			; 4.16153
	DD	0406093ffr			; 3.50903
	DD	040ddb290r			; 6.92805
	DD	03e282e88r			; 0.16424
	DD	040852b41r			; 4.16153
	DD	0406093ffr			; 3.50903
	DD	040ddb290r			; 6.92805
	DD	03e282e88r			; 0.16424
	DD	040852b41r			; 4.16153
	DD	0406093ffr			; 3.50903
	DD	040ddb290r			; 6.92805
	DD	03e282e88r			; 0.16424
	DD	040852b41r			; 4.16153
	DD	0406093ffr			; 3.50903
	DD	040ddb290r			; 6.92805
	DD	03e282e88r			; 0.16424
	DD	040852b41r			; 4.16153
	DD	0406093ffr			; 3.50903
	DD	040ddb290r			; 6.92805
	DD	03e282e88r			; 0.16424
	DD	040852b41r			; 4.16153
	DD	0406093ffr			; 3.50903
	DD	040ddb290r			; 6.92805
	DD	03e282e88r			; 0.16424
	DD	040852b41r			; 4.16153
	DD	0406093ffr			; 3.50903
	DD	040ddb290r			; 6.92805
	DD	03e282e88r			; 0.16424
	DD	040852b41r			; 4.16153
	DD	0406093ffr			; 3.50903
	DD	040ddb290r			; 6.92805
	DD	03e282e88r			; 0.16424
	DD	040852b41r			; 4.16153
	DD	0406093ffr			; 3.50903
	DD	040ddb290r			; 6.92805
	DD	03e282e88r			; 0.16424
	DD	040852b41r			; 4.16153
	DD	0406093ffr			; 3.50903
	DD	040ddb290r			; 6.92805
	DD	03e282e88r			; 0.16424
	DD	040852b41r			; 4.16153
	DD	0406093ffr			; 3.50903
	DD	040ddb290r			; 6.92805
	DD	03e26c094r			; 0.162844
	DD	04081ca43r			; 4.05594
	DD	04064203ar			; 3.56447
	DD	040db915ar			; 6.86149
	DD	03e03d189r			; 0.128729
	DD	04089fbafr			; 4.31197
	DD	0407c5771r			; 3.94284
	DD	040ddeed2r			; 6.9354
	DD	03de33ce6r			; 0.110956
	DD	0408ddcb1r			; 4.43319
	DD	0407c8738r			; 3.94575
	DD	040dc1618r			; 6.8777
	DD	03dc29cfer			; 0.095026
	DD	0408f7938r			; 4.48355
	DD	0408636aar			; 4.19417
	DD	040d90260r			; 6.78154
	DD	03d99b1b8r			; 0.075046
	DD	04094474cr			; 4.6337
	DD	04082b1b6r			; 4.08419
	DD	040d65aeer			; 6.6986
	DD	03d56bca5r			; 0.052426
	DD	0409ef37er			; 4.96722
	DD	04080dee8r			; 4.02721
	DD	040d19306r			; 6.5492
	DD	03d24bcaer			; 0.040219
	DD	040a489car			; 5.14182
	DD	0407ee3bdr			; 3.98265
	DD	040cec513r			; 6.46156
	DD	03d0fba88r			; 0.03509
	DD	040a628e7r			; 5.19249
	DD	040752e49r			; 3.83095
	DD	040cd642ar			; 6.41848
	DD	03cf47d80r			; 0.029845
	DD	040a6c5d0r			; 5.21165
	DD	040743073r			; 3.81546
	DD	040cb0dd8r			; 6.34544
	DD	03cc0b136r			; 0.023522
	DD	040aa4f92r			; 5.32221
	DD	040744224r			; 3.81654
	DD	040cb8aaar			; 6.36068
	DD	03cae87d3r			; 0.021305
	DD	040a73ac3r			; 5.22592
	DD	04075eeccr			; 3.8427
	DD	040ca6cd9r			; 6.32579
	DD	03c821294r			; 0.015878
	DD	040a5dbe0r			; 5.18309
	DD	0407d2f27r			; 3.956
	DD	040ca8cbdr			; 6.32968
	DD	03c2ae297r			; 0.01043
	DD	040a32ce4r			; 5.09923
	DD	04085a85fr			; 4.1768
	DD	040c9c5d6r			; 6.3054
	DD	03c0a2a91r			; 0.008433
	DD	040a0f7der			; 5.03026
	DD	040879a50r			; 4.23759
	DD	040c8a4eer			; 6.27013
	DD	03bd4fdf4r			; 0.0065
	DD	0409f0412r			; 4.96925
	DD	0408adc57r			; 4.3394
	DD	040c6f870r			; 6.21783
	DD	03ba18373r			; 0.004929
	DD	0409d8d50r			; 4.9235
	DD	0408e283fr			; 4.44241
	DD	040c5df6cr			; 6.18352
	DD	03b73775cr			; 0.003715
	DD	0409d4c75r			; 4.91558
	DD	0408dbb1br			; 4.42909
	DD	040c4029fr			; 6.12532
	DD	03b4a70d2r			; 0.003089
	DD	0409c48f7r			; 4.88391
	DD	040920260r			; 4.56279
	DD	040c5019dr			; 6.15645
	DD	03b219c9dr			; 0.002466
	DD	0409c31abr			; 4.88106
	DD	040942800r			; 4.62988
	DD	040c49088r			; 6.14264
	DD	03b0e25c8r			; 0.002169
	DD	0409c3d62r			; 4.88249
	DD	04094ae99r			; 4.64631
	DD	040c415d1r			; 6.12766
	DD	03b26dacbr			; 0.002546
	DD	040996304r			; 4.79334
	DD	0409acc16r			; 4.83741
	DD	040c6606br			; 6.19927
	DD	03aac3a86r			; 0.001314
	DD	04099e220r			; 4.80885
	DD	0409a81bdr			; 4.82834
	DD	040c7ca3cr			; 6.24344
	DD	03a9741d1r			; 0.001154
	DD	0409b9a72r			; 4.8626
	DD	0409b19aar			; 4.84688
	DD	040c693a5r			; 6.20552
	DD	03a80f990r			; 0.000984
	DD	0409bb993r			; 4.8664
	DD	0409b7fa2r			; 4.85933
	DD	040c7b565r			; 6.24089
	DD	03a551f82r			; 0.000813
	DD	0409b698ar			; 4.85663
	DD	0409d95bar			; 4.92453
	DD	040c963a4r			; 6.29341
	DD	03a91c087r			; 0.001112
	DD	04099419er			; 4.78926
	DD	040a050f0r			; 5.00988
	DD	040cddf8fr			; 6.43354
	DD	03a10b418r			; 0.000552
	DD	04098580ar			; 4.76075
	DD	040a2e4f1r			; 5.09045
	DD	040d32e1fr			; 6.59938
	DD	039ccff22r			; 0.000391
	DD	0409ec42cr			; 4.96145
	DD	040a38d95r			; 5.11103
	DD	040d8342fr			; 6.75637
	DD	039ae1049r			; 0.000332
	DD	0409f63f8r			; 4.98095
	DD	040a46b89r			; 5.13813
	DD	040dbc1e8r			; 6.86742
	DD	03952c387r			; 0.000201
	DD	040a5d297r			; 5.18196
	DD	04097af64r			; 4.74016
	DD	040cec07dr			; 6.461
	DD	0397ba882r			; 0.00024
	DD	040a5eeb7r			; 5.18539
	DD	0409bfeb0r			; 4.87484
	DD	040da3603r			; 6.81909
	DD	03908509cr			; 0.00013
	DD	040a8a6b5r			; 5.27035
	DD	040977eacr			; 4.73421
	DD	040da708fr			; 6.82624
	DD	038da1a93r			; 0.000104
	DD	040abe6e8r			; 5.37194
	DD	040930af4r			; 4.59509
	DD	040d5189ar			; 6.65925
	DD	038ae1049r			; 8.3e-05
	DD	040ab9581r			; 5.362
	DD	04093c250r			; 4.61747
	DD	040dacf03r			; 6.83777
	DD	03890b418r			; 6.9e-05
	DD	040a926e3r			; 5.286
	DD	0409828e7r			; 4.75499
	DD	040e516e1r			; 7.15904
	DD	0384d8559r			; 4.9e-05
	DD	040afa18cr			; 5.48847
	DD	0408cace9r			; 4.39611
	DD	040d74682r			; 6.72736
	DD	038734507r			; 5.8e-05
	DD	0409eafa3r			; 4.95894
	DD	040929321r			; 4.58046
	DD	040cf49a5r			; 6.47774
	DD	037eae18br			; 2.8e-05
	DD	040b0ae1br			; 5.52125
	DD	0408e1885r			; 4.44049
	DD	040e68f80r			; 7.20502
	DD	000000000r			; 0
	DD	000000000r			; 0
	DD	000000000r			; 0
	DD	000000000r			; 0
	DD	0379f6230r			; 1.9e-05
	DD	040b9f5d8r			; 5.81126
	DD	0408cc582r			; 4.39911
	DD	040eac30dr			; 7.33631
_cbf_masks DW	01fH
	DW	0fH
	DW	07H
	DW	03H
	DW	01H
	ORG $+2
_g_sig_last_scan_8x8 DD 00H
	DD	02H
	DD	01H
	DD	03H
	DD	00H
	DD	01H
	DD	02H
	DD	03H
	DD	00H
	DD	02H
	DD	01H
	DD	03H
	ORG $+4
_g_sig_last_scan_16x16 DD 00H
	DD	04H
	DD	01H
	DD	08H
	DD	05H
	DD	02H
	DD	0cH
	DD	09H
	DD	06H
	DD	03H
	DD	0dH
	DD	0aH
	DD	07H
	DD	0eH
	DD	0bH
	DD	0fH
_g_sig_last_scan_32x32 DD 00H
	DD	08H
	DD	01H
	DD	010H
	DD	09H
	DD	02H
	DD	018H
	DD	011H
	DD	0aH
	DD	03H
	DD	020H
	DD	019H
	DD	012H
	DD	0bH
	DD	04H
	DD	028H
	DD	021H
	DD	01aH
	DD	013H
	DD	0cH
	DD	05H
	DD	030H
	DD	029H
	DD	022H
	DD	01bH
	DD	014H
	DD	0dH
	DD	06H
	DD	038H
	DD	031H
	DD	02aH
	DD	023H
	DD	01cH
	DD	015H
	DD	0eH
	DD	07H
	DD	039H
	DD	032H
	DD	02bH
	DD	024H
	DD	01dH
	DD	016H
	DD	0fH
	DD	03aH
	DD	033H
	DD	02cH
	DD	025H
	DD	01eH
	DD	017H
	DD	03bH
	DD	034H
	DD	02dH
	DD	026H
	DD	01fH
	DD	03cH
	DD	035H
	DD	02eH
	DD	027H
	DD	03dH
	DD	036H
	DD	02fH
	DD	03eH
	DD	037H
	DD	03fH
_g_sig_last_scan_cg DD FLAT:_g_sig_last_scan_8x8
	DD	FLAT:_g_sig_last_scan_8x8+16
	DD	FLAT:_g_sig_last_scan_8x8+32
	DD	FLAT:_g_sig_last_scan_8x8
	DD	FLAT:_g_sig_last_scan_8x8+16
	DD	FLAT:_g_sig_last_scan_8x8+32
	DD	FLAT:_g_sig_last_scan_16x16
	DD	00H
	DD	00H
	DD	FLAT:_g_sig_last_scan_32x32
	DD	00H
	DD	00H
_g_group_idx DB	00H
	DB	01H
	DB	02H
	DB	03H
	DB	04H
	DB	04H
	DB	05H
	DB	05H
	DB	06H
	DB	06H
	DB	06H
	DB	06H
	DB	07H
	DB	07H
	DB	07H
	DB	07H
	DB	08H
	DB	08H
	DB	08H
	DB	08H
	DB	08H
	DB	08H
	DB	08H
	DB	08H
	DB	09H
	DB	09H
	DB	09H
	DB	09H
	DB	09H
	DB	09H
	DB	09H
	DB	09H
_g_min_in_group DB 00H
	DB	01H
	DB	02H
	DB	03H
	DB	04H
	DB	06H
	DB	08H
	DB	0cH
	DB	010H
	DB	018H
CONST	ENDS
PUBLIC	_kvz_lcu_at_slice_start
PUBLIC	_kvz_lcu_at_slice_end
PUBLIC	_kvz_lcu_at_tile_start
PUBLIC	_kvz_lcu_at_tile_end
PUBLIC	_kvz_lcu_in_first_row
PUBLIC	_kvz_lcu_in_last_row
PUBLIC	_kvz_lcu_in_first_column
PUBLIC	_kvz_lcu_in_last_column
PUBLIC	__JustMyCode_Default
PUBLIC	?__LINE__Var@?0??kvz_lcu_at_slice_start@@9@9	; `kvz_lcu_at_slice_start'::`1'::__LINE__Var
PUBLIC	??_C@_1IK@MGAHEHHM@?$AAF?$AA?3?$AA?2?$AAo?$AAp?$AAe?$AAn?$AA_?$AAc?$AAo?$AAd?$AAe?$AAc?$AA_?$AAl@ ; `string'
PUBLIC	??_C@_1LK@FANFPIDA@?$AAl?$AAc?$AAu?$AA_?$AAa?$AAd?$AAd?$AAr?$AA_?$AAi?$AAn?$AA_?$AAt?$AAs?$AA?5@ ; `string'
PUBLIC	?__LINE__Var@?0??kvz_lcu_at_slice_end@@9@9	; `kvz_lcu_at_slice_end'::`1'::__LINE__Var
PUBLIC	?__LINE__Var@?0??kvz_lcu_at_tile_start@@9@9	; `kvz_lcu_at_tile_start'::`1'::__LINE__Var
PUBLIC	?__LINE__Var@?0??kvz_lcu_at_tile_end@@9@9	; `kvz_lcu_at_tile_end'::`1'::__LINE__Var
EXTRN	__imp___wassert:PROC
EXTRN	@__CheckForDebuggerJustMyCode@4:PROC
EXTRN	__RTC_CheckEsp:PROC
EXTRN	__RTC_InitBase:PROC
EXTRN	__RTC_Shutdown:PROC
;	COMDAT rtc$TMZ
rtc$TMZ	SEGMENT
__RTC_Shutdown.rtc$TMZ DD FLAT:__RTC_Shutdown
rtc$TMZ	ENDS
;	COMDAT rtc$IMZ
rtc$IMZ	SEGMENT
__RTC_InitBase.rtc$IMZ DD FLAT:__RTC_InitBase
rtc$IMZ	ENDS
;	COMDAT ?__LINE__Var@?0??kvz_lcu_at_tile_end@@9@9
_DATA	SEGMENT
?__LINE__Var@?0??kvz_lcu_at_tile_end@@9@9 DD 045H	; `kvz_lcu_at_tile_end'::`1'::__LINE__Var
_DATA	ENDS
;	COMDAT ?__LINE__Var@?0??kvz_lcu_at_tile_start@@9@9
_DATA	SEGMENT
?__LINE__Var@?0??kvz_lcu_at_tile_start@@9@9 DD 03cH	; `kvz_lcu_at_tile_start'::`1'::__LINE__Var
_DATA	ENDS
;	COMDAT ?__LINE__Var@?0??kvz_lcu_at_slice_end@@9@9
_DATA	SEGMENT
?__LINE__Var@?0??kvz_lcu_at_slice_end@@9@9 DD 032H	; `kvz_lcu_at_slice_end'::`1'::__LINE__Var
_DATA	ENDS
;	COMDAT ??_C@_1LK@FANFPIDA@?$AAl?$AAc?$AAu?$AA_?$AAa?$AAd?$AAd?$AAr?$AA_?$AAi?$AAn?$AA_?$AAt?$AAs?$AA?5@
CONST	SEGMENT
??_C@_1LK@FANFPIDA@?$AAl?$AAc?$AAu?$AA_?$AAa?$AAd?$AAd?$AAr?$AA_?$AAi?$AAn?$AA_?$AAt?$AAs?$AA?5@ DB 'l'
	DB	00H, 'c', 00H, 'u', 00H, '_', 00H, 'a', 00H, 'd', 00H, 'd', 00H
	DB	'r', 00H, '_', 00H, 'i', 00H, 'n', 00H, '_', 00H, 't', 00H, 's'
	DB	00H, ' ', 00H, '>', 00H, '=', 00H, ' ', 00H, '0', 00H, ' ', 00H
	DB	'&', 00H, '&', 00H, ' ', 00H, 'l', 00H, 'c', 00H, 'u', 00H, '_'
	DB	00H, 'a', 00H, 'd', 00H, 'd', 00H, 'r', 00H, '_', 00H, 'i', 00H
	DB	'n', 00H, '_', 00H, 't', 00H, 's', 00H, ' ', 00H, '<', 00H, ' '
	DB	00H, 'e', 00H, 'n', 00H, 'c', 00H, 'o', 00H, 'd', 00H, 'e', 00H
	DB	'r', 00H, '-', 00H, '>', 00H, 'i', 00H, 'n', 00H, '.', 00H, 'h'
	DB	00H, 'e', 00H, 'i', 00H, 'g', 00H, 'h', 00H, 't', 00H, '_', 00H
	DB	'i', 00H, 'n', 00H, '_', 00H, 'l', 00H, 'c', 00H, 'u', 00H, ' '
	DB	00H, '*', 00H, ' ', 00H, 'e', 00H, 'n', 00H, 'c', 00H, 'o', 00H
	DB	'd', 00H, 'e', 00H, 'r', 00H, '-', 00H, '>', 00H, 'i', 00H, 'n'
	DB	00H, '.', 00H, 'w', 00H, 'i', 00H, 'd', 00H, 't', 00H, 'h', 00H
	DB	'_', 00H, 'i', 00H, 'n', 00H, '_', 00H, 'l', 00H, 'c', 00H, 'u'
	DB	00H, 00H, 00H				; `string'
CONST	ENDS
;	COMDAT ??_C@_1IK@MGAHEHHM@?$AAF?$AA?3?$AA?2?$AAo?$AAp?$AAe?$AAn?$AA_?$AAc?$AAo?$AAd?$AAe?$AAc?$AA_?$AAl@
CONST	SEGMENT
??_C@_1IK@MGAHEHHM@?$AAF?$AA?3?$AA?2?$AAo?$AAp?$AAe?$AAn?$AA_?$AAc?$AAo?$AAd?$AAe?$AAc?$AA_?$AAl@ DB 'F'
	DB	00H, ':', 00H, '\', 00H, 'o', 00H, 'p', 00H, 'e', 00H, 'n', 00H
	DB	'_', 00H, 'c', 00H, 'o', 00H, 'd', 00H, 'e', 00H, 'c', 00H, '_'
	DB	00H, 'l', 00H, 'e', 00H, 'a', 00H, 'r', 00H, 'n', 00H, '_', 00H
	DB	'2', 00H, '0', 00H, '2', 00H, '1', 00H, '\', 00H, 'k', 00H, 'v'
	DB	00H, 'a', 00H, 'z', 00H, 'a', 00H, 'a', 00H, 'r', 00H, '-', 00H
	DB	'm', 00H, 'a', 00H, 's', 00H, 't', 00H, 'e', 00H, 'r', 00H, '\'
	DB	00H, 's', 00H, 'r', 00H, 'c', 00H, '\', 00H, 'e', 00H, 'n', 00H
	DB	'c', 00H, 'o', 00H, 'd', 00H, 'e', 00H, 'r', 00H, '_', 00H, 's'
	DB	00H, 't', 00H, 'a', 00H, 't', 00H, 'e', 00H, '-', 00H, 'g', 00H
	DB	'e', 00H, 'o', 00H, 'm', 00H, 'e', 00H, 't', 00H, 'r', 00H, 'y'
	DB	00H, '.', 00H, 'c', 00H, 00H, 00H		; `string'
CONST	ENDS
;	COMDAT ?__LINE__Var@?0??kvz_lcu_at_slice_start@@9@9
_DATA	SEGMENT
?__LINE__Var@?0??kvz_lcu_at_slice_start@@9@9 DD 028H	; `kvz_lcu_at_slice_start'::`1'::__LINE__Var
_DATA	ENDS
; Function compile flags: /Odt
;	COMDAT __JustMyCode_Default
_TEXT	SEGMENT
__JustMyCode_Default PROC				; COMDAT
	push	ebp
	mov	ebp, esp
	pop	ebp
	ret	0
__JustMyCode_Default ENDP
_TEXT	ENDS
; Function compile flags: /Odtp /RTCsu /ZI
; File F:\open_codec_learn_2021\kvazaar-master\src\encoder_state-geometry.c
;	COMDAT _kvz_lcu_in_last_column
_TEXT	SEGMENT
_lcu_addr_in_rs$ = -8					; size = 4
_state$ = 8						; size = 4
_lcu_addr_in_ts$ = 12					; size = 4
_kvz_lcu_in_last_column PROC				; COMDAT

; 137  : int kvz_lcu_in_last_column(const encoder_state_t * const state, int lcu_addr_in_ts) {

	push	ebp
	mov	ebp, esp
	sub	esp, 204				; 000000ccH
	push	ebx
	push	esi
	push	edi
	lea	edi, DWORD PTR [ebp-204]
	mov	ecx, 51					; 00000033H
	mov	eax, -858993460				; ccccccccH
	rep stosd
	mov	ecx, OFFSET __5DECB962_encoder_state-geometry@c
	call	@__CheckForDebuggerJustMyCode@4

; 138  :   const int lcu_addr_in_rs = state->encoder_control->tiles_ctb_addr_ts_to_rs[lcu_addr_in_ts];

	mov	eax, DWORD PTR _state$[ebp]
	mov	ecx, DWORD PTR [eax]
	mov	edx, DWORD PTR [ecx+4500]
	mov	eax, DWORD PTR _lcu_addr_in_ts$[ebp]
	mov	ecx, DWORD PTR [edx+eax*4]
	mov	DWORD PTR _lcu_addr_in_rs$[ebp], ecx

; 139  : 
; 140  :   //First column of tile?
; 141  :   if (lcu_addr_in_rs % state->encoder_control->in.width_in_lcu == state->tile->lcu_offset_x + state->tile->frame->width_in_lcu - 1) {

	mov	eax, DWORD PTR _state$[ebp]
	mov	ecx, DWORD PTR [eax]
	mov	eax, DWORD PTR _lcu_addr_in_rs$[ebp]
	cdq
	idiv	DWORD PTR [ecx+2488]
	mov	eax, DWORD PTR _state$[ebp]
	mov	ecx, DWORD PTR [eax+24]
	mov	eax, DWORD PTR _state$[ebp]
	mov	eax, DWORD PTR [eax+24]
	mov	eax, DWORD PTR [eax]
	mov	ecx, DWORD PTR [ecx+8]
	mov	eax, DWORD PTR [eax+20]
	lea	ecx, DWORD PTR [ecx+eax-1]
	cmp	edx, ecx
	jne	SHORT $LN2@kvz_lcu_in

; 142  :     return 1;

	mov	eax, 1
	jmp	SHORT $LN1@kvz_lcu_in
$LN2@kvz_lcu_in:

; 143  :   }
; 144  : 
; 145  :   //Slice start may not be aligned with the tile, so we need to allow this
; 146  :   if (lcu_addr_in_rs == state->slice->end_in_rs) {

	mov	eax, DWORD PTR _state$[ebp]
	mov	ecx, DWORD PTR [eax+28]
	mov	edx, DWORD PTR _lcu_addr_in_rs$[ebp]
	cmp	edx, DWORD PTR [ecx+16]
	jne	SHORT $LN3@kvz_lcu_in

; 147  :     return 1;

	mov	eax, 1
	jmp	SHORT $LN1@kvz_lcu_in
$LN3@kvz_lcu_in:

; 148  :   }
; 149  : 
; 150  :   return 0;

	xor	eax, eax
$LN1@kvz_lcu_in:

; 151  : }

	pop	edi
	pop	esi
	pop	ebx
	add	esp, 204				; 000000ccH
	cmp	ebp, esp
	call	__RTC_CheckEsp
	mov	esp, ebp
	pop	ebp
	ret	0
_kvz_lcu_in_last_column ENDP
_TEXT	ENDS
; Function compile flags: /Odtp /RTCsu /ZI
; File F:\open_codec_learn_2021\kvazaar-master\src\encoder_state-geometry.c
;	COMDAT _kvz_lcu_in_first_column
_TEXT	SEGMENT
_lcu_addr_in_rs$ = -8					; size = 4
_state$ = 8						; size = 4
_lcu_addr_in_ts$ = 12					; size = 4
_kvz_lcu_in_first_column PROC				; COMDAT

; 120  : int kvz_lcu_in_first_column(const encoder_state_t * const state, int lcu_addr_in_ts) {

	push	ebp
	mov	ebp, esp
	sub	esp, 204				; 000000ccH
	push	ebx
	push	esi
	push	edi
	lea	edi, DWORD PTR [ebp-204]
	mov	ecx, 51					; 00000033H
	mov	eax, -858993460				; ccccccccH
	rep stosd
	mov	ecx, OFFSET __5DECB962_encoder_state-geometry@c
	call	@__CheckForDebuggerJustMyCode@4

; 121  :   const int lcu_addr_in_rs = state->encoder_control->tiles_ctb_addr_ts_to_rs[lcu_addr_in_ts];

	mov	eax, DWORD PTR _state$[ebp]
	mov	ecx, DWORD PTR [eax]
	mov	edx, DWORD PTR [ecx+4500]
	mov	eax, DWORD PTR _lcu_addr_in_ts$[ebp]
	mov	ecx, DWORD PTR [edx+eax*4]
	mov	DWORD PTR _lcu_addr_in_rs$[ebp], ecx

; 122  : 
; 123  :   //First column of tile?
; 124  :   if (lcu_addr_in_rs % state->encoder_control->in.width_in_lcu == state->tile->lcu_offset_x) {

	mov	eax, DWORD PTR _state$[ebp]
	mov	ecx, DWORD PTR [eax]
	mov	eax, DWORD PTR _lcu_addr_in_rs$[ebp]
	cdq
	idiv	DWORD PTR [ecx+2488]
	mov	eax, DWORD PTR _state$[ebp]
	mov	ecx, DWORD PTR [eax+24]
	cmp	edx, DWORD PTR [ecx+8]
	jne	SHORT $LN2@kvz_lcu_in

; 125  :     return 1;

	mov	eax, 1
	jmp	SHORT $LN1@kvz_lcu_in
$LN2@kvz_lcu_in:

; 126  :   }
; 127  : 
; 128  :   //Slice start may not be aligned with the tile, so we need to allow this
; 129  :   if (lcu_addr_in_rs == state->slice->start_in_rs) {

	mov	eax, DWORD PTR _state$[ebp]
	mov	ecx, DWORD PTR [eax+28]
	mov	edx, DWORD PTR _lcu_addr_in_rs$[ebp]
	cmp	edx, DWORD PTR [ecx+12]
	jne	SHORT $LN3@kvz_lcu_in

; 130  :     return 1;

	mov	eax, 1
	jmp	SHORT $LN1@kvz_lcu_in
$LN3@kvz_lcu_in:

; 131  :   }
; 132  : 
; 133  :   return 0;

	xor	eax, eax
$LN1@kvz_lcu_in:

; 134  : }

	pop	edi
	pop	esi
	pop	ebx
	add	esp, 204				; 000000ccH
	cmp	ebp, esp
	call	__RTC_CheckEsp
	mov	esp, ebp
	pop	ebp
	ret	0
_kvz_lcu_in_first_column ENDP
_TEXT	ENDS
; Function compile flags: /Odtp /RTCsu /ZI
; File F:\open_codec_learn_2021\kvazaar-master\src\encoder_state-geometry.c
;	COMDAT _kvz_lcu_in_last_row
_TEXT	SEGMENT
_lcu_addr_in_rs$ = -8					; size = 4
_state$ = 8						; size = 4
_lcu_addr_in_ts$ = 12					; size = 4
_kvz_lcu_in_last_row PROC				; COMDAT

; 99   : int kvz_lcu_in_last_row(const encoder_state_t * const state, int lcu_addr_in_ts) {

	push	ebp
	mov	ebp, esp
	sub	esp, 204				; 000000ccH
	push	ebx
	push	esi
	push	edi
	lea	edi, DWORD PTR [ebp-204]
	mov	ecx, 51					; 00000033H
	mov	eax, -858993460				; ccccccccH
	rep stosd
	mov	ecx, OFFSET __5DECB962_encoder_state-geometry@c
	call	@__CheckForDebuggerJustMyCode@4

; 100  :   const int lcu_addr_in_rs = state->encoder_control->tiles_ctb_addr_ts_to_rs[lcu_addr_in_ts];

	mov	eax, DWORD PTR _state$[ebp]
	mov	ecx, DWORD PTR [eax]
	mov	edx, DWORD PTR [ecx+4500]
	mov	eax, DWORD PTR _lcu_addr_in_ts$[ebp]
	mov	ecx, DWORD PTR [edx+eax*4]
	mov	DWORD PTR _lcu_addr_in_rs$[ebp], ecx

; 101  : 
; 102  :   if (lcu_addr_in_rs / state->encoder_control->in.width_in_lcu == state->tile->lcu_offset_y + state->tile->frame->height_in_lcu - 1) {

	mov	eax, DWORD PTR _state$[ebp]
	mov	ecx, DWORD PTR [eax]
	mov	eax, DWORD PTR _lcu_addr_in_rs$[ebp]
	cdq
	idiv	DWORD PTR [ecx+2488]
	mov	edx, DWORD PTR _state$[ebp]
	mov	ecx, DWORD PTR [edx+24]
	mov	edx, DWORD PTR _state$[ebp]
	mov	edx, DWORD PTR [edx+24]
	mov	edx, DWORD PTR [edx]
	mov	ecx, DWORD PTR [ecx+12]
	mov	edx, DWORD PTR [edx+16]
	lea	ecx, DWORD PTR [ecx+edx-1]
	cmp	eax, ecx
	jne	SHORT $LN2@kvz_lcu_in

; 103  :     return 1;

	mov	eax, 1
	jmp	SHORT $LN1@kvz_lcu_in
$LN2@kvz_lcu_in:

; 104  :   }
; 105  : 
; 106  :   if (lcu_addr_in_rs / state->encoder_control->in.width_in_lcu == state->slice->end_in_rs / state->encoder_control->in.width_in_lcu) {

	mov	eax, DWORD PTR _state$[ebp]
	mov	ecx, DWORD PTR [eax]
	mov	eax, DWORD PTR _lcu_addr_in_rs$[ebp]
	cdq
	idiv	DWORD PTR [ecx+2488]
	mov	ecx, eax
	mov	edx, DWORD PTR _state$[ebp]
	mov	eax, DWORD PTR [edx+28]
	mov	edx, DWORD PTR _state$[ebp]
	mov	esi, DWORD PTR [edx]
	mov	eax, DWORD PTR [eax+16]
	cdq
	idiv	DWORD PTR [esi+2488]
	cmp	ecx, eax
	jne	SHORT $LN3@kvz_lcu_in

; 107  :     return 1;

	mov	eax, 1
	jmp	SHORT $LN1@kvz_lcu_in
$LN3@kvz_lcu_in:

; 108  :   }
; 109  : 
; 110  :   //One row below is before the end of the slice => it's also a boundary
; 111  :   if (lcu_addr_in_rs + state->encoder_control->in.width_in_lcu > state->slice->end_in_rs) {

	mov	eax, DWORD PTR _state$[ebp]
	mov	ecx, DWORD PTR [eax]
	mov	edx, DWORD PTR _lcu_addr_in_rs$[ebp]
	add	edx, DWORD PTR [ecx+2488]
	mov	eax, DWORD PTR _state$[ebp]
	mov	ecx, DWORD PTR [eax+28]
	cmp	edx, DWORD PTR [ecx+16]
	jle	SHORT $LN4@kvz_lcu_in

; 112  :     return 1;

	mov	eax, 1
	jmp	SHORT $LN1@kvz_lcu_in
$LN4@kvz_lcu_in:

; 113  :   }
; 114  : 
; 115  :   return 0;

	xor	eax, eax
$LN1@kvz_lcu_in:

; 116  : }

	pop	edi
	pop	esi
	pop	ebx
	add	esp, 204				; 000000ccH
	cmp	ebp, esp
	call	__RTC_CheckEsp
	mov	esp, ebp
	pop	ebp
	ret	0
_kvz_lcu_in_last_row ENDP
_TEXT	ENDS
; Function compile flags: /Odtp /RTCsu /ZI
; File F:\open_codec_learn_2021\kvazaar-master\src\encoder_state-geometry.c
;	COMDAT _kvz_lcu_in_first_row
_TEXT	SEGMENT
_lcu_addr_in_rs$ = -8					; size = 4
_state$ = 8						; size = 4
_lcu_addr_in_ts$ = 12					; size = 4
_kvz_lcu_in_first_row PROC				; COMDAT

; 79   : int kvz_lcu_in_first_row(const encoder_state_t * const state, int lcu_addr_in_ts) {

	push	ebp
	mov	ebp, esp
	sub	esp, 204				; 000000ccH
	push	ebx
	push	esi
	push	edi
	lea	edi, DWORD PTR [ebp-204]
	mov	ecx, 51					; 00000033H
	mov	eax, -858993460				; ccccccccH
	rep stosd
	mov	ecx, OFFSET __5DECB962_encoder_state-geometry@c
	call	@__CheckForDebuggerJustMyCode@4

; 80   :   const int lcu_addr_in_rs = state->encoder_control->tiles_ctb_addr_ts_to_rs[lcu_addr_in_ts];

	mov	eax, DWORD PTR _state$[ebp]
	mov	ecx, DWORD PTR [eax]
	mov	edx, DWORD PTR [ecx+4500]
	mov	eax, DWORD PTR _lcu_addr_in_ts$[ebp]
	mov	ecx, DWORD PTR [edx+eax*4]
	mov	DWORD PTR _lcu_addr_in_rs$[ebp], ecx

; 81   : 
; 82   :   if (lcu_addr_in_rs / state->encoder_control->in.width_in_lcu == state->tile->lcu_offset_y) {

	mov	eax, DWORD PTR _state$[ebp]
	mov	ecx, DWORD PTR [eax]
	mov	eax, DWORD PTR _lcu_addr_in_rs$[ebp]
	cdq
	idiv	DWORD PTR [ecx+2488]
	mov	edx, DWORD PTR _state$[ebp]
	mov	ecx, DWORD PTR [edx+24]
	cmp	eax, DWORD PTR [ecx+12]
	jne	SHORT $LN2@kvz_lcu_in

; 83   :     return 1;

	mov	eax, 1
	jmp	SHORT $LN1@kvz_lcu_in
$LN2@kvz_lcu_in:

; 84   :   }
; 85   : 
; 86   :   if (lcu_addr_in_rs / state->encoder_control->in.width_in_lcu == state->slice->start_in_rs / state->encoder_control->in.width_in_lcu) {

	mov	eax, DWORD PTR _state$[ebp]
	mov	ecx, DWORD PTR [eax]
	mov	eax, DWORD PTR _lcu_addr_in_rs$[ebp]
	cdq
	idiv	DWORD PTR [ecx+2488]
	mov	ecx, eax
	mov	edx, DWORD PTR _state$[ebp]
	mov	eax, DWORD PTR [edx+28]
	mov	edx, DWORD PTR _state$[ebp]
	mov	esi, DWORD PTR [edx]
	mov	eax, DWORD PTR [eax+12]
	cdq
	idiv	DWORD PTR [esi+2488]
	cmp	ecx, eax
	jne	SHORT $LN3@kvz_lcu_in

; 87   :     return 1;

	mov	eax, 1
	jmp	SHORT $LN1@kvz_lcu_in
$LN3@kvz_lcu_in:

; 88   :   }
; 89   : 
; 90   :   //One row above is before the start of the slice => it's also a boundary
; 91   :   if (lcu_addr_in_rs - state->encoder_control->in.width_in_lcu < state->slice->start_in_rs) {

	mov	eax, DWORD PTR _state$[ebp]
	mov	ecx, DWORD PTR [eax]
	mov	edx, DWORD PTR _lcu_addr_in_rs$[ebp]
	sub	edx, DWORD PTR [ecx+2488]
	mov	eax, DWORD PTR _state$[ebp]
	mov	ecx, DWORD PTR [eax+28]
	cmp	edx, DWORD PTR [ecx+12]
	jge	SHORT $LN4@kvz_lcu_in

; 92   :     return 1;

	mov	eax, 1
	jmp	SHORT $LN1@kvz_lcu_in
$LN4@kvz_lcu_in:

; 93   :   }
; 94   : 
; 95   :   return 0;

	xor	eax, eax
$LN1@kvz_lcu_in:

; 96   : }

	pop	edi
	pop	esi
	pop	ebx
	add	esp, 204				; 000000ccH
	cmp	ebp, esp
	call	__RTC_CheckEsp
	mov	esp, ebp
	pop	ebp
	ret	0
_kvz_lcu_in_first_row ENDP
_TEXT	ENDS
; Function compile flags: /Odtp /RTCsu /ZI
; File F:\open_codec_learn_2021\kvazaar-master\src\encoder_state-geometry.c
;	COMDAT _kvz_lcu_at_tile_end
_TEXT	SEGMENT
_encoder$ = 8						; size = 4
_lcu_addr_in_ts$ = 12					; size = 4
_kvz_lcu_at_tile_end PROC				; COMDAT

; 69   : int kvz_lcu_at_tile_end(const encoder_control_t * const encoder, int lcu_addr_in_ts) {

	push	ebp
	mov	ebp, esp
	sub	esp, 192				; 000000c0H
	push	ebx
	push	esi
	push	edi
	lea	edi, DWORD PTR [ebp-192]
	mov	ecx, 48					; 00000030H
	mov	eax, -858993460				; ccccccccH
	rep stosd
	mov	ecx, OFFSET __5DECB962_encoder_state-geometry@c
	call	@__CheckForDebuggerJustMyCode@4

; 70   :   assert(lcu_addr_in_ts >= 0 && lcu_addr_in_ts < encoder->in.height_in_lcu * encoder->in.width_in_lcu);

	cmp	DWORD PTR _lcu_addr_in_ts$[ebp], 0
	jl	SHORT $LN5@kvz_lcu_at
	mov	eax, DWORD PTR _encoder$[ebp]
	mov	ecx, DWORD PTR _encoder$[ebp]
	mov	edx, DWORD PTR [eax+2492]
	imul	edx, DWORD PTR [ecx+2488]
	cmp	DWORD PTR _lcu_addr_in_ts$[ebp], edx
	jl	SHORT $LN6@kvz_lcu_at
$LN5@kvz_lcu_at:
	mov	eax, DWORD PTR ?__LINE__Var@?0??kvz_lcu_at_tile_end@@9@9
	add	eax, 1
	mov	esi, esp
	push	eax
	push	OFFSET ??_C@_1IK@MGAHEHHM@?$AAF?$AA?3?$AA?2?$AAo?$AAp?$AAe?$AAn?$AA_?$AAc?$AAo?$AAd?$AAe?$AAc?$AA_?$AAl@
	push	OFFSET ??_C@_1LK@FANFPIDA@?$AAl?$AAc?$AAu?$AA_?$AAa?$AAd?$AAd?$AAr?$AA_?$AAi?$AAn?$AA_?$AAt?$AAs?$AA?5@
	call	DWORD PTR __imp___wassert
	add	esp, 12					; 0000000cH
	cmp	esi, esp
	call	__RTC_CheckEsp
$LN6@kvz_lcu_at:

; 71   :   if (lcu_addr_in_ts == encoder->in.height_in_lcu * encoder->in.width_in_lcu - 1) return 1;

	mov	eax, DWORD PTR _encoder$[ebp]
	mov	ecx, DWORD PTR _encoder$[ebp]
	mov	edx, DWORD PTR [eax+2492]
	imul	edx, DWORD PTR [ecx+2488]
	sub	edx, 1
	cmp	DWORD PTR _lcu_addr_in_ts$[ebp], edx
	jne	SHORT $LN2@kvz_lcu_at
	mov	eax, 1
	jmp	SHORT $LN1@kvz_lcu_at
$LN2@kvz_lcu_at:

; 72   :   if (encoder->tiles_tile_id[lcu_addr_in_ts + 1] != encoder->tiles_tile_id[lcu_addr_in_ts]) {

	mov	eax, DWORD PTR _encoder$[ebp]
	mov	ecx, DWORD PTR [eax+4504]
	mov	edx, DWORD PTR _encoder$[ebp]
	mov	eax, DWORD PTR [edx+4504]
	mov	edx, DWORD PTR _lcu_addr_in_ts$[ebp]
	mov	esi, DWORD PTR _lcu_addr_in_ts$[ebp]
	mov	ecx, DWORD PTR [ecx+edx*4+4]
	cmp	ecx, DWORD PTR [eax+esi*4]
	je	SHORT $LN3@kvz_lcu_at

; 73   :     return 1;

	mov	eax, 1
	jmp	SHORT $LN1@kvz_lcu_at
$LN3@kvz_lcu_at:

; 74   :   }
; 75   :   return 0;

	xor	eax, eax
$LN1@kvz_lcu_at:

; 76   : }

	pop	edi
	pop	esi
	pop	ebx
	add	esp, 192				; 000000c0H
	cmp	ebp, esp
	call	__RTC_CheckEsp
	mov	esp, ebp
	pop	ebp
	ret	0
_kvz_lcu_at_tile_end ENDP
_TEXT	ENDS
; Function compile flags: /Odtp /RTCsu /ZI
; File F:\open_codec_learn_2021\kvazaar-master\src\encoder_state-geometry.c
;	COMDAT _kvz_lcu_at_tile_start
_TEXT	SEGMENT
_encoder$ = 8						; size = 4
_lcu_addr_in_ts$ = 12					; size = 4
_kvz_lcu_at_tile_start PROC				; COMDAT

; 60   : int kvz_lcu_at_tile_start(const encoder_control_t * const encoder, int lcu_addr_in_ts) {

	push	ebp
	mov	ebp, esp
	sub	esp, 192				; 000000c0H
	push	ebx
	push	esi
	push	edi
	lea	edi, DWORD PTR [ebp-192]
	mov	ecx, 48					; 00000030H
	mov	eax, -858993460				; ccccccccH
	rep stosd
	mov	ecx, OFFSET __5DECB962_encoder_state-geometry@c
	call	@__CheckForDebuggerJustMyCode@4

; 61   :   assert(lcu_addr_in_ts >= 0 && lcu_addr_in_ts < encoder->in.height_in_lcu * encoder->in.width_in_lcu);

	cmp	DWORD PTR _lcu_addr_in_ts$[ebp], 0
	jl	SHORT $LN5@kvz_lcu_at
	mov	eax, DWORD PTR _encoder$[ebp]
	mov	ecx, DWORD PTR _encoder$[ebp]
	mov	edx, DWORD PTR [eax+2492]
	imul	edx, DWORD PTR [ecx+2488]
	cmp	DWORD PTR _lcu_addr_in_ts$[ebp], edx
	jl	SHORT $LN6@kvz_lcu_at
$LN5@kvz_lcu_at:
	mov	eax, DWORD PTR ?__LINE__Var@?0??kvz_lcu_at_tile_start@@9@9
	add	eax, 1
	mov	esi, esp
	push	eax
	push	OFFSET ??_C@_1IK@MGAHEHHM@?$AAF?$AA?3?$AA?2?$AAo?$AAp?$AAe?$AAn?$AA_?$AAc?$AAo?$AAd?$AAe?$AAc?$AA_?$AAl@
	push	OFFSET ??_C@_1LK@FANFPIDA@?$AAl?$AAc?$AAu?$AA_?$AAa?$AAd?$AAd?$AAr?$AA_?$AAi?$AAn?$AA_?$AAt?$AAs?$AA?5@
	call	DWORD PTR __imp___wassert
	add	esp, 12					; 0000000cH
	cmp	esi, esp
	call	__RTC_CheckEsp
$LN6@kvz_lcu_at:

; 62   :   if (lcu_addr_in_ts == 0) return 1;

	cmp	DWORD PTR _lcu_addr_in_ts$[ebp], 0
	jne	SHORT $LN2@kvz_lcu_at
	mov	eax, 1
	jmp	SHORT $LN1@kvz_lcu_at
$LN2@kvz_lcu_at:

; 63   :   if (encoder->tiles_tile_id[lcu_addr_in_ts - 1] != encoder->tiles_tile_id[lcu_addr_in_ts]) {

	mov	eax, DWORD PTR _encoder$[ebp]
	mov	ecx, DWORD PTR [eax+4504]
	mov	edx, DWORD PTR _encoder$[ebp]
	mov	eax, DWORD PTR [edx+4504]
	mov	edx, DWORD PTR _lcu_addr_in_ts$[ebp]
	mov	esi, DWORD PTR _lcu_addr_in_ts$[ebp]
	mov	ecx, DWORD PTR [ecx+edx*4-4]
	cmp	ecx, DWORD PTR [eax+esi*4]
	je	SHORT $LN3@kvz_lcu_at

; 64   :     return 1;

	mov	eax, 1
	jmp	SHORT $LN1@kvz_lcu_at
$LN3@kvz_lcu_at:

; 65   :   }
; 66   :   return 0;

	xor	eax, eax
$LN1@kvz_lcu_at:

; 67   : }

	pop	edi
	pop	esi
	pop	ebx
	add	esp, 192				; 000000c0H
	cmp	ebp, esp
	call	__RTC_CheckEsp
	mov	esp, ebp
	pop	ebp
	ret	0
_kvz_lcu_at_tile_start ENDP
_TEXT	ENDS
; Function compile flags: /Odtp /RTCsu /ZI
; File F:\open_codec_learn_2021\kvazaar-master\src\encoder_state-geometry.c
;	COMDAT _kvz_lcu_at_slice_end
_TEXT	SEGMENT
_i$ = -8						; size = 4
_encoder$ = 8						; size = 4
_lcu_addr_in_ts$ = 12					; size = 4
_kvz_lcu_at_slice_end PROC				; COMDAT

; 50   : int kvz_lcu_at_slice_end(const encoder_control_t * const encoder, int lcu_addr_in_ts) {

	push	ebp
	mov	ebp, esp
	sub	esp, 204				; 000000ccH
	push	ebx
	push	esi
	push	edi
	lea	edi, DWORD PTR [ebp-204]
	mov	ecx, 51					; 00000033H
	mov	eax, -858993460				; ccccccccH
	rep stosd
	mov	ecx, OFFSET __5DECB962_encoder_state-geometry@c
	call	@__CheckForDebuggerJustMyCode@4

; 51   :   int i;
; 52   :   assert(lcu_addr_in_ts >= 0 && lcu_addr_in_ts < encoder->in.height_in_lcu * encoder->in.width_in_lcu);

	cmp	DWORD PTR _lcu_addr_in_ts$[ebp], 0
	jl	SHORT $LN8@kvz_lcu_at
	mov	eax, DWORD PTR _encoder$[ebp]
	mov	ecx, DWORD PTR _encoder$[ebp]
	mov	edx, DWORD PTR [eax+2492]
	imul	edx, DWORD PTR [ecx+2488]
	cmp	DWORD PTR _lcu_addr_in_ts$[ebp], edx
	jl	SHORT $LN9@kvz_lcu_at
$LN8@kvz_lcu_at:
	mov	eax, DWORD PTR ?__LINE__Var@?0??kvz_lcu_at_slice_end@@9@9
	add	eax, 2
	mov	esi, esp
	push	eax
	push	OFFSET ??_C@_1IK@MGAHEHHM@?$AAF?$AA?3?$AA?2?$AAo?$AAp?$AAe?$AAn?$AA_?$AAc?$AAo?$AAd?$AAe?$AAc?$AA_?$AAl@
	push	OFFSET ??_C@_1LK@FANFPIDA@?$AAl?$AAc?$AAu?$AA_?$AAa?$AAd?$AAd?$AAr?$AA_?$AAi?$AAn?$AA_?$AAt?$AAs?$AA?5@
	call	DWORD PTR __imp___wassert
	add	esp, 12					; 0000000cH
	cmp	esi, esp
	call	__RTC_CheckEsp
$LN9@kvz_lcu_at:

; 53   :   if (lcu_addr_in_ts == encoder->in.height_in_lcu * encoder->in.width_in_lcu - 1) return 1;

	mov	eax, DWORD PTR _encoder$[ebp]
	mov	ecx, DWORD PTR _encoder$[ebp]
	mov	edx, DWORD PTR [eax+2492]
	imul	edx, DWORD PTR [ecx+2488]
	sub	edx, 1
	cmp	DWORD PTR _lcu_addr_in_ts$[ebp], edx
	jne	SHORT $LN5@kvz_lcu_at
	mov	eax, 1
	jmp	SHORT $LN1@kvz_lcu_at
$LN5@kvz_lcu_at:

; 54   :   for (i = 0; i < encoder->slice_count; ++i) {

	mov	DWORD PTR _i$[ebp], 0
	jmp	SHORT $LN4@kvz_lcu_at
$LN2@kvz_lcu_at:
	mov	eax, DWORD PTR _i$[ebp]
	add	eax, 1
	mov	DWORD PTR _i$[ebp], eax
$LN4@kvz_lcu_at:
	mov	eax, DWORD PTR _encoder$[ebp]
	mov	ecx, DWORD PTR _i$[ebp]
	cmp	ecx, DWORD PTR [eax+4508]
	jge	SHORT $LN3@kvz_lcu_at

; 55   :     if (encoder->slice_addresses_in_ts[i] == lcu_addr_in_ts + 1) return 1;

	mov	eax, DWORD PTR _encoder$[ebp]
	mov	ecx, DWORD PTR [eax+4512]
	mov	edx, DWORD PTR _lcu_addr_in_ts$[ebp]
	add	edx, 1
	mov	eax, DWORD PTR _i$[ebp]
	cmp	DWORD PTR [ecx+eax*4], edx
	jne	SHORT $LN6@kvz_lcu_at
	mov	eax, 1
	jmp	SHORT $LN1@kvz_lcu_at
$LN6@kvz_lcu_at:

; 56   :   }

	jmp	SHORT $LN2@kvz_lcu_at
$LN3@kvz_lcu_at:

; 57   :   return 0;

	xor	eax, eax
$LN1@kvz_lcu_at:

; 58   : }

	pop	edi
	pop	esi
	pop	ebx
	add	esp, 204				; 000000ccH
	cmp	ebp, esp
	call	__RTC_CheckEsp
	mov	esp, ebp
	pop	ebp
	ret	0
_kvz_lcu_at_slice_end ENDP
_TEXT	ENDS
; Function compile flags: /Odtp /RTCsu /ZI
; File F:\open_codec_learn_2021\kvazaar-master\src\encoder_state-geometry.c
;	COMDAT _kvz_lcu_at_slice_start
_TEXT	SEGMENT
_i$ = -8						; size = 4
_encoder$ = 8						; size = 4
_lcu_addr_in_ts$ = 12					; size = 4
_kvz_lcu_at_slice_start PROC				; COMDAT

; 40   : int kvz_lcu_at_slice_start(const encoder_control_t * const encoder, int lcu_addr_in_ts) {

	push	ebp
	mov	ebp, esp
	sub	esp, 204				; 000000ccH
	push	ebx
	push	esi
	push	edi
	lea	edi, DWORD PTR [ebp-204]
	mov	ecx, 51					; 00000033H
	mov	eax, -858993460				; ccccccccH
	rep stosd
	mov	ecx, OFFSET __5DECB962_encoder_state-geometry@c
	call	@__CheckForDebuggerJustMyCode@4

; 41   :   int i;
; 42   :   assert(lcu_addr_in_ts >= 0 && lcu_addr_in_ts < encoder->in.height_in_lcu * encoder->in.width_in_lcu);

	cmp	DWORD PTR _lcu_addr_in_ts$[ebp], 0
	jl	SHORT $LN8@kvz_lcu_at
	mov	eax, DWORD PTR _encoder$[ebp]
	mov	ecx, DWORD PTR _encoder$[ebp]
	mov	edx, DWORD PTR [eax+2492]
	imul	edx, DWORD PTR [ecx+2488]
	cmp	DWORD PTR _lcu_addr_in_ts$[ebp], edx
	jl	SHORT $LN9@kvz_lcu_at
$LN8@kvz_lcu_at:
	mov	eax, DWORD PTR ?__LINE__Var@?0??kvz_lcu_at_slice_start@@9@9
	add	eax, 2
	mov	esi, esp
	push	eax
	push	OFFSET ??_C@_1IK@MGAHEHHM@?$AAF?$AA?3?$AA?2?$AAo?$AAp?$AAe?$AAn?$AA_?$AAc?$AAo?$AAd?$AAe?$AAc?$AA_?$AAl@
	push	OFFSET ??_C@_1LK@FANFPIDA@?$AAl?$AAc?$AAu?$AA_?$AAa?$AAd?$AAd?$AAr?$AA_?$AAi?$AAn?$AA_?$AAt?$AAs?$AA?5@
	call	DWORD PTR __imp___wassert
	add	esp, 12					; 0000000cH
	cmp	esi, esp
	call	__RTC_CheckEsp
$LN9@kvz_lcu_at:

; 43   :   if (lcu_addr_in_ts == 0) return 1;

	cmp	DWORD PTR _lcu_addr_in_ts$[ebp], 0
	jne	SHORT $LN5@kvz_lcu_at
	mov	eax, 1
	jmp	SHORT $LN1@kvz_lcu_at
$LN5@kvz_lcu_at:

; 44   :   for (i = 0; i < encoder->slice_count; ++i) {

	mov	DWORD PTR _i$[ebp], 0
	jmp	SHORT $LN4@kvz_lcu_at
$LN2@kvz_lcu_at:
	mov	eax, DWORD PTR _i$[ebp]
	add	eax, 1
	mov	DWORD PTR _i$[ebp], eax
$LN4@kvz_lcu_at:
	mov	eax, DWORD PTR _encoder$[ebp]
	mov	ecx, DWORD PTR _i$[ebp]
	cmp	ecx, DWORD PTR [eax+4508]
	jge	SHORT $LN3@kvz_lcu_at

; 45   :     if (encoder->slice_addresses_in_ts[i] == lcu_addr_in_ts) return 1;

	mov	eax, DWORD PTR _encoder$[ebp]
	mov	ecx, DWORD PTR [eax+4512]
	mov	edx, DWORD PTR _i$[ebp]
	mov	eax, DWORD PTR [ecx+edx*4]
	cmp	eax, DWORD PTR _lcu_addr_in_ts$[ebp]
	jne	SHORT $LN6@kvz_lcu_at
	mov	eax, 1
	jmp	SHORT $LN1@kvz_lcu_at
$LN6@kvz_lcu_at:

; 46   :   }

	jmp	SHORT $LN2@kvz_lcu_at
$LN3@kvz_lcu_at:

; 47   :   return 0;

	xor	eax, eax
$LN1@kvz_lcu_at:

; 48   : }

	pop	edi
	pop	esi
	pop	ebx
	add	esp, 204				; 000000ccH
	cmp	ebp, esp
	call	__RTC_CheckEsp
	mov	esp, ebp
	pop	ebp
	ret	0
_kvz_lcu_at_slice_start ENDP
_TEXT	ENDS
END
