; Listing generated by Microsoft (R) Optimizing Compiler Version 19.26.28806.0 

	TITLE	F:\open_codec_learn_2021\kvazaar-master\src\strategies\generic\encode_coding_tree-generic.c
	.686P
	.XMM
	include listing.inc
	.model	flat

INCLUDELIB MSVCRTD
INCLUDELIB OLDNAMES

PUBLIC	??_C@_0P@FIMIKDEG@array_checksum@		; `string'
PUBLIC	??_C@_09INHMEIKP@array_md5@			; `string'
PUBLIC	??_C@_07DDJKLCAH@reg_sad@			; `string'
PUBLIC	??_C@_07CCGEEBAL@sad_4x4@			; `string'
PUBLIC	??_C@_07MEAHLBLP@sad_8x8@			; `string'
PUBLIC	??_C@_09CIFGAEGF@sad_16x16@			; `string'
PUBLIC	??_C@_09PHPGBCME@sad_32x32@			; `string'
PUBLIC	??_C@_09HIOKBDLK@sad_64x64@			; `string'
PUBLIC	??_C@_08GDBJPAOD@satd_4x4@			; `string'
PUBLIC	??_C@_08IFHKAAFH@satd_8x8@			; `string'
PUBLIC	??_C@_0L@CJHLPOG@satd_16x16@			; `string'
PUBLIC	??_C@_0L@NNDHKJEH@satd_32x32@			; `string'
PUBLIC	??_C@_0L@FCCLKIDJ@satd_64x64@			; `string'
PUBLIC	??_C@_0O@FHJAMJMP@satd_any_size@		; `string'
PUBLIC	??_C@_0N@PBMCJFCI@sad_4x4_dual@			; `string'
PUBLIC	??_C@_0N@NAFGAMEI@sad_8x8_dual@			; `string'
PUBLIC	??_C@_0P@KGAKCNHP@sad_16x16_dual@		; `string'
PUBLIC	??_C@_0P@EBOHBHKK@sad_32x32_dual@		; `string'
PUBLIC	??_C@_0P@BGJOPAPB@sad_64x64_dual@		; `string'
PUBLIC	??_C@_0O@PJODLFIO@satd_4x4_dual@		; `string'
PUBLIC	??_C@_0O@NIHHCMOO@satd_8x8_dual@		; `string'
PUBLIC	??_C@_0BA@GFDJBOPJ@satd_16x16_dual@		; `string'
PUBLIC	??_C@_0BA@ICNECECM@satd_32x32_dual@		; `string'
PUBLIC	??_C@_0BA@NFKNMDHH@satd_64x64_dual@		; `string'
PUBLIC	??_C@_0BD@EFOGIBKC@satd_any_size_quad@		; `string'
PUBLIC	??_C@_0BA@BPDFDAFM@pixels_calc_ssd@		; `string'
PUBLIC	??_C@_0P@FIKELBGI@bipred_average@		; `string'
PUBLIC	??_C@_0BC@IMILIHON@get_optimized_sad@		; `string'
PUBLIC	??_C@_07OEMLCPNF@ver_sad@			; `string'
PUBLIC	??_C@_07CJIKFDIC@hor_sad@			; `string'
PUBLIC	??_C@_09GDPKBOJB@pixel_var@			; `string'
PUBLIC	??_C@_0BF@BJKPGPEP@fast_forward_dst_4x4@	; `string'
PUBLIC	??_C@_07MAFDGKIL@dct_4x4@			; `string'
PUBLIC	??_C@_07CGDAJKDP@dct_8x8@			; `string'
PUBLIC	??_C@_09LPGJIHFJ@dct_16x16@			; `string'
PUBLIC	??_C@_09GAMJJBPI@dct_32x32@			; `string'
PUBLIC	??_C@_0BF@LGIDMEOF@fast_inverse_dst_4x4@	; `string'
PUBLIC	??_C@_08LDLIJGLD@idct_4x4@			; `string'
PUBLIC	??_C@_08FFNLGGAH@idct_8x8@			; `string'
PUBLIC	??_C@_0L@BMPNPGHO@idct_16x16@			; `string'
PUBLIC	??_C@_0L@MDFNOANP@idct_32x32@			; `string'
PUBLIC	??_C@_0CA@KBMGLOML@filter_hpel_blocks_hor_ver_luma@ ; `string'
PUBLIC	??_C@_0BN@LGIFMJCD@filter_hpel_blocks_diag_luma@ ; `string'
PUBLIC	??_C@_0CA@HAFBJKBM@filter_qpel_blocks_hor_ver_luma@ ; `string'
PUBLIC	??_C@_0BN@LBBJMBKC@filter_qpel_blocks_diag_luma@ ; `string'
PUBLIC	??_C@_0BH@DGLFPIPB@sample_quarterpel_luma@	; `string'
PUBLIC	??_C@_0BF@HOLGGLNK@sample_octpel_chroma@	; `string'
PUBLIC	??_C@_0BK@LCPNGAOF@sample_quarterpel_luma_hi@	; `string'
PUBLIC	??_C@_0BI@EFIAEBMP@sample_octpel_chroma_hi@	; `string'
PUBLIC	??_C@_0BD@MPANGNDO@get_extended_block@		; `string'
PUBLIC	??_C@_05DFPBCFDJ@quant@				; `string'
PUBLIC	??_C@_0BC@MPMPMGJB@quantize_residual@		; `string'
PUBLIC	??_C@_07GMDOJGPA@dequant@			; `string'
PUBLIC	??_C@_0O@ECIHPEON@coeff_abs_sum@		; `string'
PUBLIC	??_C@_0BA@HMNKAKOO@fast_coeff_cost@		; `string'
PUBLIC	??_C@_0N@NMFCEONC@angular_pred@			; `string'
PUBLIC	??_C@_0BC@KPOCLILL@intra_pred_planar@		; `string'
PUBLIC	??_C@_0BH@EAOLFJGL@intra_pred_filtered_dc@	; `string'
PUBLIC	??_C@_0BF@LGILOHOJ@sao_edge_ddistortion@	; `string'
PUBLIC	??_C@_0BC@OCNKGNNI@calc_sao_edge_dir@		; `string'
PUBLIC	??_C@_0BG@IJPOOFFG@sao_reconstruct_color@	; `string'
PUBLIC	??_C@_0BF@HDNLAKN@sao_band_ddistortion@		; `string'
PUBLIC	??_C@_0BB@GDIDDFDB@encode_coeff_nxn@		; `string'
EXTRN	_kvz_array_checksum:DWORD
EXTRN	_kvz_array_md5:DWORD
EXTRN	_kvz_reg_sad:DWORD
EXTRN	_kvz_sad_4x4:DWORD
EXTRN	_kvz_sad_8x8:DWORD
EXTRN	_kvz_sad_16x16:DWORD
EXTRN	_kvz_sad_32x32:DWORD
EXTRN	_kvz_sad_64x64:DWORD
EXTRN	_kvz_satd_4x4:DWORD
EXTRN	_kvz_satd_8x8:DWORD
EXTRN	_kvz_satd_16x16:DWORD
EXTRN	_kvz_satd_32x32:DWORD
EXTRN	_kvz_satd_64x64:DWORD
EXTRN	_kvz_satd_any_size:DWORD
EXTRN	_kvz_sad_4x4_dual:DWORD
EXTRN	_kvz_sad_8x8_dual:DWORD
EXTRN	_kvz_sad_16x16_dual:DWORD
EXTRN	_kvz_sad_32x32_dual:DWORD
EXTRN	_kvz_sad_64x64_dual:DWORD
EXTRN	_kvz_satd_4x4_dual:DWORD
EXTRN	_kvz_satd_8x8_dual:DWORD
EXTRN	_kvz_satd_16x16_dual:DWORD
EXTRN	_kvz_satd_32x32_dual:DWORD
EXTRN	_kvz_satd_64x64_dual:DWORD
EXTRN	_kvz_satd_any_size_quad:DWORD
EXTRN	_kvz_pixels_calc_ssd:DWORD
EXTRN	_kvz_bipred_average:DWORD
EXTRN	_kvz_get_optimized_sad:DWORD
EXTRN	_kvz_ver_sad:DWORD
EXTRN	_kvz_hor_sad:DWORD
EXTRN	_kvz_pixel_var:DWORD
EXTRN	_kvz_fast_forward_dst_4x4:DWORD
EXTRN	_kvz_dct_4x4:DWORD
EXTRN	_kvz_dct_8x8:DWORD
EXTRN	_kvz_dct_16x16:DWORD
EXTRN	_kvz_dct_32x32:DWORD
EXTRN	_kvz_fast_inverse_dst_4x4:DWORD
EXTRN	_kvz_idct_4x4:DWORD
EXTRN	_kvz_idct_8x8:DWORD
EXTRN	_kvz_idct_16x16:DWORD
EXTRN	_kvz_idct_32x32:DWORD
EXTRN	_kvz_filter_hpel_blocks_hor_ver_luma:DWORD
EXTRN	_kvz_filter_hpel_blocks_diag_luma:DWORD
EXTRN	_kvz_filter_qpel_blocks_hor_ver_luma:DWORD
EXTRN	_kvz_filter_qpel_blocks_diag_luma:DWORD
EXTRN	_kvz_get_extended_block:DWORD
EXTRN	_kvz_sample_quarterpel_luma:DWORD
EXTRN	_kvz_sample_octpel_chroma:DWORD
EXTRN	_kvz_sample_quarterpel_luma_hi:DWORD
EXTRN	_kvz_sample_octpel_chroma_hi:DWORD
EXTRN	_kvz_quant:DWORD
EXTRN	_kvz_quantize_residual:DWORD
EXTRN	_kvz_dequant:DWORD
EXTRN	_kvz_coeff_abs_sum:DWORD
EXTRN	_kvz_fast_coeff_cost:DWORD
EXTRN	_kvz_angular_pred:DWORD
EXTRN	_kvz_intra_pred_planar:DWORD
EXTRN	_kvz_intra_pred_filtered_dc:DWORD
EXTRN	_kvz_sao_edge_ddistortion:DWORD
EXTRN	_kvz_calc_sao_edge_dir:DWORD
EXTRN	_kvz_sao_reconstruct_color:DWORD
EXTRN	_kvz_sao_band_ddistortion:DWORD
EXTRN	_kvz_encode_coeff_nxn:DWORD
msvcjmc	SEGMENT
__ED9CC025_corecrt_memcpy_s@h DB 01H
__875914C9_corecrt_wstring@h DB 01H
__731387C4_string@h DB 01H
__1850469A_corecrt_stdio_config@h DB 01H
__01D10305_corecrt_wstdio@h DB 01H
__9FF75F13_stdio@h DB 01H
__6C65A336_cu@h DB 01H
__E2865EBA_corecrt_math@h DB 01H
__546CF5FC_crypto@h DB 01H
__6BE1C69C_encoderstate@h DB 01H
__0ED13153_encode_coding_tree-generic@c DB 01H
msvcjmc	ENDS
;	COMDAT ??_C@_0BB@GDIDDFDB@encode_coeff_nxn@
CONST	SEGMENT
??_C@_0BB@GDIDDFDB@encode_coeff_nxn@ DB 'encode_coeff_nxn', 00H ; `string'
CONST	ENDS
;	COMDAT ??_C@_0BF@HDNLAKN@sao_band_ddistortion@
CONST	SEGMENT
??_C@_0BF@HDNLAKN@sao_band_ddistortion@ DB 'sao_band_ddistortion', 00H ; `string'
CONST	ENDS
;	COMDAT ??_C@_0BG@IJPOOFFG@sao_reconstruct_color@
CONST	SEGMENT
??_C@_0BG@IJPOOFFG@sao_reconstruct_color@ DB 'sao_reconstruct_color', 00H ; `string'
CONST	ENDS
;	COMDAT ??_C@_0BC@OCNKGNNI@calc_sao_edge_dir@
CONST	SEGMENT
??_C@_0BC@OCNKGNNI@calc_sao_edge_dir@ DB 'calc_sao_edge_dir', 00H ; `string'
CONST	ENDS
;	COMDAT ??_C@_0BF@LGILOHOJ@sao_edge_ddistortion@
CONST	SEGMENT
??_C@_0BF@LGILOHOJ@sao_edge_ddistortion@ DB 'sao_edge_ddistortion', 00H ; `string'
CONST	ENDS
;	COMDAT ??_C@_0BH@EAOLFJGL@intra_pred_filtered_dc@
CONST	SEGMENT
??_C@_0BH@EAOLFJGL@intra_pred_filtered_dc@ DB 'intra_pred_filtered_dc', 00H ; `string'
CONST	ENDS
;	COMDAT ??_C@_0BC@KPOCLILL@intra_pred_planar@
CONST	SEGMENT
??_C@_0BC@KPOCLILL@intra_pred_planar@ DB 'intra_pred_planar', 00H ; `string'
CONST	ENDS
;	COMDAT ??_C@_0N@NMFCEONC@angular_pred@
CONST	SEGMENT
??_C@_0N@NMFCEONC@angular_pred@ DB 'angular_pred', 00H	; `string'
CONST	ENDS
;	COMDAT ??_C@_0BA@HMNKAKOO@fast_coeff_cost@
CONST	SEGMENT
??_C@_0BA@HMNKAKOO@fast_coeff_cost@ DB 'fast_coeff_cost', 00H ; `string'
CONST	ENDS
;	COMDAT ??_C@_0O@ECIHPEON@coeff_abs_sum@
CONST	SEGMENT
??_C@_0O@ECIHPEON@coeff_abs_sum@ DB 'coeff_abs_sum', 00H ; `string'
CONST	ENDS
;	COMDAT ??_C@_07GMDOJGPA@dequant@
CONST	SEGMENT
??_C@_07GMDOJGPA@dequant@ DB 'dequant', 00H		; `string'
CONST	ENDS
;	COMDAT ??_C@_0BC@MPMPMGJB@quantize_residual@
CONST	SEGMENT
??_C@_0BC@MPMPMGJB@quantize_residual@ DB 'quantize_residual', 00H ; `string'
CONST	ENDS
;	COMDAT ??_C@_05DFPBCFDJ@quant@
CONST	SEGMENT
??_C@_05DFPBCFDJ@quant@ DB 'quant', 00H			; `string'
CONST	ENDS
;	COMDAT ??_C@_0BD@MPANGNDO@get_extended_block@
CONST	SEGMENT
??_C@_0BD@MPANGNDO@get_extended_block@ DB 'get_extended_block', 00H ; `string'
CONST	ENDS
;	COMDAT ??_C@_0BI@EFIAEBMP@sample_octpel_chroma_hi@
CONST	SEGMENT
??_C@_0BI@EFIAEBMP@sample_octpel_chroma_hi@ DB 'sample_octpel_chroma_hi', 00H ; `string'
CONST	ENDS
;	COMDAT ??_C@_0BK@LCPNGAOF@sample_quarterpel_luma_hi@
CONST	SEGMENT
??_C@_0BK@LCPNGAOF@sample_quarterpel_luma_hi@ DB 'sample_quarterpel_luma_'
	DB	'hi', 00H					; `string'
CONST	ENDS
;	COMDAT ??_C@_0BF@HOLGGLNK@sample_octpel_chroma@
CONST	SEGMENT
??_C@_0BF@HOLGGLNK@sample_octpel_chroma@ DB 'sample_octpel_chroma', 00H ; `string'
CONST	ENDS
;	COMDAT ??_C@_0BH@DGLFPIPB@sample_quarterpel_luma@
CONST	SEGMENT
??_C@_0BH@DGLFPIPB@sample_quarterpel_luma@ DB 'sample_quarterpel_luma', 00H ; `string'
CONST	ENDS
;	COMDAT ??_C@_0BN@LBBJMBKC@filter_qpel_blocks_diag_luma@
CONST	SEGMENT
??_C@_0BN@LBBJMBKC@filter_qpel_blocks_diag_luma@ DB 'filter_qpel_blocks_d'
	DB	'iag_luma', 00H				; `string'
CONST	ENDS
;	COMDAT ??_C@_0CA@HAFBJKBM@filter_qpel_blocks_hor_ver_luma@
CONST	SEGMENT
??_C@_0CA@HAFBJKBM@filter_qpel_blocks_hor_ver_luma@ DB 'filter_qpel_block'
	DB	's_hor_ver_luma', 00H			; `string'
CONST	ENDS
;	COMDAT ??_C@_0BN@LGIFMJCD@filter_hpel_blocks_diag_luma@
CONST	SEGMENT
??_C@_0BN@LGIFMJCD@filter_hpel_blocks_diag_luma@ DB 'filter_hpel_blocks_d'
	DB	'iag_luma', 00H				; `string'
CONST	ENDS
;	COMDAT ??_C@_0CA@KBMGLOML@filter_hpel_blocks_hor_ver_luma@
CONST	SEGMENT
??_C@_0CA@KBMGLOML@filter_hpel_blocks_hor_ver_luma@ DB 'filter_hpel_block'
	DB	's_hor_ver_luma', 00H			; `string'
CONST	ENDS
;	COMDAT ??_C@_0L@MDFNOANP@idct_32x32@
CONST	SEGMENT
??_C@_0L@MDFNOANP@idct_32x32@ DB 'idct_32x32', 00H	; `string'
CONST	ENDS
;	COMDAT ??_C@_0L@BMPNPGHO@idct_16x16@
CONST	SEGMENT
??_C@_0L@BMPNPGHO@idct_16x16@ DB 'idct_16x16', 00H	; `string'
CONST	ENDS
;	COMDAT ??_C@_08FFNLGGAH@idct_8x8@
CONST	SEGMENT
??_C@_08FFNLGGAH@idct_8x8@ DB 'idct_8x8', 00H		; `string'
CONST	ENDS
;	COMDAT ??_C@_08LDLIJGLD@idct_4x4@
CONST	SEGMENT
??_C@_08LDLIJGLD@idct_4x4@ DB 'idct_4x4', 00H		; `string'
CONST	ENDS
;	COMDAT ??_C@_0BF@LGIDMEOF@fast_inverse_dst_4x4@
CONST	SEGMENT
??_C@_0BF@LGIDMEOF@fast_inverse_dst_4x4@ DB 'fast_inverse_dst_4x4', 00H ; `string'
CONST	ENDS
;	COMDAT ??_C@_09GAMJJBPI@dct_32x32@
CONST	SEGMENT
??_C@_09GAMJJBPI@dct_32x32@ DB 'dct_32x32', 00H		; `string'
CONST	ENDS
;	COMDAT ??_C@_09LPGJIHFJ@dct_16x16@
CONST	SEGMENT
??_C@_09LPGJIHFJ@dct_16x16@ DB 'dct_16x16', 00H		; `string'
CONST	ENDS
;	COMDAT ??_C@_07CGDAJKDP@dct_8x8@
CONST	SEGMENT
??_C@_07CGDAJKDP@dct_8x8@ DB 'dct_8x8', 00H		; `string'
CONST	ENDS
;	COMDAT ??_C@_07MAFDGKIL@dct_4x4@
CONST	SEGMENT
??_C@_07MAFDGKIL@dct_4x4@ DB 'dct_4x4', 00H		; `string'
CONST	ENDS
;	COMDAT ??_C@_0BF@BJKPGPEP@fast_forward_dst_4x4@
CONST	SEGMENT
??_C@_0BF@BJKPGPEP@fast_forward_dst_4x4@ DB 'fast_forward_dst_4x4', 00H ; `string'
CONST	ENDS
;	COMDAT ??_C@_09GDPKBOJB@pixel_var@
CONST	SEGMENT
??_C@_09GDPKBOJB@pixel_var@ DB 'pixel_var', 00H		; `string'
CONST	ENDS
;	COMDAT ??_C@_07CJIKFDIC@hor_sad@
CONST	SEGMENT
??_C@_07CJIKFDIC@hor_sad@ DB 'hor_sad', 00H		; `string'
CONST	ENDS
;	COMDAT ??_C@_07OEMLCPNF@ver_sad@
CONST	SEGMENT
??_C@_07OEMLCPNF@ver_sad@ DB 'ver_sad', 00H		; `string'
CONST	ENDS
;	COMDAT ??_C@_0BC@IMILIHON@get_optimized_sad@
CONST	SEGMENT
??_C@_0BC@IMILIHON@get_optimized_sad@ DB 'get_optimized_sad', 00H ; `string'
CONST	ENDS
;	COMDAT ??_C@_0P@FIKELBGI@bipred_average@
CONST	SEGMENT
??_C@_0P@FIKELBGI@bipred_average@ DB 'bipred_average', 00H ; `string'
CONST	ENDS
;	COMDAT ??_C@_0BA@BPDFDAFM@pixels_calc_ssd@
CONST	SEGMENT
??_C@_0BA@BPDFDAFM@pixels_calc_ssd@ DB 'pixels_calc_ssd', 00H ; `string'
CONST	ENDS
;	COMDAT ??_C@_0BD@EFOGIBKC@satd_any_size_quad@
CONST	SEGMENT
??_C@_0BD@EFOGIBKC@satd_any_size_quad@ DB 'satd_any_size_quad', 00H ; `string'
CONST	ENDS
;	COMDAT ??_C@_0BA@NFKNMDHH@satd_64x64_dual@
CONST	SEGMENT
??_C@_0BA@NFKNMDHH@satd_64x64_dual@ DB 'satd_64x64_dual', 00H ; `string'
CONST	ENDS
;	COMDAT ??_C@_0BA@ICNECECM@satd_32x32_dual@
CONST	SEGMENT
??_C@_0BA@ICNECECM@satd_32x32_dual@ DB 'satd_32x32_dual', 00H ; `string'
CONST	ENDS
;	COMDAT ??_C@_0BA@GFDJBOPJ@satd_16x16_dual@
CONST	SEGMENT
??_C@_0BA@GFDJBOPJ@satd_16x16_dual@ DB 'satd_16x16_dual', 00H ; `string'
CONST	ENDS
;	COMDAT ??_C@_0O@NIHHCMOO@satd_8x8_dual@
CONST	SEGMENT
??_C@_0O@NIHHCMOO@satd_8x8_dual@ DB 'satd_8x8_dual', 00H ; `string'
CONST	ENDS
;	COMDAT ??_C@_0O@PJODLFIO@satd_4x4_dual@
CONST	SEGMENT
??_C@_0O@PJODLFIO@satd_4x4_dual@ DB 'satd_4x4_dual', 00H ; `string'
CONST	ENDS
;	COMDAT ??_C@_0P@BGJOPAPB@sad_64x64_dual@
CONST	SEGMENT
??_C@_0P@BGJOPAPB@sad_64x64_dual@ DB 'sad_64x64_dual', 00H ; `string'
CONST	ENDS
;	COMDAT ??_C@_0P@EBOHBHKK@sad_32x32_dual@
CONST	SEGMENT
??_C@_0P@EBOHBHKK@sad_32x32_dual@ DB 'sad_32x32_dual', 00H ; `string'
CONST	ENDS
;	COMDAT ??_C@_0P@KGAKCNHP@sad_16x16_dual@
CONST	SEGMENT
??_C@_0P@KGAKCNHP@sad_16x16_dual@ DB 'sad_16x16_dual', 00H ; `string'
CONST	ENDS
;	COMDAT ??_C@_0N@NAFGAMEI@sad_8x8_dual@
CONST	SEGMENT
??_C@_0N@NAFGAMEI@sad_8x8_dual@ DB 'sad_8x8_dual', 00H	; `string'
CONST	ENDS
;	COMDAT ??_C@_0N@PBMCJFCI@sad_4x4_dual@
CONST	SEGMENT
??_C@_0N@PBMCJFCI@sad_4x4_dual@ DB 'sad_4x4_dual', 00H	; `string'
CONST	ENDS
;	COMDAT ??_C@_0O@FHJAMJMP@satd_any_size@
CONST	SEGMENT
??_C@_0O@FHJAMJMP@satd_any_size@ DB 'satd_any_size', 00H ; `string'
CONST	ENDS
;	COMDAT ??_C@_0L@FCCLKIDJ@satd_64x64@
CONST	SEGMENT
??_C@_0L@FCCLKIDJ@satd_64x64@ DB 'satd_64x64', 00H	; `string'
CONST	ENDS
;	COMDAT ??_C@_0L@NNDHKJEH@satd_32x32@
CONST	SEGMENT
??_C@_0L@NNDHKJEH@satd_32x32@ DB 'satd_32x32', 00H	; `string'
CONST	ENDS
;	COMDAT ??_C@_0L@CJHLPOG@satd_16x16@
CONST	SEGMENT
??_C@_0L@CJHLPOG@satd_16x16@ DB 'satd_16x16', 00H	; `string'
CONST	ENDS
;	COMDAT ??_C@_08IFHKAAFH@satd_8x8@
CONST	SEGMENT
??_C@_08IFHKAAFH@satd_8x8@ DB 'satd_8x8', 00H		; `string'
CONST	ENDS
;	COMDAT ??_C@_08GDBJPAOD@satd_4x4@
CONST	SEGMENT
??_C@_08GDBJPAOD@satd_4x4@ DB 'satd_4x4', 00H		; `string'
CONST	ENDS
;	COMDAT ??_C@_09HIOKBDLK@sad_64x64@
CONST	SEGMENT
??_C@_09HIOKBDLK@sad_64x64@ DB 'sad_64x64', 00H		; `string'
CONST	ENDS
;	COMDAT ??_C@_09PHPGBCME@sad_32x32@
CONST	SEGMENT
??_C@_09PHPGBCME@sad_32x32@ DB 'sad_32x32', 00H		; `string'
CONST	ENDS
;	COMDAT ??_C@_09CIFGAEGF@sad_16x16@
CONST	SEGMENT
??_C@_09CIFGAEGF@sad_16x16@ DB 'sad_16x16', 00H		; `string'
CONST	ENDS
;	COMDAT ??_C@_07MEAHLBLP@sad_8x8@
CONST	SEGMENT
??_C@_07MEAHLBLP@sad_8x8@ DB 'sad_8x8', 00H		; `string'
CONST	ENDS
;	COMDAT ??_C@_07CCGEEBAL@sad_4x4@
CONST	SEGMENT
??_C@_07CCGEEBAL@sad_4x4@ DB 'sad_4x4', 00H		; `string'
CONST	ENDS
;	COMDAT ??_C@_07DDJKLCAH@reg_sad@
CONST	SEGMENT
??_C@_07DDJKLCAH@reg_sad@ DB 'reg_sad', 00H		; `string'
CONST	ENDS
;	COMDAT ??_C@_09INHMEIKP@array_md5@
CONST	SEGMENT
??_C@_09INHMEIKP@array_md5@ DB 'array_md5', 00H		; `string'
CONST	ENDS
;	COMDAT ??_C@_0P@FIMIKDEG@array_checksum@
CONST	SEGMENT
??_C@_0P@FIMIKDEG@array_checksum@ DB 'array_checksum', 00H ; `string'
CONST	ENDS
CONST	SEGMENT
_cbf_masks DW	01fH
	DW	0fH
	DW	07H
	DW	03H
	DW	01H
	ORG $+6
_default_fast_coeff_cost_wts DD 03e282e88r	; 0.16424
	DD	040852b41r			; 4.16153
	DD	0406093ffr			; 3.50903
	DD	040ddb290r			; 6.92805
	DD	03e282e88r			; 0.16424
	DD	040852b41r			; 4.16153
	DD	0406093ffr			; 3.50903
	DD	040ddb290r			; 6.92805
	DD	03e282e88r			; 0.16424
	DD	040852b41r			; 4.16153
	DD	0406093ffr			; 3.50903
	DD	040ddb290r			; 6.92805
	DD	03e282e88r			; 0.16424
	DD	040852b41r			; 4.16153
	DD	0406093ffr			; 3.50903
	DD	040ddb290r			; 6.92805
	DD	03e282e88r			; 0.16424
	DD	040852b41r			; 4.16153
	DD	0406093ffr			; 3.50903
	DD	040ddb290r			; 6.92805
	DD	03e282e88r			; 0.16424
	DD	040852b41r			; 4.16153
	DD	0406093ffr			; 3.50903
	DD	040ddb290r			; 6.92805
	DD	03e282e88r			; 0.16424
	DD	040852b41r			; 4.16153
	DD	0406093ffr			; 3.50903
	DD	040ddb290r			; 6.92805
	DD	03e282e88r			; 0.16424
	DD	040852b41r			; 4.16153
	DD	0406093ffr			; 3.50903
	DD	040ddb290r			; 6.92805
	DD	03e282e88r			; 0.16424
	DD	040852b41r			; 4.16153
	DD	0406093ffr			; 3.50903
	DD	040ddb290r			; 6.92805
	DD	03e282e88r			; 0.16424
	DD	040852b41r			; 4.16153
	DD	0406093ffr			; 3.50903
	DD	040ddb290r			; 6.92805
	DD	03e282e88r			; 0.16424
	DD	040852b41r			; 4.16153
	DD	0406093ffr			; 3.50903
	DD	040ddb290r			; 6.92805
	DD	03e26c094r			; 0.162844
	DD	04081ca43r			; 4.05594
	DD	04064203ar			; 3.56447
	DD	040db915ar			; 6.86149
	DD	03e03d189r			; 0.128729
	DD	04089fbafr			; 4.31197
	DD	0407c5771r			; 3.94284
	DD	040ddeed2r			; 6.9354
	DD	03de33ce6r			; 0.110956
	DD	0408ddcb1r			; 4.43319
	DD	0407c8738r			; 3.94575
	DD	040dc1618r			; 6.8777
	DD	03dc29cfer			; 0.095026
	DD	0408f7938r			; 4.48355
	DD	0408636aar			; 4.19417
	DD	040d90260r			; 6.78154
	DD	03d99b1b8r			; 0.075046
	DD	04094474cr			; 4.6337
	DD	04082b1b6r			; 4.08419
	DD	040d65aeer			; 6.6986
	DD	03d56bca5r			; 0.052426
	DD	0409ef37er			; 4.96722
	DD	04080dee8r			; 4.02721
	DD	040d19306r			; 6.5492
	DD	03d24bcaer			; 0.040219
	DD	040a489car			; 5.14182
	DD	0407ee3bdr			; 3.98265
	DD	040cec513r			; 6.46156
	DD	03d0fba88r			; 0.03509
	DD	040a628e7r			; 5.19249
	DD	040752e49r			; 3.83095
	DD	040cd642ar			; 6.41848
	DD	03cf47d80r			; 0.029845
	DD	040a6c5d0r			; 5.21165
	DD	040743073r			; 3.81546
	DD	040cb0dd8r			; 6.34544
	DD	03cc0b136r			; 0.023522
	DD	040aa4f92r			; 5.32221
	DD	040744224r			; 3.81654
	DD	040cb8aaar			; 6.36068
	DD	03cae87d3r			; 0.021305
	DD	040a73ac3r			; 5.22592
	DD	04075eeccr			; 3.8427
	DD	040ca6cd9r			; 6.32579
	DD	03c821294r			; 0.015878
	DD	040a5dbe0r			; 5.18309
	DD	0407d2f27r			; 3.956
	DD	040ca8cbdr			; 6.32968
	DD	03c2ae297r			; 0.01043
	DD	040a32ce4r			; 5.09923
	DD	04085a85fr			; 4.1768
	DD	040c9c5d6r			; 6.3054
	DD	03c0a2a91r			; 0.008433
	DD	040a0f7der			; 5.03026
	DD	040879a50r			; 4.23759
	DD	040c8a4eer			; 6.27013
	DD	03bd4fdf4r			; 0.0065
	DD	0409f0412r			; 4.96925
	DD	0408adc57r			; 4.3394
	DD	040c6f870r			; 6.21783
	DD	03ba18373r			; 0.004929
	DD	0409d8d50r			; 4.9235
	DD	0408e283fr			; 4.44241
	DD	040c5df6cr			; 6.18352
	DD	03b73775cr			; 0.003715
	DD	0409d4c75r			; 4.91558
	DD	0408dbb1br			; 4.42909
	DD	040c4029fr			; 6.12532
	DD	03b4a70d2r			; 0.003089
	DD	0409c48f7r			; 4.88391
	DD	040920260r			; 4.56279
	DD	040c5019dr			; 6.15645
	DD	03b219c9dr			; 0.002466
	DD	0409c31abr			; 4.88106
	DD	040942800r			; 4.62988
	DD	040c49088r			; 6.14264
	DD	03b0e25c8r			; 0.002169
	DD	0409c3d62r			; 4.88249
	DD	04094ae99r			; 4.64631
	DD	040c415d1r			; 6.12766
	DD	03b26dacbr			; 0.002546
	DD	040996304r			; 4.79334
	DD	0409acc16r			; 4.83741
	DD	040c6606br			; 6.19927
	DD	03aac3a86r			; 0.001314
	DD	04099e220r			; 4.80885
	DD	0409a81bdr			; 4.82834
	DD	040c7ca3cr			; 6.24344
	DD	03a9741d1r			; 0.001154
	DD	0409b9a72r			; 4.8626
	DD	0409b19aar			; 4.84688
	DD	040c693a5r			; 6.20552
	DD	03a80f990r			; 0.000984
	DD	0409bb993r			; 4.8664
	DD	0409b7fa2r			; 4.85933
	DD	040c7b565r			; 6.24089
	DD	03a551f82r			; 0.000813
	DD	0409b698ar			; 4.85663
	DD	0409d95bar			; 4.92453
	DD	040c963a4r			; 6.29341
	DD	03a91c087r			; 0.001112
	DD	04099419er			; 4.78926
	DD	040a050f0r			; 5.00988
	DD	040cddf8fr			; 6.43354
	DD	03a10b418r			; 0.000552
	DD	04098580ar			; 4.76075
	DD	040a2e4f1r			; 5.09045
	DD	040d32e1fr			; 6.59938
	DD	039ccff22r			; 0.000391
	DD	0409ec42cr			; 4.96145
	DD	040a38d95r			; 5.11103
	DD	040d8342fr			; 6.75637
	DD	039ae1049r			; 0.000332
	DD	0409f63f8r			; 4.98095
	DD	040a46b89r			; 5.13813
	DD	040dbc1e8r			; 6.86742
	DD	03952c387r			; 0.000201
	DD	040a5d297r			; 5.18196
	DD	04097af64r			; 4.74016
	DD	040cec07dr			; 6.461
	DD	0397ba882r			; 0.00024
	DD	040a5eeb7r			; 5.18539
	DD	0409bfeb0r			; 4.87484
	DD	040da3603r			; 6.81909
	DD	03908509cr			; 0.00013
	DD	040a8a6b5r			; 5.27035
	DD	040977eacr			; 4.73421
	DD	040da708fr			; 6.82624
	DD	038da1a93r			; 0.000104
	DD	040abe6e8r			; 5.37194
	DD	040930af4r			; 4.59509
	DD	040d5189ar			; 6.65925
	DD	038ae1049r			; 8.3e-05
	DD	040ab9581r			; 5.362
	DD	04093c250r			; 4.61747
	DD	040dacf03r			; 6.83777
	DD	03890b418r			; 6.9e-05
	DD	040a926e3r			; 5.286
	DD	0409828e7r			; 4.75499
	DD	040e516e1r			; 7.15904
	DD	0384d8559r			; 4.9e-05
	DD	040afa18cr			; 5.48847
	DD	0408cace9r			; 4.39611
	DD	040d74682r			; 6.72736
	DD	038734507r			; 5.8e-05
	DD	0409eafa3r			; 4.95894
	DD	040929321r			; 4.58046
	DD	040cf49a5r			; 6.47774
	DD	037eae18br			; 2.8e-05
	DD	040b0ae1br			; 5.52125
	DD	0408e1885r			; 4.44049
	DD	040e68f80r			; 7.20502
	DD	000000000r			; 0
	DD	000000000r			; 0
	DD	000000000r			; 0
	DD	000000000r			; 0
	DD	0379f6230r			; 1.9e-05
	DD	040b9f5d8r			; 5.81126
	DD	0408cc582r			; 4.39911
	DD	040eac30dr			; 7.33631
_g_sig_last_scan_8x8 DD 00H
	DD	02H
	DD	01H
	DD	03H
	DD	00H
	DD	01H
	DD	02H
	DD	03H
	DD	00H
	DD	02H
	DD	01H
	DD	03H
_g_sig_last_scan_16x16 DD 00H
	DD	04H
	DD	01H
	DD	08H
	DD	05H
	DD	02H
	DD	0cH
	DD	09H
	DD	06H
	DD	03H
	DD	0dH
	DD	0aH
	DD	07H
	DD	0eH
	DD	0bH
	DD	0fH
_g_sig_last_scan_32x32 DD 00H
	DD	08H
	DD	01H
	DD	010H
	DD	09H
	DD	02H
	DD	018H
	DD	011H
	DD	0aH
	DD	03H
	DD	020H
	DD	019H
	DD	012H
	DD	0bH
	DD	04H
	DD	028H
	DD	021H
	DD	01aH
	DD	013H
	DD	0cH
	DD	05H
	DD	030H
	DD	029H
	DD	022H
	DD	01bH
	DD	014H
	DD	0dH
	DD	06H
	DD	038H
	DD	031H
	DD	02aH
	DD	023H
	DD	01cH
	DD	015H
	DD	0eH
	DD	07H
	DD	039H
	DD	032H
	DD	02bH
	DD	024H
	DD	01dH
	DD	016H
	DD	0fH
	DD	03aH
	DD	033H
	DD	02cH
	DD	025H
	DD	01eH
	DD	017H
	DD	03bH
	DD	034H
	DD	02dH
	DD	026H
	DD	01fH
	DD	03cH
	DD	035H
	DD	02eH
	DD	027H
	DD	03dH
	DD	036H
	DD	02fH
	DD	03eH
	DD	037H
	DD	03fH
_g_sig_last_scan_cg DD FLAT:_g_sig_last_scan_8x8
	DD	FLAT:_g_sig_last_scan_8x8+16
	DD	FLAT:_g_sig_last_scan_8x8+32
	DD	FLAT:_g_sig_last_scan_8x8
	DD	FLAT:_g_sig_last_scan_8x8+16
	DD	FLAT:_g_sig_last_scan_8x8+32
	DD	FLAT:_g_sig_last_scan_16x16
	DD	00H
	DD	00H
	DD	FLAT:_g_sig_last_scan_32x32
	DD	00H
	DD	00H
_g_group_idx DB	00H
	DB	01H
	DB	02H
	DB	03H
	DB	04H
	DB	04H
	DB	05H
	DB	05H
	DB	06H
	DB	06H
	DB	06H
	DB	06H
	DB	07H
	DB	07H
	DB	07H
	DB	07H
	DB	08H
	DB	08H
	DB	08H
	DB	08H
	DB	08H
	DB	08H
	DB	08H
	DB	08H
	DB	09H
	DB	09H
	DB	09H
	DB	09H
	DB	09H
	DB	09H
	DB	09H
	DB	09H
_g_min_in_group DB 00H
	DB	01H
	DB	02H
	DB	03H
	DB	04H
	DB	06H
	DB	08H
	DB	0cH
	DB	010H
	DB	018H
	ORG $+6
_g_sao_edge_offsets DD 0ffffffffH
	DD	00H
	DD	01H
	DD	00H
	DD	00H
	DD	0ffffffffH
	DD	00H
	DD	01H
	DD	0ffffffffH
	DD	0ffffffffH
	DD	01H
	DD	01H
	DD	01H
	DD	0ffffffffH
	DD	0ffffffffH
	DD	01H
_strategies_to_select DD FLAT:??_C@_0P@FIMIKDEG@array_checksum@
	DD	FLAT:_kvz_array_checksum
	DD	FLAT:??_C@_09INHMEIKP@array_md5@
	DD	FLAT:_kvz_array_md5
	DD	FLAT:??_C@_07DDJKLCAH@reg_sad@
	DD	FLAT:_kvz_reg_sad
	DD	FLAT:??_C@_07CCGEEBAL@sad_4x4@
	DD	FLAT:_kvz_sad_4x4
	DD	FLAT:??_C@_07MEAHLBLP@sad_8x8@
	DD	FLAT:_kvz_sad_8x8
	DD	FLAT:??_C@_09CIFGAEGF@sad_16x16@
	DD	FLAT:_kvz_sad_16x16
	DD	FLAT:??_C@_09PHPGBCME@sad_32x32@
	DD	FLAT:_kvz_sad_32x32
	DD	FLAT:??_C@_09HIOKBDLK@sad_64x64@
	DD	FLAT:_kvz_sad_64x64
	DD	FLAT:??_C@_08GDBJPAOD@satd_4x4@
	DD	FLAT:_kvz_satd_4x4
	DD	FLAT:??_C@_08IFHKAAFH@satd_8x8@
	DD	FLAT:_kvz_satd_8x8
	DD	FLAT:??_C@_0L@CJHLPOG@satd_16x16@
	DD	FLAT:_kvz_satd_16x16
	DD	FLAT:??_C@_0L@NNDHKJEH@satd_32x32@
	DD	FLAT:_kvz_satd_32x32
	DD	FLAT:??_C@_0L@FCCLKIDJ@satd_64x64@
	DD	FLAT:_kvz_satd_64x64
	DD	FLAT:??_C@_0O@FHJAMJMP@satd_any_size@
	DD	FLAT:_kvz_satd_any_size
	DD	FLAT:??_C@_0N@PBMCJFCI@sad_4x4_dual@
	DD	FLAT:_kvz_sad_4x4_dual
	DD	FLAT:??_C@_0N@NAFGAMEI@sad_8x8_dual@
	DD	FLAT:_kvz_sad_8x8_dual
	DD	FLAT:??_C@_0P@KGAKCNHP@sad_16x16_dual@
	DD	FLAT:_kvz_sad_16x16_dual
	DD	FLAT:??_C@_0P@EBOHBHKK@sad_32x32_dual@
	DD	FLAT:_kvz_sad_32x32_dual
	DD	FLAT:??_C@_0P@BGJOPAPB@sad_64x64_dual@
	DD	FLAT:_kvz_sad_64x64_dual
	DD	FLAT:??_C@_0O@PJODLFIO@satd_4x4_dual@
	DD	FLAT:_kvz_satd_4x4_dual
	DD	FLAT:??_C@_0O@NIHHCMOO@satd_8x8_dual@
	DD	FLAT:_kvz_satd_8x8_dual
	DD	FLAT:??_C@_0BA@GFDJBOPJ@satd_16x16_dual@
	DD	FLAT:_kvz_satd_16x16_dual
	DD	FLAT:??_C@_0BA@ICNECECM@satd_32x32_dual@
	DD	FLAT:_kvz_satd_32x32_dual
	DD	FLAT:??_C@_0BA@NFKNMDHH@satd_64x64_dual@
	DD	FLAT:_kvz_satd_64x64_dual
	DD	FLAT:??_C@_0BD@EFOGIBKC@satd_any_size_quad@
	DD	FLAT:_kvz_satd_any_size_quad
	DD	FLAT:??_C@_0BA@BPDFDAFM@pixels_calc_ssd@
	DD	FLAT:_kvz_pixels_calc_ssd
	DD	FLAT:??_C@_0P@FIKELBGI@bipred_average@
	DD	FLAT:_kvz_bipred_average
	DD	FLAT:??_C@_0BC@IMILIHON@get_optimized_sad@
	DD	FLAT:_kvz_get_optimized_sad
	DD	FLAT:??_C@_07OEMLCPNF@ver_sad@
	DD	FLAT:_kvz_ver_sad
	DD	FLAT:??_C@_07CJIKFDIC@hor_sad@
	DD	FLAT:_kvz_hor_sad
	DD	FLAT:??_C@_09GDPKBOJB@pixel_var@
	DD	FLAT:_kvz_pixel_var
	DD	FLAT:??_C@_0BF@BJKPGPEP@fast_forward_dst_4x4@
	DD	FLAT:_kvz_fast_forward_dst_4x4
	DD	FLAT:??_C@_07MAFDGKIL@dct_4x4@
	DD	FLAT:_kvz_dct_4x4
	DD	FLAT:??_C@_07CGDAJKDP@dct_8x8@
	DD	FLAT:_kvz_dct_8x8
	DD	FLAT:??_C@_09LPGJIHFJ@dct_16x16@
	DD	FLAT:_kvz_dct_16x16
	DD	FLAT:??_C@_09GAMJJBPI@dct_32x32@
	DD	FLAT:_kvz_dct_32x32
	DD	FLAT:??_C@_0BF@LGIDMEOF@fast_inverse_dst_4x4@
	DD	FLAT:_kvz_fast_inverse_dst_4x4
	DD	FLAT:??_C@_08LDLIJGLD@idct_4x4@
	DD	FLAT:_kvz_idct_4x4
	DD	FLAT:??_C@_08FFNLGGAH@idct_8x8@
	DD	FLAT:_kvz_idct_8x8
	DD	FLAT:??_C@_0L@BMPNPGHO@idct_16x16@
	DD	FLAT:_kvz_idct_16x16
	DD	FLAT:??_C@_0L@MDFNOANP@idct_32x32@
	DD	FLAT:_kvz_idct_32x32
	DD	FLAT:??_C@_0CA@KBMGLOML@filter_hpel_blocks_hor_ver_luma@
	DD	FLAT:_kvz_filter_hpel_blocks_hor_ver_luma
	DD	FLAT:??_C@_0BN@LGIFMJCD@filter_hpel_blocks_diag_luma@
	DD	FLAT:_kvz_filter_hpel_blocks_diag_luma
	DD	FLAT:??_C@_0CA@HAFBJKBM@filter_qpel_blocks_hor_ver_luma@
	DD	FLAT:_kvz_filter_qpel_blocks_hor_ver_luma
	DD	FLAT:??_C@_0BN@LBBJMBKC@filter_qpel_blocks_diag_luma@
	DD	FLAT:_kvz_filter_qpel_blocks_diag_luma
	DD	FLAT:??_C@_0BH@DGLFPIPB@sample_quarterpel_luma@
	DD	FLAT:_kvz_sample_quarterpel_luma
	DD	FLAT:??_C@_0BF@HOLGGLNK@sample_octpel_chroma@
	DD	FLAT:_kvz_sample_octpel_chroma
	DD	FLAT:??_C@_0BK@LCPNGAOF@sample_quarterpel_luma_hi@
	DD	FLAT:_kvz_sample_quarterpel_luma_hi
	DD	FLAT:??_C@_0BI@EFIAEBMP@sample_octpel_chroma_hi@
	DD	FLAT:_kvz_sample_octpel_chroma_hi
	DD	FLAT:??_C@_0BD@MPANGNDO@get_extended_block@
	DD	FLAT:_kvz_get_extended_block
	DD	FLAT:??_C@_05DFPBCFDJ@quant@
	DD	FLAT:_kvz_quant
	DD	FLAT:??_C@_0BC@MPMPMGJB@quantize_residual@
	DD	FLAT:_kvz_quantize_residual
	DD	FLAT:??_C@_07GMDOJGPA@dequant@
	DD	FLAT:_kvz_dequant
	DD	FLAT:??_C@_0O@ECIHPEON@coeff_abs_sum@
	DD	FLAT:_kvz_coeff_abs_sum
	DD	FLAT:??_C@_0BA@HMNKAKOO@fast_coeff_cost@
	DD	FLAT:_kvz_fast_coeff_cost
	DD	FLAT:??_C@_0N@NMFCEONC@angular_pred@
	DD	FLAT:_kvz_angular_pred
	DD	FLAT:??_C@_0BC@KPOCLILL@intra_pred_planar@
	DD	FLAT:_kvz_intra_pred_planar
	DD	FLAT:??_C@_0BH@EAOLFJGL@intra_pred_filtered_dc@
	DD	FLAT:_kvz_intra_pred_filtered_dc
	DD	FLAT:??_C@_0BF@LGILOHOJ@sao_edge_ddistortion@
	DD	FLAT:_kvz_sao_edge_ddistortion
	DD	FLAT:??_C@_0BC@OCNKGNNI@calc_sao_edge_dir@
	DD	FLAT:_kvz_calc_sao_edge_dir
	DD	FLAT:??_C@_0BG@IJPOOFFG@sao_reconstruct_color@
	DD	FLAT:_kvz_sao_reconstruct_color
	DD	FLAT:??_C@_0BF@HDNLAKN@sao_band_ddistortion@
	DD	FLAT:_kvz_sao_band_ddistortion
	DD	FLAT:??_C@_0BB@GDIDDFDB@encode_coeff_nxn@
	DD	FLAT:_kvz_encode_coeff_nxn
	DD	00H
	DD	00H
CONST	ENDS
PUBLIC	_kvz_encode_coeff_nxn_generic
PUBLIC	_kvz_strategy_register_encode_generic
PUBLIC	__JustMyCode_Default
PUBLIC	?__LINE__Var@?0??kvz_encode_coeff_nxn_generic@@9@9 ; `kvz_encode_coeff_nxn_generic'::`1'::__LINE__Var
PUBLIC	??_C@_1LI@KHHHHOJP@?$AAF?$AA?3?$AA?2?$AAo?$AAp?$AAe?$AAn?$AA_?$AAc?$AAo?$AAd?$AAe?$AAc?$AA_?$AAl@ ; `string'
PUBLIC	??_C@_1BO@MDLNKBHI@?$AAs?$AAi?$AAg?$AA_?$AAc?$AAg?$AA_?$AAc?$AAn?$AAt?$AA?5?$AA?$DO?$AA?5?$AA0@ ; `string'
PUBLIC	??_C@_07DCLBNMLN@generic@			; `string'
EXTRN	__imp___wassert:PROC
EXTRN	_abs:PROC
EXTRN	_kvz_strategyselector_register:PROC
EXTRN	_kvz_cabac_encode_bin:PROC
EXTRN	_kvz_cabac_encode_bins_ep:PROC
EXTRN	_kvz_cabac_write_coeff_remain:PROC
EXTRN	_kvz_cabac_write_coeff_remain_encry:PROC
EXTRN	_kvz_context_calc_pattern_sig_ctx:PROC
EXTRN	_kvz_context_get_sig_coeff_group:PROC
EXTRN	_kvz_context_get_sig_ctx_inc:PROC
EXTRN	_kvz_encode_last_significant_xy:PROC
EXTRN	@_RTC_CheckStackVars@8:PROC
EXTRN	@__CheckForDebuggerJustMyCode@4:PROC
EXTRN	@__security_check_cookie@4:PROC
EXTRN	__RTC_CheckEsp:PROC
EXTRN	__RTC_InitBase:PROC
EXTRN	__RTC_Shutdown:PROC
EXTRN	_memset:PROC
EXTRN	_kvz_g_sig_last_scan:BYTE
EXTRN	_kvz_g_convert_to_bit:BYTE
EXTRN	___security_cookie:DWORD
;	COMDAT rtc$TMZ
rtc$TMZ	SEGMENT
__RTC_Shutdown.rtc$TMZ DD FLAT:__RTC_Shutdown
rtc$TMZ	ENDS
;	COMDAT rtc$IMZ
rtc$IMZ	SEGMENT
__RTC_InitBase.rtc$IMZ DD FLAT:__RTC_InitBase
rtc$IMZ	ENDS
;	COMDAT ??_C@_07DCLBNMLN@generic@
CONST	SEGMENT
??_C@_07DCLBNMLN@generic@ DB 'generic', 00H		; `string'
CONST	ENDS
;	COMDAT ??_C@_1BO@MDLNKBHI@?$AAs?$AAi?$AAg?$AA_?$AAc?$AAg?$AA_?$AAc?$AAn?$AAt?$AA?5?$AA?$DO?$AA?5?$AA0@
CONST	SEGMENT
??_C@_1BO@MDLNKBHI@?$AAs?$AAi?$AAg?$AA_?$AAc?$AAg?$AA_?$AAc?$AAn?$AAt?$AA?5?$AA?$DO?$AA?5?$AA0@ DB 's'
	DB	00H, 'i', 00H, 'g', 00H, '_', 00H, 'c', 00H, 'g', 00H, '_', 00H
	DB	'c', 00H, 'n', 00H, 't', 00H, ' ', 00H, '>', 00H, ' ', 00H, '0'
	DB	00H, 00H, 00H				; `string'
CONST	ENDS
;	COMDAT ??_C@_1LI@KHHHHOJP@?$AAF?$AA?3?$AA?2?$AAo?$AAp?$AAe?$AAn?$AA_?$AAc?$AAo?$AAd?$AAe?$AAc?$AA_?$AAl@
CONST	SEGMENT
??_C@_1LI@KHHHHOJP@?$AAF?$AA?3?$AA?2?$AAo?$AAp?$AAe?$AAn?$AA_?$AAc?$AAo?$AAd?$AAe?$AAc?$AA_?$AAl@ DB 'F'
	DB	00H, ':', 00H, '\', 00H, 'o', 00H, 'p', 00H, 'e', 00H, 'n', 00H
	DB	'_', 00H, 'c', 00H, 'o', 00H, 'd', 00H, 'e', 00H, 'c', 00H, '_'
	DB	00H, 'l', 00H, 'e', 00H, 'a', 00H, 'r', 00H, 'n', 00H, '_', 00H
	DB	'2', 00H, '0', 00H, '2', 00H, '1', 00H, '\', 00H, 'k', 00H, 'v'
	DB	00H, 'a', 00H, 'z', 00H, 'a', 00H, 'a', 00H, 'r', 00H, '-', 00H
	DB	'm', 00H, 'a', 00H, 's', 00H, 't', 00H, 'e', 00H, 'r', 00H, '\'
	DB	00H, 's', 00H, 'r', 00H, 'c', 00H, '\', 00H, 's', 00H, 't', 00H
	DB	'r', 00H, 'a', 00H, 't', 00H, 'e', 00H, 'g', 00H, 'i', 00H, 'e'
	DB	00H, 's', 00H, '\', 00H, 'g', 00H, 'e', 00H, 'n', 00H, 'e', 00H
	DB	'r', 00H, 'i', 00H, 'c', 00H, '\', 00H, 'e', 00H, 'n', 00H, 'c'
	DB	00H, 'o', 00H, 'd', 00H, 'e', 00H, '_', 00H, 'c', 00H, 'o', 00H
	DB	'd', 00H, 'i', 00H, 'n', 00H, 'g', 00H, '_', 00H, 't', 00H, 'r'
	DB	00H, 'e', 00H, 'e', 00H, '-', 00H, 'g', 00H, 'e', 00H, 'n', 00H
	DB	'e', 00H, 'r', 00H, 'i', 00H, 'c', 00H, '.', 00H, 'c', 00H, 00H
	DB	00H						; `string'
CONST	ENDS
;	COMDAT ?__LINE__Var@?0??kvz_encode_coeff_nxn_generic@@9@9
_DATA	SEGMENT
?__LINE__Var@?0??kvz_encode_coeff_nxn_generic@@9@9 DD 02fH ; `kvz_encode_coeff_nxn_generic'::`1'::__LINE__Var
_DATA	ENDS
; Function compile flags: /Odt
;	COMDAT __JustMyCode_Default
_TEXT	SEGMENT
__JustMyCode_Default PROC				; COMDAT
	push	ebp
	mov	ebp, esp
	pop	ebp
	ret	0
__JustMyCode_Default ENDP
_TEXT	ENDS
; Function compile flags: /Odtp /RTCsu /ZI
; File F:\open_codec_learn_2021\kvazaar-master\src\strategies\generic\encode_coding_tree-generic.c
;	COMDAT _kvz_strategy_register_encode_generic
_TEXT	SEGMENT
tv73 = -208						; size = 4
_success$ = -5						; size = 1
_opaque$ = 8						; size = 4
_bitdepth$ = 12						; size = 1
_kvz_strategy_register_encode_generic PROC		; COMDAT

; 285  : {

	push	ebp
	mov	ebp, esp
	sub	esp, 208				; 000000d0H
	push	ebx
	push	esi
	push	edi
	lea	edi, DWORD PTR [ebp-208]
	mov	ecx, 52					; 00000034H
	mov	eax, -858993460				; ccccccccH
	rep stosd
	mov	ecx, OFFSET __0ED13153_encode_coding_tree-generic@c
	call	@__CheckForDebuggerJustMyCode@4

; 286  :   bool success = true;

	mov	BYTE PTR _success$[ebp], 1

; 287  : 
; 288  :   success &= kvz_strategyselector_register(opaque, "encode_coeff_nxn", "generic", 0, &kvz_encode_coeff_nxn_generic);

	movzx	esi, BYTE PTR _success$[ebp]
	push	OFFSET _kvz_encode_coeff_nxn_generic
	push	0
	push	OFFSET ??_C@_07DCLBNMLN@generic@
	push	OFFSET ??_C@_0BB@GDIDDFDB@encode_coeff_nxn@
	mov	eax, DWORD PTR _opaque$[ebp]
	push	eax
	call	_kvz_strategyselector_register
	add	esp, 20					; 00000014H
	and	esi, eax
	jne	SHORT $LN3@kvz_strate
	mov	DWORD PTR tv73[ebp], 0
	jmp	SHORT $LN4@kvz_strate
$LN3@kvz_strate:
	mov	DWORD PTR tv73[ebp], 1
$LN4@kvz_strate:
	mov	cl, BYTE PTR tv73[ebp]
	mov	BYTE PTR _success$[ebp], cl

; 289  : 
; 290  :   return success;

	movzx	eax, BYTE PTR _success$[ebp]

; 291  : }

	pop	edi
	pop	esi
	pop	ebx
	add	esp, 208				; 000000d0H
	cmp	ebp, esp
	call	__RTC_CheckEsp
	mov	esp, ebp
	pop	ebp
	ret	0
_kvz_strategy_register_encode_generic ENDP
_TEXT	ENDS
; Function compile flags: /Odtp /RTCsu /ZI
; File F:\open_codec_learn_2021\kvazaar-master\src\strategies\generic\encode_coding_tree-generic.c
;	COMDAT _kvz_encode_coeff_nxn_generic
_TEXT	SEGMENT
tv351 = -1360						; size = 4
tv489 = -1356						; size = 4
tv451 = -1356						; size = 4
tv402 = -1356						; size = 4
tv397 = -1356						; size = 4
tv377 = -1356						; size = 4
tv371 = -1356						; size = 4
tv369 = -1356						; size = 4
tv356 = -1356						; size = 4
tv349 = -1356						; size = 4
tv339 = -1356						; size = 4
tv309 = -1356						; size = 4
tv277 = -1356						; size = 4
tv268 = -1356						; size = 4
tv231 = -1356						; size = 4
tv132 = -1356						; size = 4
_base_level$1 = -964					; size = 4
_symbol$2 = -949					; size = 1
_symbol$3 = -940					; size = 4
_first_coeff2$4 = -928					; size = 4
_idx$5 = -916						; size = 4
_first_c2_flag_idx$6 = -904				; size = 4
_num_c1_flag$7 = -892					; size = 4
_base_ctx_mod$8 = -880					; size = 4
_ctx_set$9 = -868					; size = 4
_sign_hidden$10 = -853					; size = 1
_pattern_sig_ctx$11 = -844				; size = 4
_ctx_sig$12 = -832					; size = 4
_sig_coeff_group$13 = -820				; size = 4
_num_non_zero$14 = -808					; size = 4
_first_nz_pos_in_cg$15 = -796				; size = 4
_last_nz_pos_in_cg$16 = -784				; size = 4
_coeff_signs$17 = -772					; size = 4
_cg_pos_x$18 = -760					; size = 4
_cg_pos_y$19 = -748					; size = 4
_cg_blk_pos$20 = -736					; size = 4
_abs_coeff$21 = -724					; size = 64
_sub_pos$22 = -652					; size = 4
_pos_last$ = -640					; size = 4
_scan_pos_last$ = -628					; size = 4
_scan_cg_last$ = -616					; size = 4
_cg_pos_x$23 = -604					; size = 4
_cg_pos_y$24 = -592					; size = 4
_four_coeffs$25 = -580					; size = 8
_coeff_pos$26 = -564					; size = 4
_coeff_row$27 = -552					; size = 4
_cg_pos$28 = -540					; size = 4
_cg_x$29 = -528						; size = 4
_cg_y$30 = -516						; size = 4
_sig_cg_cnt$ = -504					; size = 4
_baseCtx$ = -492					; size = 4
_base_coeff_group_ctx$ = -480				; size = 4
_scan_cg$ = -468					; size = 4
_scan$ = -456						; size = 4
_log2_block_size$ = -444				; size = 4
_num_blk_side$ = -432					; size = 4
_ctx_sig$ = -420					; size = 4
_sig$ = -408						; size = 4
_pos_x$ = -396						; size = 4
_pos_y$ = -384						; size = 4
_blk_pos$ = -372					; size = 4
_go_rice_param$ = -360					; size = 4
_scan_pos_sig$ = -348					; size = 4
_be_valid$ = -333					; size = 1
_sig_coeffgroup_flag$ = -324				; size = 256
_i$ = -60						; size = 4
_last_coeff_y$ = -45					; size = 1
_last_coeff_x$ = -33					; size = 1
_c1$ = -24						; size = 4
_encoder$ = -12						; size = 4
__$ArrayPad$ = -4					; size = 4
_state$ = 8						; size = 4
_cabac$ = 12						; size = 4
_coeff$ = 16						; size = 4
_width$ = 20						; size = 1
_type$ = 24						; size = 1
_scan_mode$ = 28					; size = 1
_tr_skip$ = 32						; size = 1
_kvz_encode_coeff_nxn_generic PROC			; COMDAT

; 47   : {

	push	ebp
	mov	ebp, esp
	sub	esp, 1360				; 00000550H
	push	ebx
	push	esi
	push	edi
	lea	edi, DWORD PTR [ebp-1360]
	mov	ecx, 340				; 00000154H
	mov	eax, -858993460				; ccccccccH
	rep stosd
	mov	eax, DWORD PTR ___security_cookie
	xor	eax, ebp
	mov	DWORD PTR __$ArrayPad$[ebp], eax
	mov	ecx, OFFSET __0ED13153_encode_coding_tree-generic@c
	call	@__CheckForDebuggerJustMyCode@4

; 48   :   const encoder_control_t * const encoder = state->encoder_control;

	mov	eax, DWORD PTR _state$[ebp]
	mov	ecx, DWORD PTR [eax]
	mov	DWORD PTR _encoder$[ebp], ecx

; 49   :   int c1 = 1;

	mov	DWORD PTR _c1$[ebp], 1

; 50   :   uint8_t last_coeff_x = 0;

	mov	BYTE PTR _last_coeff_x$[ebp], 0

; 51   :   uint8_t last_coeff_y = 0;

	mov	BYTE PTR _last_coeff_y$[ebp], 0

; 52   :   int32_t i;
; 53   :   uint32_t sig_coeffgroup_flag[8 * 8] = { 0 };

	push	256					; 00000100H
	push	0
	lea	eax, DWORD PTR _sig_coeffgroup_flag$[ebp]
	push	eax
	call	_memset
	add	esp, 12					; 0000000cH

; 54   : 
; 55   :   int8_t be_valid = encoder->cfg.signhide_enable;

	mov	eax, DWORD PTR _encoder$[ebp]
	mov	cl, BYTE PTR [eax+52]
	mov	BYTE PTR _be_valid$[ebp], cl

; 56   :   int32_t scan_pos_sig;
; 57   :   uint32_t go_rice_param = 0;

	mov	DWORD PTR _go_rice_param$[ebp], 0

; 58   :   uint32_t blk_pos, pos_y, pos_x, sig, ctx_sig;
; 59   : 
; 60   :   // CONSTANTS
; 61   :   const uint32_t num_blk_side    = width >> TR_MIN_LOG2_SIZE;

	movzx	eax, BYTE PTR _width$[ebp]
	sar	eax, 2
	mov	DWORD PTR _num_blk_side$[ebp], eax

; 62   :   const uint32_t log2_block_size = kvz_g_convert_to_bit[width] + 2;

	movzx	eax, BYTE PTR _width$[ebp]
	movsx	ecx, BYTE PTR _kvz_g_convert_to_bit[eax]
	add	ecx, 2
	mov	DWORD PTR _log2_block_size$[ebp], ecx

; 63   :   const uint32_t *scan           =

	movsx	eax, BYTE PTR _scan_mode$[ebp]
	imul	ecx, eax, 20
	mov	edx, DWORD PTR _log2_block_size$[ebp]
	mov	eax, DWORD PTR _kvz_g_sig_last_scan[ecx+edx*4-4]
	mov	DWORD PTR _scan$[ebp], eax

; 64   :     kvz_g_sig_last_scan[scan_mode][log2_block_size - 1];
; 65   :   const uint32_t *scan_cg = g_sig_last_scan_cg[log2_block_size - 2][scan_mode];

	mov	eax, DWORD PTR _log2_block_size$[ebp]
	sub	eax, 2
	imul	ecx, eax, 12
	movsx	edx, BYTE PTR _scan_mode$[ebp]
	mov	eax, DWORD PTR _g_sig_last_scan_cg[ecx+edx*4]
	mov	DWORD PTR _scan_cg$[ebp], eax

; 66   : 
; 67   :   // Init base contexts according to block type
; 68   :   cabac_ctx_t *base_coeff_group_ctx = &(cabac->ctx.cu_sig_coeff_group_model[type]);

	movzx	eax, BYTE PTR _type$[ebp]
	mov	ecx, DWORD PTR _cabac$[ebp]
	lea	edx, DWORD PTR [ecx+eax+64]
	mov	DWORD PTR _base_coeff_group_ctx$[ebp], edx

; 69   :   cabac_ctx_t *baseCtx           = (type == 0) ? &(cabac->ctx.cu_sig_model_luma[0]) :

	movzx	eax, BYTE PTR _type$[ebp]
	test	eax, eax
	jne	SHORT $LN63@kvz_encode
	mov	ecx, 1
	imul	edx, ecx, 0
	mov	eax, DWORD PTR _cabac$[ebp]
	lea	ecx, DWORD PTR [eax+edx+68]
	mov	DWORD PTR tv132[ebp], ecx
	jmp	SHORT $LN64@kvz_encode
$LN63@kvz_encode:
	mov	edx, 1
	imul	eax, edx, 0
	mov	ecx, DWORD PTR _cabac$[ebp]
	lea	edx, DWORD PTR [ecx+eax+95]
	mov	DWORD PTR tv132[ebp], edx
$LN64@kvz_encode:
	mov	eax, DWORD PTR tv132[ebp]
	mov	DWORD PTR _baseCtx$[ebp], eax

; 70   :                                  &(cabac->ctx.cu_sig_model_chroma[0]);
; 71   : 
; 72   :   // Scan all coeff groups to find out which of them have coeffs.
; 73   :   // Populate sig_coeffgroup_flag with that info.
; 74   : 
; 75   :   unsigned sig_cg_cnt = 0;

	mov	DWORD PTR _sig_cg_cnt$[ebp], 0

; 76   :   for (int cg_y = 0; cg_y < width / 4; ++cg_y) {

	mov	DWORD PTR _cg_y$30[ebp], 0
	jmp	SHORT $LN4@kvz_encode
$LN2@kvz_encode:
	mov	eax, DWORD PTR _cg_y$30[ebp]
	add	eax, 1
	mov	DWORD PTR _cg_y$30[ebp], eax
$LN4@kvz_encode:
	movzx	eax, BYTE PTR _width$[ebp]
	cdq
	and	edx, 3
	add	eax, edx
	sar	eax, 2
	cmp	DWORD PTR _cg_y$30[ebp], eax
	jge	$LN3@kvz_encode

; 77   :     for (int cg_x = 0; cg_x < width / 4; ++cg_x) {

	mov	DWORD PTR _cg_x$29[ebp], 0
	jmp	SHORT $LN7@kvz_encode
$LN5@kvz_encode:
	mov	eax, DWORD PTR _cg_x$29[ebp]
	add	eax, 1
	mov	DWORD PTR _cg_x$29[ebp], eax
$LN7@kvz_encode:
	movzx	eax, BYTE PTR _width$[ebp]
	cdq
	and	edx, 3
	add	eax, edx
	sar	eax, 2
	cmp	DWORD PTR _cg_x$29[ebp], eax
	jge	$LN6@kvz_encode

; 78   :       unsigned cg_pos = cg_y * width * 4 + cg_x * 4;

	movzx	eax, BYTE PTR _width$[ebp]
	imul	eax, DWORD PTR _cg_y$30[ebp]
	mov	ecx, DWORD PTR _cg_x$29[ebp]
	shl	ecx, 2
	lea	edx, DWORD PTR [ecx+eax*4]
	mov	DWORD PTR _cg_pos$28[ebp], edx

; 79   :       for (int coeff_row = 0; coeff_row < 4; ++coeff_row) {

	mov	DWORD PTR _coeff_row$27[ebp], 0
	jmp	SHORT $LN10@kvz_encode
$LN8@kvz_encode:
	mov	eax, DWORD PTR _coeff_row$27[ebp]
	add	eax, 1
	mov	DWORD PTR _coeff_row$27[ebp], eax
$LN10@kvz_encode:
	cmp	DWORD PTR _coeff_row$27[ebp], 4
	jge	$LN9@kvz_encode

; 80   :         // Load four 16-bit coeffs and see if any of them are non-zero.
; 81   :         unsigned coeff_pos = cg_pos + coeff_row * width;

	movzx	eax, BYTE PTR _width$[ebp]
	imul	eax, DWORD PTR _coeff_row$27[ebp]
	add	eax, DWORD PTR _cg_pos$28[ebp]
	mov	DWORD PTR _coeff_pos$26[ebp], eax

; 82   :         uint64_t four_coeffs = *(uint64_t*)(&coeff[coeff_pos]);

	mov	eax, DWORD PTR _coeff_pos$26[ebp]
	mov	ecx, DWORD PTR _coeff$[ebp]
	mov	edx, DWORD PTR [ecx+eax*2]
	mov	DWORD PTR _four_coeffs$25[ebp], edx
	mov	eax, DWORD PTR [ecx+eax*2+4]
	mov	DWORD PTR _four_coeffs$25[ebp+4], eax

; 83   :         if (four_coeffs) {

	mov	eax, DWORD PTR _four_coeffs$25[ebp]
	or	eax, DWORD PTR _four_coeffs$25[ebp+4]
	je	SHORT $LN27@kvz_encode

; 84   :           ++sig_cg_cnt;

	mov	eax, DWORD PTR _sig_cg_cnt$[ebp]
	add	eax, 1
	mov	DWORD PTR _sig_cg_cnt$[ebp], eax

; 85   :           unsigned cg_pos_y = (cg_pos >> log2_block_size) >> TR_MIN_LOG2_SIZE;

	mov	eax, DWORD PTR _cg_pos$28[ebp]
	mov	ecx, DWORD PTR _log2_block_size$[ebp]
	shr	eax, cl
	shr	eax, 2
	mov	DWORD PTR _cg_pos_y$24[ebp], eax

; 86   :           unsigned cg_pos_x = (cg_pos & (width - 1)) >> TR_MIN_LOG2_SIZE;

	movzx	eax, BYTE PTR _width$[ebp]
	sub	eax, 1
	and	eax, DWORD PTR _cg_pos$28[ebp]
	shr	eax, 2
	mov	DWORD PTR _cg_pos_x$23[ebp], eax

; 87   :           sig_coeffgroup_flag[cg_pos_x + cg_pos_y * num_blk_side] = 1;

	mov	eax, DWORD PTR _cg_pos_y$24[ebp]
	imul	eax, DWORD PTR _num_blk_side$[ebp]
	add	eax, DWORD PTR _cg_pos_x$23[ebp]
	mov	DWORD PTR _sig_coeffgroup_flag$[ebp+eax*4], 1

; 88   :           break;

	jmp	SHORT $LN9@kvz_encode
$LN27@kvz_encode:

; 89   :         }
; 90   :       }

	jmp	$LN8@kvz_encode
$LN9@kvz_encode:

; 91   :     }

	jmp	$LN5@kvz_encode
$LN6@kvz_encode:

; 92   :   }

	jmp	$LN2@kvz_encode
$LN3@kvz_encode:

; 93   : 
; 94   :   // Rest of the code assumes at least one non-zero coeff.
; 95   :   assert(sig_cg_cnt > 0);

	cmp	DWORD PTR _sig_cg_cnt$[ebp], 0
	ja	SHORT $LN65@kvz_encode
	mov	eax, DWORD PTR ?__LINE__Var@?0??kvz_encode_coeff_nxn_generic@@9@9
	add	eax, 48					; 00000030H
	mov	esi, esp
	push	eax
	push	OFFSET ??_C@_1LI@KHHHHOJP@?$AAF?$AA?3?$AA?2?$AAo?$AAp?$AAe?$AAn?$AA_?$AAc?$AAo?$AAd?$AAe?$AAc?$AA_?$AAl@
	push	OFFSET ??_C@_1BO@MDLNKBHI@?$AAs?$AAi?$AAg?$AA_?$AAc?$AAg?$AA_?$AAc?$AAn?$AAt?$AA?5?$AA?$DO?$AA?5?$AA0@
	call	DWORD PTR __imp___wassert
	add	esp, 12					; 0000000cH
	cmp	esi, esp
	call	__RTC_CheckEsp
$LN65@kvz_encode:

; 96   : 
; 97   :   // Find the last coeff group by going backwards in scan order.
; 98   :   unsigned scan_cg_last = num_blk_side * num_blk_side - 1;

	mov	eax, DWORD PTR _num_blk_side$[ebp]
	imul	eax, DWORD PTR _num_blk_side$[ebp]
	sub	eax, 1
	mov	DWORD PTR _scan_cg_last$[ebp], eax
$LN11@kvz_encode:

; 99   :   while (!sig_coeffgroup_flag[scan_cg[scan_cg_last]]) {

	mov	eax, DWORD PTR _scan_cg_last$[ebp]
	mov	ecx, DWORD PTR _scan_cg$[ebp]
	mov	edx, DWORD PTR [ecx+eax*4]
	cmp	DWORD PTR _sig_coeffgroup_flag$[ebp+edx*4], 0
	jne	SHORT $LN12@kvz_encode

; 100  :     --scan_cg_last;

	mov	eax, DWORD PTR _scan_cg_last$[ebp]
	sub	eax, 1
	mov	DWORD PTR _scan_cg_last$[ebp], eax

; 101  :   }

	jmp	SHORT $LN11@kvz_encode
$LN12@kvz_encode:

; 102  : 
; 103  :   // Find the last coeff by going backwards in scan order.
; 104  :   unsigned scan_pos_last = scan_cg_last * 16 + 15;

	mov	eax, DWORD PTR _scan_cg_last$[ebp]
	shl	eax, 4
	add	eax, 15					; 0000000fH
	mov	DWORD PTR _scan_pos_last$[ebp], eax
$LN13@kvz_encode:

; 105  :   while (!coeff[scan[scan_pos_last]]) {

	mov	eax, DWORD PTR _scan_pos_last$[ebp]
	mov	ecx, DWORD PTR _scan$[ebp]
	mov	edx, DWORD PTR [ecx+eax*4]
	mov	eax, DWORD PTR _coeff$[ebp]
	movsx	ecx, WORD PTR [eax+edx*2]
	test	ecx, ecx
	jne	SHORT $LN14@kvz_encode

; 106  :     --scan_pos_last;

	mov	eax, DWORD PTR _scan_pos_last$[ebp]
	sub	eax, 1
	mov	DWORD PTR _scan_pos_last$[ebp], eax

; 107  :   }

	jmp	SHORT $LN13@kvz_encode
$LN14@kvz_encode:

; 108  : 
; 109  :   int pos_last = scan[scan_pos_last];

	mov	eax, DWORD PTR _scan_pos_last$[ebp]
	mov	ecx, DWORD PTR _scan$[ebp]
	mov	edx, DWORD PTR [ecx+eax*4]
	mov	DWORD PTR _pos_last$[ebp], edx

; 110  : 
; 111  :   // transform skip flag
; 112  :   if(width == 4 && encoder->cfg.trskip_enable) {

	movzx	eax, BYTE PTR _width$[ebp]
	cmp	eax, 4
	jne	SHORT $LN28@kvz_encode
	mov	eax, DWORD PTR _encoder$[ebp]
	cmp	DWORD PTR [eax+72], 0
	je	SHORT $LN28@kvz_encode

; 113  :     cabac->cur_ctx = (type == 0) ? &(cabac->ctx.transform_skip_model_luma) : &(cabac->ctx.transform_skip_model_chroma);

	movzx	eax, BYTE PTR _type$[ebp]
	test	eax, eax
	jne	SHORT $LN66@kvz_encode
	mov	ecx, DWORD PTR _cabac$[ebp]
	add	ecx, 214				; 000000d6H
	mov	DWORD PTR tv231[ebp], ecx
	jmp	SHORT $LN67@kvz_encode
$LN66@kvz_encode:
	mov	edx, DWORD PTR _cabac$[ebp]
	add	edx, 215				; 000000d7H
	mov	DWORD PTR tv231[ebp], edx
$LN67@kvz_encode:
	mov	eax, DWORD PTR _cabac$[ebp]
	mov	ecx, DWORD PTR tv231[ebp]
	mov	DWORD PTR [eax], ecx

; 114  :     CABAC_BIN(cabac, tr_skip, "transform_skip_flag");

	movsx	eax, BYTE PTR _tr_skip$[ebp]
	push	eax
	mov	ecx, DWORD PTR _cabac$[ebp]
	push	ecx
	call	_kvz_cabac_encode_bin
	add	esp, 8
$LN28@kvz_encode:

; 115  :   }
; 116  : 
; 117  :   last_coeff_x = pos_last & (width - 1);

	movzx	eax, BYTE PTR _width$[ebp]
	sub	eax, 1
	and	eax, DWORD PTR _pos_last$[ebp]
	mov	BYTE PTR _last_coeff_x$[ebp], al

; 118  :   last_coeff_y = (uint8_t)(pos_last >> log2_block_size);

	mov	eax, DWORD PTR _pos_last$[ebp]
	mov	ecx, DWORD PTR _log2_block_size$[ebp]
	sar	eax, cl
	mov	BYTE PTR _last_coeff_y$[ebp], al

; 119  : 
; 120  :   // Code last_coeff_x and last_coeff_y
; 121  :   kvz_encode_last_significant_xy(cabac,

	movzx	eax, BYTE PTR _scan_mode$[ebp]
	push	eax
	movzx	ecx, BYTE PTR _type$[ebp]
	push	ecx
	movzx	edx, BYTE PTR _width$[ebp]
	push	edx
	movzx	eax, BYTE PTR _width$[ebp]
	push	eax
	movzx	ecx, BYTE PTR _last_coeff_y$[ebp]
	push	ecx
	movzx	edx, BYTE PTR _last_coeff_x$[ebp]
	push	edx
	mov	eax, DWORD PTR _cabac$[ebp]
	push	eax
	call	_kvz_encode_last_significant_xy
	add	esp, 28					; 0000001cH

; 122  :                                  last_coeff_x,
; 123  :                                  last_coeff_y,
; 124  :                                  width,
; 125  :                                  width,
; 126  :                                  type,
; 127  :                                  scan_mode);
; 128  : 
; 129  :   scan_pos_sig  = scan_pos_last;

	mov	eax, DWORD PTR _scan_pos_last$[ebp]
	mov	DWORD PTR _scan_pos_sig$[ebp], eax

; 130  : 
; 131  :   // significant_coeff_flag
; 132  :   for (i = scan_cg_last; i >= 0; i--) {

	mov	eax, DWORD PTR _scan_cg_last$[ebp]
	mov	DWORD PTR _i$[ebp], eax
	jmp	SHORT $LN17@kvz_encode
$LN15@kvz_encode:
	mov	eax, DWORD PTR _i$[ebp]
	sub	eax, 1
	mov	DWORD PTR _i$[ebp], eax
$LN17@kvz_encode:
	cmp	DWORD PTR _i$[ebp], 0
	jl	$LN1@kvz_encode

; 133  :     int32_t sub_pos        = i << 4; // LOG2_SCAN_SET_SIZE;

	mov	eax, DWORD PTR _i$[ebp]
	shl	eax, 4
	mov	DWORD PTR _sub_pos$22[ebp], eax

; 134  :     int32_t abs_coeff[16];
; 135  :     int32_t cg_blk_pos     = scan_cg[i];

	mov	eax, DWORD PTR _i$[ebp]
	mov	ecx, DWORD PTR _scan_cg$[ebp]
	mov	edx, DWORD PTR [ecx+eax*4]
	mov	DWORD PTR _cg_blk_pos$20[ebp], edx

; 136  :     int32_t cg_pos_y       = cg_blk_pos / num_blk_side;

	mov	eax, DWORD PTR _cg_blk_pos$20[ebp]
	xor	edx, edx
	div	DWORD PTR _num_blk_side$[ebp]
	mov	DWORD PTR _cg_pos_y$19[ebp], eax

; 137  :     int32_t cg_pos_x       = cg_blk_pos - (cg_pos_y * num_blk_side);

	mov	eax, DWORD PTR _cg_pos_y$19[ebp]
	imul	eax, DWORD PTR _num_blk_side$[ebp]
	mov	ecx, DWORD PTR _cg_blk_pos$20[ebp]
	sub	ecx, eax
	mov	DWORD PTR _cg_pos_x$18[ebp], ecx

; 138  : 
; 139  :     uint32_t coeff_signs   = 0;

	mov	DWORD PTR _coeff_signs$17[ebp], 0

; 140  :     int32_t last_nz_pos_in_cg = -1;

	mov	DWORD PTR _last_nz_pos_in_cg$16[ebp], -1

; 141  :     int32_t first_nz_pos_in_cg = 16;

	mov	DWORD PTR _first_nz_pos_in_cg$15[ebp], 16 ; 00000010H

; 142  :     int32_t num_non_zero = 0;

	mov	DWORD PTR _num_non_zero$14[ebp], 0

; 143  :     go_rice_param = 0;

	mov	DWORD PTR _go_rice_param$[ebp], 0

; 144  : 
; 145  :     if (scan_pos_sig == scan_pos_last) {

	mov	eax, DWORD PTR _scan_pos_sig$[ebp]
	cmp	eax, DWORD PTR _scan_pos_last$[ebp]
	jne	$LN29@kvz_encode

; 146  :       abs_coeff[0] = abs(coeff[pos_last]);

	mov	eax, DWORD PTR _pos_last$[ebp]
	mov	ecx, DWORD PTR _coeff$[ebp]
	movsx	edx, WORD PTR [ecx+eax*2]
	push	edx
	call	_abs
	add	esp, 4
	mov	ecx, 4
	imul	edx, ecx, 0
	mov	DWORD PTR _abs_coeff$21[ebp+edx], eax

; 147  :       coeff_signs  = (coeff[pos_last] < 0);

	mov	eax, DWORD PTR _pos_last$[ebp]
	mov	ecx, DWORD PTR _coeff$[ebp]
	movsx	edx, WORD PTR [ecx+eax*2]
	test	edx, edx
	jge	SHORT $LN68@kvz_encode
	mov	DWORD PTR tv268[ebp], 1
	jmp	SHORT $LN69@kvz_encode
$LN68@kvz_encode:
	mov	DWORD PTR tv268[ebp], 0
$LN69@kvz_encode:
	mov	eax, DWORD PTR tv268[ebp]
	mov	DWORD PTR _coeff_signs$17[ebp], eax

; 148  :       num_non_zero = 1;

	mov	DWORD PTR _num_non_zero$14[ebp], 1

; 149  :       last_nz_pos_in_cg  = scan_pos_sig;

	mov	eax, DWORD PTR _scan_pos_sig$[ebp]
	mov	DWORD PTR _last_nz_pos_in_cg$16[ebp], eax

; 150  :       first_nz_pos_in_cg = scan_pos_sig;

	mov	eax, DWORD PTR _scan_pos_sig$[ebp]
	mov	DWORD PTR _first_nz_pos_in_cg$15[ebp], eax

; 151  :       scan_pos_sig--;

	mov	eax, DWORD PTR _scan_pos_sig$[ebp]
	sub	eax, 1
	mov	DWORD PTR _scan_pos_sig$[ebp], eax
$LN29@kvz_encode:

; 152  :     }
; 153  : 
; 154  :     if (i == scan_cg_last || i == 0) {

	mov	eax, DWORD PTR _i$[ebp]
	cmp	eax, DWORD PTR _scan_cg_last$[ebp]
	je	SHORT $LN32@kvz_encode
	cmp	DWORD PTR _i$[ebp], 0
	jne	SHORT $LN30@kvz_encode
$LN32@kvz_encode:

; 155  :       sig_coeffgroup_flag[cg_blk_pos] = 1;

	mov	eax, DWORD PTR _cg_blk_pos$20[ebp]
	mov	DWORD PTR _sig_coeffgroup_flag$[ebp+eax*4], 1

; 156  :     } else {

	jmp	SHORT $LN31@kvz_encode
$LN30@kvz_encode:

; 157  :       uint32_t sig_coeff_group   = (sig_coeffgroup_flag[cg_blk_pos] != 0);

	mov	eax, DWORD PTR _cg_blk_pos$20[ebp]
	cmp	DWORD PTR _sig_coeffgroup_flag$[ebp+eax*4], 0
	je	SHORT $LN70@kvz_encode
	mov	DWORD PTR tv277[ebp], 1
	jmp	SHORT $LN71@kvz_encode
$LN70@kvz_encode:
	mov	DWORD PTR tv277[ebp], 0
$LN71@kvz_encode:
	mov	ecx, DWORD PTR tv277[ebp]
	mov	DWORD PTR _sig_coeff_group$13[ebp], ecx

; 158  :       uint32_t ctx_sig  = kvz_context_get_sig_coeff_group(sig_coeffgroup_flag, cg_pos_x,

	movzx	eax, BYTE PTR _width$[ebp]
	push	eax
	mov	ecx, DWORD PTR _cg_pos_y$19[ebp]
	push	ecx
	mov	edx, DWORD PTR _cg_pos_x$18[ebp]
	push	edx
	lea	eax, DWORD PTR _sig_coeffgroup_flag$[ebp]
	push	eax
	call	_kvz_context_get_sig_coeff_group
	add	esp, 16					; 00000010H
	mov	DWORD PTR _ctx_sig$12[ebp], eax

; 159  :                                                       cg_pos_y, width);
; 160  :       cabac->cur_ctx = &base_coeff_group_ctx[ctx_sig];

	mov	eax, DWORD PTR _base_coeff_group_ctx$[ebp]
	add	eax, DWORD PTR _ctx_sig$12[ebp]
	mov	ecx, DWORD PTR _cabac$[ebp]
	mov	DWORD PTR [ecx], eax

; 161  :       CABAC_BIN(cabac, sig_coeff_group, "coded_sub_block_flag");

	mov	eax, DWORD PTR _sig_coeff_group$13[ebp]
	push	eax
	mov	ecx, DWORD PTR _cabac$[ebp]
	push	ecx
	call	_kvz_cabac_encode_bin
	add	esp, 8
$LN31@kvz_encode:

; 162  :     }
; 163  : 
; 164  :     if (sig_coeffgroup_flag[cg_blk_pos]) {

	mov	eax, DWORD PTR _cg_blk_pos$20[ebp]
	cmp	DWORD PTR _sig_coeffgroup_flag$[ebp+eax*4], 0
	je	$LN33@kvz_encode

; 165  :       int32_t pattern_sig_ctx = kvz_context_calc_pattern_sig_ctx(sig_coeffgroup_flag,

	movzx	eax, BYTE PTR _width$[ebp]
	push	eax
	mov	ecx, DWORD PTR _cg_pos_y$19[ebp]
	push	ecx
	mov	edx, DWORD PTR _cg_pos_x$18[ebp]
	push	edx
	lea	eax, DWORD PTR _sig_coeffgroup_flag$[ebp]
	push	eax
	call	_kvz_context_calc_pattern_sig_ctx
	add	esp, 16					; 00000010H
	mov	DWORD PTR _pattern_sig_ctx$11[ebp], eax

; 166  :                                                              cg_pos_x, cg_pos_y, width);
; 167  : 
; 168  :       for (; scan_pos_sig >= sub_pos; scan_pos_sig--) {

	jmp	SHORT $LN20@kvz_encode
$LN18@kvz_encode:
	mov	eax, DWORD PTR _scan_pos_sig$[ebp]
	sub	eax, 1
	mov	DWORD PTR _scan_pos_sig$[ebp], eax
$LN20@kvz_encode:
	mov	eax, DWORD PTR _scan_pos_sig$[ebp]
	cmp	eax, DWORD PTR _sub_pos$22[ebp]
	jl	$LN19@kvz_encode

; 169  :         blk_pos = scan[scan_pos_sig];

	mov	eax, DWORD PTR _scan_pos_sig$[ebp]
	mov	ecx, DWORD PTR _scan$[ebp]
	mov	edx, DWORD PTR [ecx+eax*4]
	mov	DWORD PTR _blk_pos$[ebp], edx

; 170  :         pos_y   = blk_pos >> log2_block_size;

	mov	eax, DWORD PTR _blk_pos$[ebp]
	mov	ecx, DWORD PTR _log2_block_size$[ebp]
	shr	eax, cl
	mov	DWORD PTR _pos_y$[ebp], eax

; 171  :         pos_x   = blk_pos - (pos_y << log2_block_size);

	mov	eax, DWORD PTR _pos_y$[ebp]
	mov	ecx, DWORD PTR _log2_block_size$[ebp]
	shl	eax, cl
	mov	ecx, DWORD PTR _blk_pos$[ebp]
	sub	ecx, eax
	mov	DWORD PTR _pos_x$[ebp], ecx

; 172  :         sig    = (coeff[blk_pos] != 0) ? 1 : 0;

	mov	eax, DWORD PTR _blk_pos$[ebp]
	mov	ecx, DWORD PTR _coeff$[ebp]
	movsx	edx, WORD PTR [ecx+eax*2]
	test	edx, edx
	je	SHORT $LN72@kvz_encode
	mov	DWORD PTR tv309[ebp], 1
	jmp	SHORT $LN73@kvz_encode
$LN72@kvz_encode:
	mov	DWORD PTR tv309[ebp], 0
$LN73@kvz_encode:
	mov	eax, DWORD PTR tv309[ebp]
	mov	DWORD PTR _sig$[ebp], eax

; 173  : 
; 174  :         if (scan_pos_sig > sub_pos || i == 0 || num_non_zero) {

	mov	eax, DWORD PTR _scan_pos_sig$[ebp]
	cmp	eax, DWORD PTR _sub_pos$22[ebp]
	jg	SHORT $LN36@kvz_encode
	cmp	DWORD PTR _i$[ebp], 0
	je	SHORT $LN36@kvz_encode
	cmp	DWORD PTR _num_non_zero$14[ebp], 0
	je	SHORT $LN35@kvz_encode
$LN36@kvz_encode:

; 175  :           ctx_sig  = kvz_context_get_sig_ctx_inc(pattern_sig_ctx, scan_mode, pos_x, pos_y,

	movzx	eax, BYTE PTR _type$[ebp]
	push	eax
	mov	ecx, DWORD PTR _log2_block_size$[ebp]
	push	ecx
	mov	edx, DWORD PTR _pos_y$[ebp]
	push	edx
	mov	eax, DWORD PTR _pos_x$[ebp]
	push	eax
	movsx	ecx, BYTE PTR _scan_mode$[ebp]
	push	ecx
	mov	edx, DWORD PTR _pattern_sig_ctx$11[ebp]
	push	edx
	call	_kvz_context_get_sig_ctx_inc
	add	esp, 24					; 00000018H
	mov	DWORD PTR _ctx_sig$[ebp], eax

; 176  :                                              log2_block_size, type);
; 177  :           cabac->cur_ctx = &baseCtx[ctx_sig];

	mov	eax, DWORD PTR _baseCtx$[ebp]
	add	eax, DWORD PTR _ctx_sig$[ebp]
	mov	ecx, DWORD PTR _cabac$[ebp]
	mov	DWORD PTR [ecx], eax

; 178  :           CABAC_BIN(cabac, sig, "sig_coeff_flag");

	mov	eax, DWORD PTR _sig$[ebp]
	push	eax
	mov	ecx, DWORD PTR _cabac$[ebp]
	push	ecx
	call	_kvz_cabac_encode_bin
	add	esp, 8
$LN35@kvz_encode:

; 179  :         }
; 180  : 
; 181  :         if (sig) {

	cmp	DWORD PTR _sig$[ebp], 0
	je	$LN37@kvz_encode

; 182  :           abs_coeff[num_non_zero] = abs(coeff[blk_pos]);

	mov	eax, DWORD PTR _blk_pos$[ebp]
	mov	ecx, DWORD PTR _coeff$[ebp]
	movsx	edx, WORD PTR [ecx+eax*2]
	push	edx
	call	_abs
	add	esp, 4
	mov	ecx, DWORD PTR _num_non_zero$14[ebp]
	mov	DWORD PTR _abs_coeff$21[ebp+ecx*4], eax

; 183  :           coeff_signs              = 2 * coeff_signs + (coeff[blk_pos] < 0);

	mov	eax, DWORD PTR _blk_pos$[ebp]
	mov	ecx, DWORD PTR _coeff$[ebp]
	movsx	edx, WORD PTR [ecx+eax*2]
	test	edx, edx
	jge	SHORT $LN74@kvz_encode
	mov	DWORD PTR tv339[ebp], 1
	jmp	SHORT $LN75@kvz_encode
$LN74@kvz_encode:
	mov	DWORD PTR tv339[ebp], 0
$LN75@kvz_encode:
	mov	eax, DWORD PTR _coeff_signs$17[ebp]
	mov	ecx, DWORD PTR tv339[ebp]
	lea	edx, DWORD PTR [ecx+eax*2]
	mov	DWORD PTR _coeff_signs$17[ebp], edx

; 184  :           num_non_zero++;

	mov	eax, DWORD PTR _num_non_zero$14[ebp]
	add	eax, 1
	mov	DWORD PTR _num_non_zero$14[ebp], eax

; 185  : 
; 186  :           if (last_nz_pos_in_cg == -1) {

	cmp	DWORD PTR _last_nz_pos_in_cg$16[ebp], -1
	jne	SHORT $LN38@kvz_encode

; 187  :             last_nz_pos_in_cg = scan_pos_sig;

	mov	eax, DWORD PTR _scan_pos_sig$[ebp]
	mov	DWORD PTR _last_nz_pos_in_cg$16[ebp], eax
$LN38@kvz_encode:

; 188  :           }
; 189  : 
; 190  :           first_nz_pos_in_cg  = scan_pos_sig;

	mov	eax, DWORD PTR _scan_pos_sig$[ebp]
	mov	DWORD PTR _first_nz_pos_in_cg$15[ebp], eax
$LN37@kvz_encode:

; 191  :         }
; 192  :       }

	jmp	$LN18@kvz_encode
$LN19@kvz_encode:

; 193  :     } else {

	jmp	SHORT $LN34@kvz_encode
$LN33@kvz_encode:

; 194  :       scan_pos_sig = sub_pos - 1;

	mov	eax, DWORD PTR _sub_pos$22[ebp]
	sub	eax, 1
	mov	DWORD PTR _scan_pos_sig$[ebp], eax
$LN34@kvz_encode:

; 195  :     }
; 196  : 
; 197  :     if (num_non_zero > 0) {

	cmp	DWORD PTR _num_non_zero$14[ebp], 0
	jle	$LN39@kvz_encode

; 198  :       bool sign_hidden = last_nz_pos_in_cg - first_nz_pos_in_cg >= 4 /* SBH_THRESHOLD */

	mov	eax, DWORD PTR _last_nz_pos_in_cg$16[ebp]
	sub	eax, DWORD PTR _first_nz_pos_in_cg$15[ebp]
	cmp	eax, 4
	jl	SHORT $LN76@kvz_encode
	mov	ecx, DWORD PTR _encoder$[ebp]
	cmp	DWORD PTR [ecx+2364], 0
	jne	SHORT $LN76@kvz_encode
	mov	DWORD PTR tv349[ebp], 1
	jmp	SHORT $LN77@kvz_encode
$LN76@kvz_encode:
	mov	DWORD PTR tv349[ebp], 0
$LN77@kvz_encode:
	cmp	DWORD PTR tv349[ebp], 0
	jne	SHORT $LN78@kvz_encode
	mov	DWORD PTR tv351[ebp], 0
	jmp	SHORT $LN79@kvz_encode
$LN78@kvz_encode:
	mov	DWORD PTR tv351[ebp], 1
$LN79@kvz_encode:
	mov	dl, BYTE PTR tv351[ebp]
	mov	BYTE PTR _sign_hidden$10[ebp], dl

; 199  :                          && !encoder->cfg.lossless;
; 200  :       uint32_t ctx_set  = (i > 0 && type == 0) ? 2 : 0;

	cmp	DWORD PTR _i$[ebp], 0
	jle	SHORT $LN80@kvz_encode
	movzx	eax, BYTE PTR _type$[ebp]
	test	eax, eax
	jne	SHORT $LN80@kvz_encode
	mov	DWORD PTR tv356[ebp], 2
	jmp	SHORT $LN81@kvz_encode
$LN80@kvz_encode:
	mov	DWORD PTR tv356[ebp], 0
$LN81@kvz_encode:
	mov	ecx, DWORD PTR tv356[ebp]
	mov	DWORD PTR _ctx_set$9[ebp], ecx

; 201  :       cabac_ctx_t *base_ctx_mod;
; 202  :       int32_t num_c1_flag, first_c2_flag_idx, idx, first_coeff2;
; 203  : 
; 204  :       if (c1 == 0) {

	cmp	DWORD PTR _c1$[ebp], 0
	jne	SHORT $LN40@kvz_encode

; 205  :         ctx_set++;

	mov	eax, DWORD PTR _ctx_set$9[ebp]
	add	eax, 1
	mov	DWORD PTR _ctx_set$9[ebp], eax
$LN40@kvz_encode:

; 206  :       }
; 207  : 
; 208  :       c1 = 1;

	mov	DWORD PTR _c1$[ebp], 1

; 209  : 
; 210  :       base_ctx_mod     = (type == 0) ? &(cabac->ctx.cu_one_model_luma[4 * ctx_set]) :

	movzx	eax, BYTE PTR _type$[ebp]
	test	eax, eax
	jne	SHORT $LN82@kvz_encode
	mov	ecx, DWORD PTR _ctx_set$9[ebp]
	mov	edx, DWORD PTR _cabac$[ebp]
	lea	eax, DWORD PTR [edx+ecx*4+170]
	mov	DWORD PTR tv369[ebp], eax
	jmp	SHORT $LN83@kvz_encode
$LN82@kvz_encode:
	mov	ecx, DWORD PTR _ctx_set$9[ebp]
	mov	edx, DWORD PTR _cabac$[ebp]
	lea	eax, DWORD PTR [edx+ecx*4+186]
	mov	DWORD PTR tv369[ebp], eax
$LN83@kvz_encode:
	mov	ecx, DWORD PTR tv369[ebp]
	mov	DWORD PTR _base_ctx_mod$8[ebp], ecx

; 211  :                          &(cabac->ctx.cu_one_model_chroma[4 * ctx_set]);
; 212  :       num_c1_flag      = MIN(num_non_zero, C1FLAG_NUMBER);

	cmp	DWORD PTR _num_non_zero$14[ebp], 8
	jge	SHORT $LN84@kvz_encode
	mov	eax, DWORD PTR _num_non_zero$14[ebp]
	mov	DWORD PTR tv371[ebp], eax
	jmp	SHORT $LN85@kvz_encode
$LN84@kvz_encode:
	mov	DWORD PTR tv371[ebp], 8
$LN85@kvz_encode:
	mov	ecx, DWORD PTR tv371[ebp]
	mov	DWORD PTR _num_c1_flag$7[ebp], ecx

; 213  :       first_c2_flag_idx = -1;

	mov	DWORD PTR _first_c2_flag_idx$6[ebp], -1

; 214  : 
; 215  :       for (idx = 0; idx < num_c1_flag; idx++) {

	mov	DWORD PTR _idx$5[ebp], 0
	jmp	SHORT $LN23@kvz_encode
$LN21@kvz_encode:
	mov	eax, DWORD PTR _idx$5[ebp]
	add	eax, 1
	mov	DWORD PTR _idx$5[ebp], eax
$LN23@kvz_encode:
	mov	eax, DWORD PTR _idx$5[ebp]
	cmp	eax, DWORD PTR _num_c1_flag$7[ebp]
	jge	$LN22@kvz_encode

; 216  :         uint32_t symbol = (abs_coeff[idx] > 1) ? 1 : 0;

	mov	eax, DWORD PTR _idx$5[ebp]
	cmp	DWORD PTR _abs_coeff$21[ebp+eax*4], 1
	jle	SHORT $LN86@kvz_encode
	mov	DWORD PTR tv377[ebp], 1
	jmp	SHORT $LN87@kvz_encode
$LN86@kvz_encode:
	mov	DWORD PTR tv377[ebp], 0
$LN87@kvz_encode:
	mov	ecx, DWORD PTR tv377[ebp]
	mov	DWORD PTR _symbol$3[ebp], ecx

; 217  :         cabac->cur_ctx = &base_ctx_mod[c1];

	mov	eax, DWORD PTR _base_ctx_mod$8[ebp]
	add	eax, DWORD PTR _c1$[ebp]
	mov	ecx, DWORD PTR _cabac$[ebp]
	mov	DWORD PTR [ecx], eax

; 218  :         CABAC_BIN(cabac, symbol, "coeff_abs_level_greater1_flag");

	mov	eax, DWORD PTR _symbol$3[ebp]
	push	eax
	mov	ecx, DWORD PTR _cabac$[ebp]
	push	ecx
	call	_kvz_cabac_encode_bin
	add	esp, 8

; 219  : 
; 220  :         if (symbol) {

	cmp	DWORD PTR _symbol$3[ebp], 0
	je	SHORT $LN41@kvz_encode

; 221  :           c1 = 0;

	mov	DWORD PTR _c1$[ebp], 0

; 222  : 
; 223  :           if (first_c2_flag_idx == -1) {

	cmp	DWORD PTR _first_c2_flag_idx$6[ebp], -1
	jne	SHORT $LN43@kvz_encode

; 224  :             first_c2_flag_idx = idx;

	mov	eax, DWORD PTR _idx$5[ebp]
	mov	DWORD PTR _first_c2_flag_idx$6[ebp], eax
$LN43@kvz_encode:

; 225  :           }

	jmp	SHORT $LN42@kvz_encode
$LN41@kvz_encode:

; 226  :         } else if ((c1 < 3) && (c1 > 0)) {

	cmp	DWORD PTR _c1$[ebp], 3
	jge	SHORT $LN42@kvz_encode
	cmp	DWORD PTR _c1$[ebp], 0
	jle	SHORT $LN42@kvz_encode

; 227  :           c1++;

	mov	eax, DWORD PTR _c1$[ebp]
	add	eax, 1
	mov	DWORD PTR _c1$[ebp], eax
$LN42@kvz_encode:

; 228  :         }
; 229  :       }

	jmp	$LN21@kvz_encode
$LN22@kvz_encode:

; 230  : 
; 231  :       if (c1 == 0) {

	cmp	DWORD PTR _c1$[ebp], 0
	jne	$LN45@kvz_encode

; 232  :         base_ctx_mod = (type == 0) ? &(cabac->ctx.cu_abs_model_luma[ctx_set]) :

	movzx	eax, BYTE PTR _type$[ebp]
	test	eax, eax
	jne	SHORT $LN88@kvz_encode
	mov	ecx, DWORD PTR _ctx_set$9[ebp]
	mov	edx, DWORD PTR _cabac$[ebp]
	lea	eax, DWORD PTR [edx+ecx+194]
	mov	DWORD PTR tv397[ebp], eax
	jmp	SHORT $LN89@kvz_encode
$LN88@kvz_encode:
	mov	ecx, DWORD PTR _ctx_set$9[ebp]
	mov	edx, DWORD PTR _cabac$[ebp]
	lea	eax, DWORD PTR [edx+ecx+198]
	mov	DWORD PTR tv397[ebp], eax
$LN89@kvz_encode:
	mov	ecx, DWORD PTR tv397[ebp]
	mov	DWORD PTR _base_ctx_mod$8[ebp], ecx

; 233  :                        &(cabac->ctx.cu_abs_model_chroma[ctx_set]);
; 234  : 
; 235  :         if (first_c2_flag_idx != -1) {

	cmp	DWORD PTR _first_c2_flag_idx$6[ebp], -1
	je	SHORT $LN45@kvz_encode

; 236  :           uint8_t symbol = (abs_coeff[first_c2_flag_idx] > 2) ? 1 : 0;

	mov	eax, DWORD PTR _first_c2_flag_idx$6[ebp]
	cmp	DWORD PTR _abs_coeff$21[ebp+eax*4], 2
	jle	SHORT $LN90@kvz_encode
	mov	DWORD PTR tv402[ebp], 1
	jmp	SHORT $LN91@kvz_encode
$LN90@kvz_encode:
	mov	DWORD PTR tv402[ebp], 0
$LN91@kvz_encode:
	mov	cl, BYTE PTR tv402[ebp]
	mov	BYTE PTR _symbol$2[ebp], cl

; 237  :           cabac->cur_ctx      = &base_ctx_mod[0];

	mov	eax, 1
	imul	ecx, eax, 0
	add	ecx, DWORD PTR _base_ctx_mod$8[ebp]
	mov	edx, DWORD PTR _cabac$[ebp]
	mov	DWORD PTR [edx], ecx

; 238  :           CABAC_BIN(cabac, symbol, "coeff_abs_level_greater2_flag");

	movzx	eax, BYTE PTR _symbol$2[ebp]
	push	eax
	mov	ecx, DWORD PTR _cabac$[ebp]
	push	ecx
	call	_kvz_cabac_encode_bin
	add	esp, 8
$LN45@kvz_encode:

; 239  :         }
; 240  :       }
; 241  :       if (be_valid && sign_hidden) {

	movsx	eax, BYTE PTR _be_valid$[ebp]
	test	eax, eax
	je	SHORT $LN47@kvz_encode
	movzx	eax, BYTE PTR _sign_hidden$10[ebp]
	test	eax, eax
	je	SHORT $LN47@kvz_encode

; 242  :         coeff_signs = coeff_signs >> 1;

	mov	eax, DWORD PTR _coeff_signs$17[ebp]
	shr	eax, 1
	mov	DWORD PTR _coeff_signs$17[ebp], eax

; 243  :         if (!cabac->only_count)

	mov	eax, DWORD PTR _cabac$[ebp]
	movsx	ecx, BYTE PTR [eax+24]
	test	ecx, ecx
	jne	SHORT $LN49@kvz_encode

; 244  :           if (encoder->cfg.crypto_features & KVZ_CRYPTO_TRANSF_COEFF_SIGNS) {

	mov	eax, DWORD PTR _encoder$[ebp]
	mov	ecx, DWORD PTR [eax+2348]
	and	ecx, 8
	je	SHORT $LN49@kvz_encode

; 245  :             coeff_signs = coeff_signs ^ kvz_crypto_get_key(state->crypto_hdl, num_non_zero-1);

	mov	eax, DWORD PTR _num_non_zero$14[ebp]
	sub	eax, 1
	push	eax
	mov	ecx, DWORD PTR _state$[ebp]
	mov	edx, DWORD PTR [ecx+280]
	push	edx
	call	_kvz_crypto_get_key
	add	esp, 8
	xor	eax, DWORD PTR _coeff_signs$17[ebp]
	mov	DWORD PTR _coeff_signs$17[ebp], eax
$LN49@kvz_encode:

; 246  :           }
; 247  :         CABAC_BINS_EP(cabac, coeff_signs , (num_non_zero - 1), "coeff_sign_flag");

	mov	eax, DWORD PTR _num_non_zero$14[ebp]
	sub	eax, 1
	push	eax
	mov	ecx, DWORD PTR _coeff_signs$17[ebp]
	push	ecx
	mov	edx, DWORD PTR _cabac$[ebp]
	push	edx
	call	_kvz_cabac_encode_bins_ep
	add	esp, 12					; 0000000cH

; 248  :       } else {

	jmp	SHORT $LN48@kvz_encode
$LN47@kvz_encode:

; 249  :         if (!cabac->only_count)

	mov	eax, DWORD PTR _cabac$[ebp]
	movsx	ecx, BYTE PTR [eax+24]
	test	ecx, ecx
	jne	SHORT $LN51@kvz_encode

; 250  :           if (encoder->cfg.crypto_features & KVZ_CRYPTO_TRANSF_COEFF_SIGNS)

	mov	eax, DWORD PTR _encoder$[ebp]
	mov	ecx, DWORD PTR [eax+2348]
	and	ecx, 8
	je	SHORT $LN51@kvz_encode

; 251  :             coeff_signs = coeff_signs ^ kvz_crypto_get_key(state->crypto_hdl, num_non_zero);

	mov	eax, DWORD PTR _num_non_zero$14[ebp]
	push	eax
	mov	ecx, DWORD PTR _state$[ebp]
	mov	edx, DWORD PTR [ecx+280]
	push	edx
	call	_kvz_crypto_get_key
	add	esp, 8
	xor	eax, DWORD PTR _coeff_signs$17[ebp]
	mov	DWORD PTR _coeff_signs$17[ebp], eax
$LN51@kvz_encode:

; 252  :         CABAC_BINS_EP(cabac, coeff_signs, num_non_zero, "coeff_sign_flag");

	mov	eax, DWORD PTR _num_non_zero$14[ebp]
	push	eax
	mov	ecx, DWORD PTR _coeff_signs$17[ebp]
	push	ecx
	mov	edx, DWORD PTR _cabac$[ebp]
	push	edx
	call	_kvz_cabac_encode_bins_ep
	add	esp, 12					; 0000000cH
$LN48@kvz_encode:

; 253  :       }
; 254  : 
; 255  :       if (c1 == 0 || num_non_zero > C1FLAG_NUMBER) {

	cmp	DWORD PTR _c1$[ebp], 0
	je	SHORT $LN54@kvz_encode
	cmp	DWORD PTR _num_non_zero$14[ebp], 8
	jle	$LN39@kvz_encode
$LN54@kvz_encode:

; 256  :         first_coeff2 = 1;

	mov	DWORD PTR _first_coeff2$4[ebp], 1

; 257  : 
; 258  :         for (idx = 0; idx < num_non_zero; idx++) {

	mov	DWORD PTR _idx$5[ebp], 0
	jmp	SHORT $LN26@kvz_encode
$LN24@kvz_encode:
	mov	eax, DWORD PTR _idx$5[ebp]
	add	eax, 1
	mov	DWORD PTR _idx$5[ebp], eax
$LN26@kvz_encode:
	mov	eax, DWORD PTR _idx$5[ebp]
	cmp	eax, DWORD PTR _num_non_zero$14[ebp]
	jge	$LN39@kvz_encode

; 259  :           int32_t base_level  = (idx < C1FLAG_NUMBER) ? (2 + first_coeff2) : 1;

	cmp	DWORD PTR _idx$5[ebp], 8
	jge	SHORT $LN92@kvz_encode
	mov	eax, DWORD PTR _first_coeff2$4[ebp]
	add	eax, 2
	mov	DWORD PTR tv451[ebp], eax
	jmp	SHORT $LN93@kvz_encode
$LN92@kvz_encode:
	mov	DWORD PTR tv451[ebp], 1
$LN93@kvz_encode:
	mov	ecx, DWORD PTR tv451[ebp]
	mov	DWORD PTR _base_level$1[ebp], ecx

; 260  : 
; 261  :           if (abs_coeff[idx] >= base_level) {

	mov	eax, DWORD PTR _idx$5[ebp]
	mov	ecx, DWORD PTR _abs_coeff$21[ebp+eax*4]
	cmp	ecx, DWORD PTR _base_level$1[ebp]
	jl	$LN55@kvz_encode

; 262  :             if (!cabac->only_count) {

	mov	eax, DWORD PTR _cabac$[ebp]
	movsx	ecx, BYTE PTR [eax+24]
	test	ecx, ecx
	jne	SHORT $LN56@kvz_encode

; 263  :               if (encoder->cfg.crypto_features & KVZ_CRYPTO_TRANSF_COEFFS)

	mov	eax, DWORD PTR _encoder$[ebp]
	mov	ecx, DWORD PTR [eax+2348]
	and	ecx, 4
	je	SHORT $LN58@kvz_encode

; 264  :                 kvz_cabac_write_coeff_remain_encry(state, cabac, abs_coeff[idx] - base_level, go_rice_param, base_level);

	mov	eax, DWORD PTR _base_level$1[ebp]
	push	eax
	mov	ecx, DWORD PTR _go_rice_param$[ebp]
	push	ecx
	mov	edx, DWORD PTR _idx$5[ebp]
	mov	eax, DWORD PTR _abs_coeff$21[ebp+edx*4]
	sub	eax, DWORD PTR _base_level$1[ebp]
	push	eax
	mov	ecx, DWORD PTR _cabac$[ebp]
	push	ecx
	mov	edx, DWORD PTR _state$[ebp]
	push	edx
	call	_kvz_cabac_write_coeff_remain_encry
	add	esp, 20					; 00000014H
	jmp	SHORT $LN59@kvz_encode
$LN58@kvz_encode:

; 265  :               else
; 266  :                 kvz_cabac_write_coeff_remain(cabac, abs_coeff[idx] - base_level, go_rice_param);

	mov	eax, DWORD PTR _go_rice_param$[ebp]
	push	eax
	mov	ecx, DWORD PTR _idx$5[ebp]
	mov	edx, DWORD PTR _abs_coeff$21[ebp+ecx*4]
	sub	edx, DWORD PTR _base_level$1[ebp]
	push	edx
	mov	eax, DWORD PTR _cabac$[ebp]
	push	eax
	call	_kvz_cabac_write_coeff_remain
	add	esp, 12					; 0000000cH
$LN59@kvz_encode:

; 267  :             } else

	jmp	SHORT $LN57@kvz_encode
$LN56@kvz_encode:

; 268  :               kvz_cabac_write_coeff_remain(cabac, abs_coeff[idx] - base_level, go_rice_param);

	mov	eax, DWORD PTR _go_rice_param$[ebp]
	push	eax
	mov	ecx, DWORD PTR _idx$5[ebp]
	mov	edx, DWORD PTR _abs_coeff$21[ebp+ecx*4]
	sub	edx, DWORD PTR _base_level$1[ebp]
	push	edx
	mov	eax, DWORD PTR _cabac$[ebp]
	push	eax
	call	_kvz_cabac_write_coeff_remain
	add	esp, 12					; 0000000cH
$LN57@kvz_encode:

; 269  : 
; 270  :             if (abs_coeff[idx] > 3 * (1 << go_rice_param)) {

	mov	eax, 1
	mov	ecx, DWORD PTR _go_rice_param$[ebp]
	shl	eax, cl
	imul	ecx, eax, 3
	mov	edx, DWORD PTR _idx$5[ebp]
	cmp	DWORD PTR _abs_coeff$21[ebp+edx*4], ecx
	jle	SHORT $LN55@kvz_encode

; 271  :               go_rice_param = MIN(go_rice_param + 1, 4);

	mov	eax, DWORD PTR _go_rice_param$[ebp]
	add	eax, 1
	cmp	eax, 4
	jae	SHORT $LN94@kvz_encode
	mov	ecx, DWORD PTR _go_rice_param$[ebp]
	add	ecx, 1
	mov	DWORD PTR tv489[ebp], ecx
	jmp	SHORT $LN95@kvz_encode
$LN94@kvz_encode:
	mov	DWORD PTR tv489[ebp], 4
$LN95@kvz_encode:
	mov	edx, DWORD PTR tv489[ebp]
	mov	DWORD PTR _go_rice_param$[ebp], edx
$LN55@kvz_encode:

; 272  :             }
; 273  :           }
; 274  : 
; 275  :           if (abs_coeff[idx] >= 2) {

	mov	eax, DWORD PTR _idx$5[ebp]
	cmp	DWORD PTR _abs_coeff$21[ebp+eax*4], 2
	jl	SHORT $LN61@kvz_encode

; 276  :             first_coeff2 = 0;

	mov	DWORD PTR _first_coeff2$4[ebp], 0
$LN61@kvz_encode:

; 277  :           }
; 278  :         }

	jmp	$LN24@kvz_encode
$LN39@kvz_encode:

; 279  :       }
; 280  :     }
; 281  :   }

	jmp	$LN15@kvz_encode
$LN1@kvz_encode:

; 282  : }

	push	edx
	mov	ecx, ebp
	push	eax
	lea	edx, DWORD PTR $LN99@kvz_encode
	call	@_RTC_CheckStackVars@8
	pop	eax
	pop	edx
	pop	edi
	pop	esi
	pop	ebx
	mov	ecx, DWORD PTR __$ArrayPad$[ebp]
	xor	ecx, ebp
	call	@__security_check_cookie@4
	add	esp, 1360				; 00000550H
	cmp	ebp, esp
	call	__RTC_CheckEsp
	mov	esp, ebp
	pop	ebp
	ret	0
$LN99@kvz_encode:
	DD	2
	DD	$LN98@kvz_encode
$LN98@kvz_encode:
	DD	-324					; fffffebcH
	DD	256					; 00000100H
	DD	$LN96@kvz_encode
	DD	-724					; fffffd2cH
	DD	64					; 00000040H
	DD	$LN97@kvz_encode
$LN97@kvz_encode:
	DB	97					; 00000061H
	DB	98					; 00000062H
	DB	115					; 00000073H
	DB	95					; 0000005fH
	DB	99					; 00000063H
	DB	111					; 0000006fH
	DB	101					; 00000065H
	DB	102					; 00000066H
	DB	102					; 00000066H
	DB	0
$LN96@kvz_encode:
	DB	115					; 00000073H
	DB	105					; 00000069H
	DB	103					; 00000067H
	DB	95					; 0000005fH
	DB	99					; 00000063H
	DB	111					; 0000006fH
	DB	101					; 00000065H
	DB	102					; 00000066H
	DB	102					; 00000066H
	DB	103					; 00000067H
	DB	114					; 00000072H
	DB	111					; 0000006fH
	DB	117					; 00000075H
	DB	112					; 00000070H
	DB	95					; 0000005fH
	DB	102					; 00000066H
	DB	108					; 0000006cH
	DB	97					; 00000061H
	DB	103					; 00000067H
	DB	0
_kvz_encode_coeff_nxn_generic ENDP
_TEXT	ENDS
; Function compile flags: /Odtp /RTCsu /ZI
; File F:\open_codec_learn_2021\kvazaar-master\src\extras\crypto.h
;	COMDAT _kvz_crypto_get_key
_TEXT	SEGMENT
_hdl$ = 8						; size = 4
_num_bits$ = 12						; size = 4
_kvz_crypto_get_key PROC				; COMDAT

; 65   : {

	push	ebp
	mov	ebp, esp
	sub	esp, 192				; 000000c0H
	push	ebx
	push	esi
	push	edi
	lea	edi, DWORD PTR [ebp-192]
	mov	ecx, 48					; 00000030H
	mov	eax, -858993460				; ccccccccH
	rep stosd
	mov	ecx, OFFSET __546CF5FC_crypto@h
	call	@__CheckForDebuggerJustMyCode@4

; 66   :   return 0;

	xor	eax, eax

; 67   : }

	pop	edi
	pop	esi
	pop	ebx
	add	esp, 192				; 000000c0H
	cmp	ebp, esp
	call	__RTC_CheckEsp
	mov	esp, ebp
	pop	ebp
	ret	0
_kvz_crypto_get_key ENDP
_TEXT	ENDS
END
