; Listing generated by Microsoft (R) Optimizing Compiler Version 19.26.28806.0 

	TITLE	F:\open_codec_learn_2021\kvazaar-master\src\strategies\avx2\picture-avx2.c
	.686P
	.XMM
	include listing.inc
	.model	flat

INCLUDELIB MSVCRTD
INCLUDELIB OLDNAMES

PUBLIC	??_C@_0P@FIMIKDEG@array_checksum@		; `string'
PUBLIC	??_C@_09INHMEIKP@array_md5@			; `string'
PUBLIC	??_C@_07DDJKLCAH@reg_sad@			; `string'
PUBLIC	??_C@_07CCGEEBAL@sad_4x4@			; `string'
PUBLIC	??_C@_07MEAHLBLP@sad_8x8@			; `string'
PUBLIC	??_C@_09CIFGAEGF@sad_16x16@			; `string'
PUBLIC	??_C@_09PHPGBCME@sad_32x32@			; `string'
PUBLIC	??_C@_09HIOKBDLK@sad_64x64@			; `string'
PUBLIC	??_C@_08GDBJPAOD@satd_4x4@			; `string'
PUBLIC	??_C@_08IFHKAAFH@satd_8x8@			; `string'
PUBLIC	??_C@_0L@CJHLPOG@satd_16x16@			; `string'
PUBLIC	??_C@_0L@NNDHKJEH@satd_32x32@			; `string'
PUBLIC	??_C@_0L@FCCLKIDJ@satd_64x64@			; `string'
PUBLIC	??_C@_0O@FHJAMJMP@satd_any_size@		; `string'
PUBLIC	??_C@_0N@PBMCJFCI@sad_4x4_dual@			; `string'
PUBLIC	??_C@_0N@NAFGAMEI@sad_8x8_dual@			; `string'
PUBLIC	??_C@_0P@KGAKCNHP@sad_16x16_dual@		; `string'
PUBLIC	??_C@_0P@EBOHBHKK@sad_32x32_dual@		; `string'
PUBLIC	??_C@_0P@BGJOPAPB@sad_64x64_dual@		; `string'
PUBLIC	??_C@_0O@PJODLFIO@satd_4x4_dual@		; `string'
PUBLIC	??_C@_0O@NIHHCMOO@satd_8x8_dual@		; `string'
PUBLIC	??_C@_0BA@GFDJBOPJ@satd_16x16_dual@		; `string'
PUBLIC	??_C@_0BA@ICNECECM@satd_32x32_dual@		; `string'
PUBLIC	??_C@_0BA@NFKNMDHH@satd_64x64_dual@		; `string'
PUBLIC	??_C@_0BD@EFOGIBKC@satd_any_size_quad@		; `string'
PUBLIC	??_C@_0BA@BPDFDAFM@pixels_calc_ssd@		; `string'
PUBLIC	??_C@_0P@FIKELBGI@bipred_average@		; `string'
PUBLIC	??_C@_0BC@IMILIHON@get_optimized_sad@		; `string'
PUBLIC	??_C@_07OEMLCPNF@ver_sad@			; `string'
PUBLIC	??_C@_07CJIKFDIC@hor_sad@			; `string'
PUBLIC	??_C@_09GDPKBOJB@pixel_var@			; `string'
PUBLIC	??_C@_0BF@BJKPGPEP@fast_forward_dst_4x4@	; `string'
PUBLIC	??_C@_07MAFDGKIL@dct_4x4@			; `string'
PUBLIC	??_C@_07CGDAJKDP@dct_8x8@			; `string'
PUBLIC	??_C@_09LPGJIHFJ@dct_16x16@			; `string'
PUBLIC	??_C@_09GAMJJBPI@dct_32x32@			; `string'
PUBLIC	??_C@_0BF@LGIDMEOF@fast_inverse_dst_4x4@	; `string'
PUBLIC	??_C@_08LDLIJGLD@idct_4x4@			; `string'
PUBLIC	??_C@_08FFNLGGAH@idct_8x8@			; `string'
PUBLIC	??_C@_0L@BMPNPGHO@idct_16x16@			; `string'
PUBLIC	??_C@_0L@MDFNOANP@idct_32x32@			; `string'
PUBLIC	??_C@_0CA@KBMGLOML@filter_hpel_blocks_hor_ver_luma@ ; `string'
PUBLIC	??_C@_0BN@LGIFMJCD@filter_hpel_blocks_diag_luma@ ; `string'
PUBLIC	??_C@_0CA@HAFBJKBM@filter_qpel_blocks_hor_ver_luma@ ; `string'
PUBLIC	??_C@_0BN@LBBJMBKC@filter_qpel_blocks_diag_luma@ ; `string'
PUBLIC	??_C@_0BH@DGLFPIPB@sample_quarterpel_luma@	; `string'
PUBLIC	??_C@_0BF@HOLGGLNK@sample_octpel_chroma@	; `string'
PUBLIC	??_C@_0BK@LCPNGAOF@sample_quarterpel_luma_hi@	; `string'
PUBLIC	??_C@_0BI@EFIAEBMP@sample_octpel_chroma_hi@	; `string'
PUBLIC	??_C@_0BD@MPANGNDO@get_extended_block@		; `string'
PUBLIC	??_C@_05DFPBCFDJ@quant@				; `string'
PUBLIC	??_C@_0BC@MPMPMGJB@quantize_residual@		; `string'
PUBLIC	??_C@_07GMDOJGPA@dequant@			; `string'
PUBLIC	??_C@_0O@ECIHPEON@coeff_abs_sum@		; `string'
PUBLIC	??_C@_0BA@HMNKAKOO@fast_coeff_cost@		; `string'
PUBLIC	??_C@_0N@NMFCEONC@angular_pred@			; `string'
PUBLIC	??_C@_0BC@KPOCLILL@intra_pred_planar@		; `string'
PUBLIC	??_C@_0BH@EAOLFJGL@intra_pred_filtered_dc@	; `string'
PUBLIC	??_C@_0BF@LGILOHOJ@sao_edge_ddistortion@	; `string'
PUBLIC	??_C@_0BC@OCNKGNNI@calc_sao_edge_dir@		; `string'
PUBLIC	??_C@_0BG@IJPOOFFG@sao_reconstruct_color@	; `string'
PUBLIC	??_C@_0BF@HDNLAKN@sao_band_ddistortion@		; `string'
PUBLIC	??_C@_0BB@GDIDDFDB@encode_coeff_nxn@		; `string'
EXTRN	_kvz_reg_sad:DWORD
EXTRN	_kvz_sad_4x4:DWORD
EXTRN	_kvz_sad_8x8:DWORD
EXTRN	_kvz_sad_16x16:DWORD
EXTRN	_kvz_sad_32x32:DWORD
EXTRN	_kvz_sad_64x64:DWORD
EXTRN	_kvz_satd_4x4:DWORD
EXTRN	_kvz_satd_8x8:DWORD
EXTRN	_kvz_satd_16x16:DWORD
EXTRN	_kvz_satd_32x32:DWORD
EXTRN	_kvz_satd_64x64:DWORD
EXTRN	_kvz_satd_any_size:DWORD
EXTRN	_kvz_sad_4x4_dual:DWORD
EXTRN	_kvz_sad_8x8_dual:DWORD
EXTRN	_kvz_sad_16x16_dual:DWORD
EXTRN	_kvz_sad_32x32_dual:DWORD
EXTRN	_kvz_sad_64x64_dual:DWORD
EXTRN	_kvz_satd_4x4_dual:DWORD
EXTRN	_kvz_satd_8x8_dual:DWORD
EXTRN	_kvz_satd_16x16_dual:DWORD
EXTRN	_kvz_satd_32x32_dual:DWORD
EXTRN	_kvz_satd_64x64_dual:DWORD
EXTRN	_kvz_satd_any_size_quad:DWORD
EXTRN	_kvz_pixels_calc_ssd:DWORD
EXTRN	_kvz_bipred_average:DWORD
EXTRN	_kvz_get_optimized_sad:DWORD
EXTRN	_kvz_ver_sad:DWORD
EXTRN	_kvz_hor_sad:DWORD
EXTRN	_kvz_pixel_var:DWORD
EXTRN	_kvz_array_checksum:DWORD
EXTRN	_kvz_array_md5:DWORD
EXTRN	_kvz_fast_forward_dst_4x4:DWORD
EXTRN	_kvz_dct_4x4:DWORD
EXTRN	_kvz_dct_8x8:DWORD
EXTRN	_kvz_dct_16x16:DWORD
EXTRN	_kvz_dct_32x32:DWORD
EXTRN	_kvz_fast_inverse_dst_4x4:DWORD
EXTRN	_kvz_idct_4x4:DWORD
EXTRN	_kvz_idct_8x8:DWORD
EXTRN	_kvz_idct_16x16:DWORD
EXTRN	_kvz_idct_32x32:DWORD
EXTRN	_kvz_filter_hpel_blocks_hor_ver_luma:DWORD
EXTRN	_kvz_filter_hpel_blocks_diag_luma:DWORD
EXTRN	_kvz_filter_qpel_blocks_hor_ver_luma:DWORD
EXTRN	_kvz_filter_qpel_blocks_diag_luma:DWORD
EXTRN	_kvz_get_extended_block:DWORD
EXTRN	_kvz_sample_quarterpel_luma:DWORD
EXTRN	_kvz_sample_octpel_chroma:DWORD
EXTRN	_kvz_sample_quarterpel_luma_hi:DWORD
EXTRN	_kvz_sample_octpel_chroma_hi:DWORD
EXTRN	_kvz_quant:DWORD
EXTRN	_kvz_quantize_residual:DWORD
EXTRN	_kvz_dequant:DWORD
EXTRN	_kvz_coeff_abs_sum:DWORD
EXTRN	_kvz_fast_coeff_cost:DWORD
EXTRN	_kvz_angular_pred:DWORD
EXTRN	_kvz_intra_pred_planar:DWORD
EXTRN	_kvz_intra_pred_filtered_dc:DWORD
EXTRN	_kvz_sao_edge_ddistortion:DWORD
EXTRN	_kvz_calc_sao_edge_dir:DWORD
EXTRN	_kvz_sao_reconstruct_color:DWORD
EXTRN	_kvz_sao_band_ddistortion:DWORD
EXTRN	_kvz_encode_coeff_nxn:DWORD
msvcjmc	SEGMENT
__ED9CC025_corecrt_memcpy_s@h DB 01H
__875914C9_corecrt_wstring@h DB 01H
__731387C4_string@h DB 01H
__1850469A_corecrt_stdio_config@h DB 01H
__01D10305_corecrt_wstdio@h DB 01H
__9FF75F13_stdio@h DB 01H
__614D3496_malloc@h DB 01H
__4DF1518D_xmmintrin@h DB 01H
__9CB4F737_reg_sad_pow2_widths-sse41@h DB 01H
__1E5A298B_reg_sad_pow2_widths-avx2@h DB 01H
__6C65A336_cu@h DB 01H
__E2865EBA_corecrt_math@h DB 01H
__546CF5FC_crypto@h DB 01H
__6BE1C69C_encoderstate@h DB 01H
__5DE43F84_picture-avx2@c DB 01H
msvcjmc	ENDS
;	COMDAT ??_C@_0BB@GDIDDFDB@encode_coeff_nxn@
CONST	SEGMENT
??_C@_0BB@GDIDDFDB@encode_coeff_nxn@ DB 'encode_coeff_nxn', 00H ; `string'
CONST	ENDS
;	COMDAT ??_C@_0BF@HDNLAKN@sao_band_ddistortion@
CONST	SEGMENT
??_C@_0BF@HDNLAKN@sao_band_ddistortion@ DB 'sao_band_ddistortion', 00H ; `string'
CONST	ENDS
;	COMDAT ??_C@_0BG@IJPOOFFG@sao_reconstruct_color@
CONST	SEGMENT
??_C@_0BG@IJPOOFFG@sao_reconstruct_color@ DB 'sao_reconstruct_color', 00H ; `string'
CONST	ENDS
;	COMDAT ??_C@_0BC@OCNKGNNI@calc_sao_edge_dir@
CONST	SEGMENT
??_C@_0BC@OCNKGNNI@calc_sao_edge_dir@ DB 'calc_sao_edge_dir', 00H ; `string'
CONST	ENDS
;	COMDAT ??_C@_0BF@LGILOHOJ@sao_edge_ddistortion@
CONST	SEGMENT
??_C@_0BF@LGILOHOJ@sao_edge_ddistortion@ DB 'sao_edge_ddistortion', 00H ; `string'
CONST	ENDS
;	COMDAT ??_C@_0BH@EAOLFJGL@intra_pred_filtered_dc@
CONST	SEGMENT
??_C@_0BH@EAOLFJGL@intra_pred_filtered_dc@ DB 'intra_pred_filtered_dc', 00H ; `string'
CONST	ENDS
;	COMDAT ??_C@_0BC@KPOCLILL@intra_pred_planar@
CONST	SEGMENT
??_C@_0BC@KPOCLILL@intra_pred_planar@ DB 'intra_pred_planar', 00H ; `string'
CONST	ENDS
;	COMDAT ??_C@_0N@NMFCEONC@angular_pred@
CONST	SEGMENT
??_C@_0N@NMFCEONC@angular_pred@ DB 'angular_pred', 00H	; `string'
CONST	ENDS
;	COMDAT ??_C@_0BA@HMNKAKOO@fast_coeff_cost@
CONST	SEGMENT
??_C@_0BA@HMNKAKOO@fast_coeff_cost@ DB 'fast_coeff_cost', 00H ; `string'
CONST	ENDS
;	COMDAT ??_C@_0O@ECIHPEON@coeff_abs_sum@
CONST	SEGMENT
??_C@_0O@ECIHPEON@coeff_abs_sum@ DB 'coeff_abs_sum', 00H ; `string'
CONST	ENDS
;	COMDAT ??_C@_07GMDOJGPA@dequant@
CONST	SEGMENT
??_C@_07GMDOJGPA@dequant@ DB 'dequant', 00H		; `string'
CONST	ENDS
;	COMDAT ??_C@_0BC@MPMPMGJB@quantize_residual@
CONST	SEGMENT
??_C@_0BC@MPMPMGJB@quantize_residual@ DB 'quantize_residual', 00H ; `string'
CONST	ENDS
;	COMDAT ??_C@_05DFPBCFDJ@quant@
CONST	SEGMENT
??_C@_05DFPBCFDJ@quant@ DB 'quant', 00H			; `string'
CONST	ENDS
;	COMDAT ??_C@_0BD@MPANGNDO@get_extended_block@
CONST	SEGMENT
??_C@_0BD@MPANGNDO@get_extended_block@ DB 'get_extended_block', 00H ; `string'
CONST	ENDS
;	COMDAT ??_C@_0BI@EFIAEBMP@sample_octpel_chroma_hi@
CONST	SEGMENT
??_C@_0BI@EFIAEBMP@sample_octpel_chroma_hi@ DB 'sample_octpel_chroma_hi', 00H ; `string'
CONST	ENDS
;	COMDAT ??_C@_0BK@LCPNGAOF@sample_quarterpel_luma_hi@
CONST	SEGMENT
??_C@_0BK@LCPNGAOF@sample_quarterpel_luma_hi@ DB 'sample_quarterpel_luma_'
	DB	'hi', 00H					; `string'
CONST	ENDS
;	COMDAT ??_C@_0BF@HOLGGLNK@sample_octpel_chroma@
CONST	SEGMENT
??_C@_0BF@HOLGGLNK@sample_octpel_chroma@ DB 'sample_octpel_chroma', 00H ; `string'
CONST	ENDS
;	COMDAT ??_C@_0BH@DGLFPIPB@sample_quarterpel_luma@
CONST	SEGMENT
??_C@_0BH@DGLFPIPB@sample_quarterpel_luma@ DB 'sample_quarterpel_luma', 00H ; `string'
CONST	ENDS
;	COMDAT ??_C@_0BN@LBBJMBKC@filter_qpel_blocks_diag_luma@
CONST	SEGMENT
??_C@_0BN@LBBJMBKC@filter_qpel_blocks_diag_luma@ DB 'filter_qpel_blocks_d'
	DB	'iag_luma', 00H				; `string'
CONST	ENDS
;	COMDAT ??_C@_0CA@HAFBJKBM@filter_qpel_blocks_hor_ver_luma@
CONST	SEGMENT
??_C@_0CA@HAFBJKBM@filter_qpel_blocks_hor_ver_luma@ DB 'filter_qpel_block'
	DB	's_hor_ver_luma', 00H			; `string'
CONST	ENDS
;	COMDAT ??_C@_0BN@LGIFMJCD@filter_hpel_blocks_diag_luma@
CONST	SEGMENT
??_C@_0BN@LGIFMJCD@filter_hpel_blocks_diag_luma@ DB 'filter_hpel_blocks_d'
	DB	'iag_luma', 00H				; `string'
CONST	ENDS
;	COMDAT ??_C@_0CA@KBMGLOML@filter_hpel_blocks_hor_ver_luma@
CONST	SEGMENT
??_C@_0CA@KBMGLOML@filter_hpel_blocks_hor_ver_luma@ DB 'filter_hpel_block'
	DB	's_hor_ver_luma', 00H			; `string'
CONST	ENDS
;	COMDAT ??_C@_0L@MDFNOANP@idct_32x32@
CONST	SEGMENT
??_C@_0L@MDFNOANP@idct_32x32@ DB 'idct_32x32', 00H	; `string'
CONST	ENDS
;	COMDAT ??_C@_0L@BMPNPGHO@idct_16x16@
CONST	SEGMENT
??_C@_0L@BMPNPGHO@idct_16x16@ DB 'idct_16x16', 00H	; `string'
CONST	ENDS
;	COMDAT ??_C@_08FFNLGGAH@idct_8x8@
CONST	SEGMENT
??_C@_08FFNLGGAH@idct_8x8@ DB 'idct_8x8', 00H		; `string'
CONST	ENDS
;	COMDAT ??_C@_08LDLIJGLD@idct_4x4@
CONST	SEGMENT
??_C@_08LDLIJGLD@idct_4x4@ DB 'idct_4x4', 00H		; `string'
CONST	ENDS
;	COMDAT ??_C@_0BF@LGIDMEOF@fast_inverse_dst_4x4@
CONST	SEGMENT
??_C@_0BF@LGIDMEOF@fast_inverse_dst_4x4@ DB 'fast_inverse_dst_4x4', 00H ; `string'
CONST	ENDS
;	COMDAT ??_C@_09GAMJJBPI@dct_32x32@
CONST	SEGMENT
??_C@_09GAMJJBPI@dct_32x32@ DB 'dct_32x32', 00H		; `string'
CONST	ENDS
;	COMDAT ??_C@_09LPGJIHFJ@dct_16x16@
CONST	SEGMENT
??_C@_09LPGJIHFJ@dct_16x16@ DB 'dct_16x16', 00H		; `string'
CONST	ENDS
;	COMDAT ??_C@_07CGDAJKDP@dct_8x8@
CONST	SEGMENT
??_C@_07CGDAJKDP@dct_8x8@ DB 'dct_8x8', 00H		; `string'
CONST	ENDS
;	COMDAT ??_C@_07MAFDGKIL@dct_4x4@
CONST	SEGMENT
??_C@_07MAFDGKIL@dct_4x4@ DB 'dct_4x4', 00H		; `string'
CONST	ENDS
;	COMDAT ??_C@_0BF@BJKPGPEP@fast_forward_dst_4x4@
CONST	SEGMENT
??_C@_0BF@BJKPGPEP@fast_forward_dst_4x4@ DB 'fast_forward_dst_4x4', 00H ; `string'
CONST	ENDS
;	COMDAT ??_C@_09GDPKBOJB@pixel_var@
CONST	SEGMENT
??_C@_09GDPKBOJB@pixel_var@ DB 'pixel_var', 00H		; `string'
CONST	ENDS
;	COMDAT ??_C@_07CJIKFDIC@hor_sad@
CONST	SEGMENT
??_C@_07CJIKFDIC@hor_sad@ DB 'hor_sad', 00H		; `string'
CONST	ENDS
;	COMDAT ??_C@_07OEMLCPNF@ver_sad@
CONST	SEGMENT
??_C@_07OEMLCPNF@ver_sad@ DB 'ver_sad', 00H		; `string'
CONST	ENDS
;	COMDAT ??_C@_0BC@IMILIHON@get_optimized_sad@
CONST	SEGMENT
??_C@_0BC@IMILIHON@get_optimized_sad@ DB 'get_optimized_sad', 00H ; `string'
CONST	ENDS
;	COMDAT ??_C@_0P@FIKELBGI@bipred_average@
CONST	SEGMENT
??_C@_0P@FIKELBGI@bipred_average@ DB 'bipred_average', 00H ; `string'
CONST	ENDS
;	COMDAT ??_C@_0BA@BPDFDAFM@pixels_calc_ssd@
CONST	SEGMENT
??_C@_0BA@BPDFDAFM@pixels_calc_ssd@ DB 'pixels_calc_ssd', 00H ; `string'
CONST	ENDS
;	COMDAT ??_C@_0BD@EFOGIBKC@satd_any_size_quad@
CONST	SEGMENT
??_C@_0BD@EFOGIBKC@satd_any_size_quad@ DB 'satd_any_size_quad', 00H ; `string'
CONST	ENDS
;	COMDAT ??_C@_0BA@NFKNMDHH@satd_64x64_dual@
CONST	SEGMENT
??_C@_0BA@NFKNMDHH@satd_64x64_dual@ DB 'satd_64x64_dual', 00H ; `string'
CONST	ENDS
;	COMDAT ??_C@_0BA@ICNECECM@satd_32x32_dual@
CONST	SEGMENT
??_C@_0BA@ICNECECM@satd_32x32_dual@ DB 'satd_32x32_dual', 00H ; `string'
CONST	ENDS
;	COMDAT ??_C@_0BA@GFDJBOPJ@satd_16x16_dual@
CONST	SEGMENT
??_C@_0BA@GFDJBOPJ@satd_16x16_dual@ DB 'satd_16x16_dual', 00H ; `string'
CONST	ENDS
;	COMDAT ??_C@_0O@NIHHCMOO@satd_8x8_dual@
CONST	SEGMENT
??_C@_0O@NIHHCMOO@satd_8x8_dual@ DB 'satd_8x8_dual', 00H ; `string'
CONST	ENDS
;	COMDAT ??_C@_0O@PJODLFIO@satd_4x4_dual@
CONST	SEGMENT
??_C@_0O@PJODLFIO@satd_4x4_dual@ DB 'satd_4x4_dual', 00H ; `string'
CONST	ENDS
;	COMDAT ??_C@_0P@BGJOPAPB@sad_64x64_dual@
CONST	SEGMENT
??_C@_0P@BGJOPAPB@sad_64x64_dual@ DB 'sad_64x64_dual', 00H ; `string'
CONST	ENDS
;	COMDAT ??_C@_0P@EBOHBHKK@sad_32x32_dual@
CONST	SEGMENT
??_C@_0P@EBOHBHKK@sad_32x32_dual@ DB 'sad_32x32_dual', 00H ; `string'
CONST	ENDS
;	COMDAT ??_C@_0P@KGAKCNHP@sad_16x16_dual@
CONST	SEGMENT
??_C@_0P@KGAKCNHP@sad_16x16_dual@ DB 'sad_16x16_dual', 00H ; `string'
CONST	ENDS
;	COMDAT ??_C@_0N@NAFGAMEI@sad_8x8_dual@
CONST	SEGMENT
??_C@_0N@NAFGAMEI@sad_8x8_dual@ DB 'sad_8x8_dual', 00H	; `string'
CONST	ENDS
;	COMDAT ??_C@_0N@PBMCJFCI@sad_4x4_dual@
CONST	SEGMENT
??_C@_0N@PBMCJFCI@sad_4x4_dual@ DB 'sad_4x4_dual', 00H	; `string'
CONST	ENDS
;	COMDAT ??_C@_0O@FHJAMJMP@satd_any_size@
CONST	SEGMENT
??_C@_0O@FHJAMJMP@satd_any_size@ DB 'satd_any_size', 00H ; `string'
CONST	ENDS
;	COMDAT ??_C@_0L@FCCLKIDJ@satd_64x64@
CONST	SEGMENT
??_C@_0L@FCCLKIDJ@satd_64x64@ DB 'satd_64x64', 00H	; `string'
CONST	ENDS
;	COMDAT ??_C@_0L@NNDHKJEH@satd_32x32@
CONST	SEGMENT
??_C@_0L@NNDHKJEH@satd_32x32@ DB 'satd_32x32', 00H	; `string'
CONST	ENDS
;	COMDAT ??_C@_0L@CJHLPOG@satd_16x16@
CONST	SEGMENT
??_C@_0L@CJHLPOG@satd_16x16@ DB 'satd_16x16', 00H	; `string'
CONST	ENDS
;	COMDAT ??_C@_08IFHKAAFH@satd_8x8@
CONST	SEGMENT
??_C@_08IFHKAAFH@satd_8x8@ DB 'satd_8x8', 00H		; `string'
CONST	ENDS
;	COMDAT ??_C@_08GDBJPAOD@satd_4x4@
CONST	SEGMENT
??_C@_08GDBJPAOD@satd_4x4@ DB 'satd_4x4', 00H		; `string'
CONST	ENDS
;	COMDAT ??_C@_09HIOKBDLK@sad_64x64@
CONST	SEGMENT
??_C@_09HIOKBDLK@sad_64x64@ DB 'sad_64x64', 00H		; `string'
CONST	ENDS
;	COMDAT ??_C@_09PHPGBCME@sad_32x32@
CONST	SEGMENT
??_C@_09PHPGBCME@sad_32x32@ DB 'sad_32x32', 00H		; `string'
CONST	ENDS
;	COMDAT ??_C@_09CIFGAEGF@sad_16x16@
CONST	SEGMENT
??_C@_09CIFGAEGF@sad_16x16@ DB 'sad_16x16', 00H		; `string'
CONST	ENDS
;	COMDAT ??_C@_07MEAHLBLP@sad_8x8@
CONST	SEGMENT
??_C@_07MEAHLBLP@sad_8x8@ DB 'sad_8x8', 00H		; `string'
CONST	ENDS
;	COMDAT ??_C@_07CCGEEBAL@sad_4x4@
CONST	SEGMENT
??_C@_07CCGEEBAL@sad_4x4@ DB 'sad_4x4', 00H		; `string'
CONST	ENDS
;	COMDAT ??_C@_07DDJKLCAH@reg_sad@
CONST	SEGMENT
??_C@_07DDJKLCAH@reg_sad@ DB 'reg_sad', 00H		; `string'
CONST	ENDS
;	COMDAT ??_C@_09INHMEIKP@array_md5@
CONST	SEGMENT
??_C@_09INHMEIKP@array_md5@ DB 'array_md5', 00H		; `string'
CONST	ENDS
;	COMDAT ??_C@_0P@FIMIKDEG@array_checksum@
CONST	SEGMENT
??_C@_0P@FIMIKDEG@array_checksum@ DB 'array_checksum', 00H ; `string'
CONST	ENDS
CONST	SEGMENT
_cbf_masks DW	01fH
	DW	0fH
	DW	07H
	DW	03H
	DW	01H
	ORG $+6
_default_fast_coeff_cost_wts DD 03e282e88r	; 0.16424
	DD	040852b41r			; 4.16153
	DD	0406093ffr			; 3.50903
	DD	040ddb290r			; 6.92805
	DD	03e282e88r			; 0.16424
	DD	040852b41r			; 4.16153
	DD	0406093ffr			; 3.50903
	DD	040ddb290r			; 6.92805
	DD	03e282e88r			; 0.16424
	DD	040852b41r			; 4.16153
	DD	0406093ffr			; 3.50903
	DD	040ddb290r			; 6.92805
	DD	03e282e88r			; 0.16424
	DD	040852b41r			; 4.16153
	DD	0406093ffr			; 3.50903
	DD	040ddb290r			; 6.92805
	DD	03e282e88r			; 0.16424
	DD	040852b41r			; 4.16153
	DD	0406093ffr			; 3.50903
	DD	040ddb290r			; 6.92805
	DD	03e282e88r			; 0.16424
	DD	040852b41r			; 4.16153
	DD	0406093ffr			; 3.50903
	DD	040ddb290r			; 6.92805
	DD	03e282e88r			; 0.16424
	DD	040852b41r			; 4.16153
	DD	0406093ffr			; 3.50903
	DD	040ddb290r			; 6.92805
	DD	03e282e88r			; 0.16424
	DD	040852b41r			; 4.16153
	DD	0406093ffr			; 3.50903
	DD	040ddb290r			; 6.92805
	DD	03e282e88r			; 0.16424
	DD	040852b41r			; 4.16153
	DD	0406093ffr			; 3.50903
	DD	040ddb290r			; 6.92805
	DD	03e282e88r			; 0.16424
	DD	040852b41r			; 4.16153
	DD	0406093ffr			; 3.50903
	DD	040ddb290r			; 6.92805
	DD	03e282e88r			; 0.16424
	DD	040852b41r			; 4.16153
	DD	0406093ffr			; 3.50903
	DD	040ddb290r			; 6.92805
	DD	03e26c094r			; 0.162844
	DD	04081ca43r			; 4.05594
	DD	04064203ar			; 3.56447
	DD	040db915ar			; 6.86149
	DD	03e03d189r			; 0.128729
	DD	04089fbafr			; 4.31197
	DD	0407c5771r			; 3.94284
	DD	040ddeed2r			; 6.9354
	DD	03de33ce6r			; 0.110956
	DD	0408ddcb1r			; 4.43319
	DD	0407c8738r			; 3.94575
	DD	040dc1618r			; 6.8777
	DD	03dc29cfer			; 0.095026
	DD	0408f7938r			; 4.48355
	DD	0408636aar			; 4.19417
	DD	040d90260r			; 6.78154
	DD	03d99b1b8r			; 0.075046
	DD	04094474cr			; 4.6337
	DD	04082b1b6r			; 4.08419
	DD	040d65aeer			; 6.6986
	DD	03d56bca5r			; 0.052426
	DD	0409ef37er			; 4.96722
	DD	04080dee8r			; 4.02721
	DD	040d19306r			; 6.5492
	DD	03d24bcaer			; 0.040219
	DD	040a489car			; 5.14182
	DD	0407ee3bdr			; 3.98265
	DD	040cec513r			; 6.46156
	DD	03d0fba88r			; 0.03509
	DD	040a628e7r			; 5.19249
	DD	040752e49r			; 3.83095
	DD	040cd642ar			; 6.41848
	DD	03cf47d80r			; 0.029845
	DD	040a6c5d0r			; 5.21165
	DD	040743073r			; 3.81546
	DD	040cb0dd8r			; 6.34544
	DD	03cc0b136r			; 0.023522
	DD	040aa4f92r			; 5.32221
	DD	040744224r			; 3.81654
	DD	040cb8aaar			; 6.36068
	DD	03cae87d3r			; 0.021305
	DD	040a73ac3r			; 5.22592
	DD	04075eeccr			; 3.8427
	DD	040ca6cd9r			; 6.32579
	DD	03c821294r			; 0.015878
	DD	040a5dbe0r			; 5.18309
	DD	0407d2f27r			; 3.956
	DD	040ca8cbdr			; 6.32968
	DD	03c2ae297r			; 0.01043
	DD	040a32ce4r			; 5.09923
	DD	04085a85fr			; 4.1768
	DD	040c9c5d6r			; 6.3054
	DD	03c0a2a91r			; 0.008433
	DD	040a0f7der			; 5.03026
	DD	040879a50r			; 4.23759
	DD	040c8a4eer			; 6.27013
	DD	03bd4fdf4r			; 0.0065
	DD	0409f0412r			; 4.96925
	DD	0408adc57r			; 4.3394
	DD	040c6f870r			; 6.21783
	DD	03ba18373r			; 0.004929
	DD	0409d8d50r			; 4.9235
	DD	0408e283fr			; 4.44241
	DD	040c5df6cr			; 6.18352
	DD	03b73775cr			; 0.003715
	DD	0409d4c75r			; 4.91558
	DD	0408dbb1br			; 4.42909
	DD	040c4029fr			; 6.12532
	DD	03b4a70d2r			; 0.003089
	DD	0409c48f7r			; 4.88391
	DD	040920260r			; 4.56279
	DD	040c5019dr			; 6.15645
	DD	03b219c9dr			; 0.002466
	DD	0409c31abr			; 4.88106
	DD	040942800r			; 4.62988
	DD	040c49088r			; 6.14264
	DD	03b0e25c8r			; 0.002169
	DD	0409c3d62r			; 4.88249
	DD	04094ae99r			; 4.64631
	DD	040c415d1r			; 6.12766
	DD	03b26dacbr			; 0.002546
	DD	040996304r			; 4.79334
	DD	0409acc16r			; 4.83741
	DD	040c6606br			; 6.19927
	DD	03aac3a86r			; 0.001314
	DD	04099e220r			; 4.80885
	DD	0409a81bdr			; 4.82834
	DD	040c7ca3cr			; 6.24344
	DD	03a9741d1r			; 0.001154
	DD	0409b9a72r			; 4.8626
	DD	0409b19aar			; 4.84688
	DD	040c693a5r			; 6.20552
	DD	03a80f990r			; 0.000984
	DD	0409bb993r			; 4.8664
	DD	0409b7fa2r			; 4.85933
	DD	040c7b565r			; 6.24089
	DD	03a551f82r			; 0.000813
	DD	0409b698ar			; 4.85663
	DD	0409d95bar			; 4.92453
	DD	040c963a4r			; 6.29341
	DD	03a91c087r			; 0.001112
	DD	04099419er			; 4.78926
	DD	040a050f0r			; 5.00988
	DD	040cddf8fr			; 6.43354
	DD	03a10b418r			; 0.000552
	DD	04098580ar			; 4.76075
	DD	040a2e4f1r			; 5.09045
	DD	040d32e1fr			; 6.59938
	DD	039ccff22r			; 0.000391
	DD	0409ec42cr			; 4.96145
	DD	040a38d95r			; 5.11103
	DD	040d8342fr			; 6.75637
	DD	039ae1049r			; 0.000332
	DD	0409f63f8r			; 4.98095
	DD	040a46b89r			; 5.13813
	DD	040dbc1e8r			; 6.86742
	DD	03952c387r			; 0.000201
	DD	040a5d297r			; 5.18196
	DD	04097af64r			; 4.74016
	DD	040cec07dr			; 6.461
	DD	0397ba882r			; 0.00024
	DD	040a5eeb7r			; 5.18539
	DD	0409bfeb0r			; 4.87484
	DD	040da3603r			; 6.81909
	DD	03908509cr			; 0.00013
	DD	040a8a6b5r			; 5.27035
	DD	040977eacr			; 4.73421
	DD	040da708fr			; 6.82624
	DD	038da1a93r			; 0.000104
	DD	040abe6e8r			; 5.37194
	DD	040930af4r			; 4.59509
	DD	040d5189ar			; 6.65925
	DD	038ae1049r			; 8.3e-05
	DD	040ab9581r			; 5.362
	DD	04093c250r			; 4.61747
	DD	040dacf03r			; 6.83777
	DD	03890b418r			; 6.9e-05
	DD	040a926e3r			; 5.286
	DD	0409828e7r			; 4.75499
	DD	040e516e1r			; 7.15904
	DD	0384d8559r			; 4.9e-05
	DD	040afa18cr			; 5.48847
	DD	0408cace9r			; 4.39611
	DD	040d74682r			; 6.72736
	DD	038734507r			; 5.8e-05
	DD	0409eafa3r			; 4.95894
	DD	040929321r			; 4.58046
	DD	040cf49a5r			; 6.47774
	DD	037eae18br			; 2.8e-05
	DD	040b0ae1br			; 5.52125
	DD	0408e1885r			; 4.44049
	DD	040e68f80r			; 7.20502
	DD	000000000r			; 0
	DD	000000000r			; 0
	DD	000000000r			; 0
	DD	000000000r			; 0
	DD	0379f6230r			; 1.9e-05
	DD	040b9f5d8r			; 5.81126
	DD	0408cc582r			; 4.39911
	DD	040eac30dr			; 7.33631
_g_sig_last_scan_8x8 DD 00H
	DD	02H
	DD	01H
	DD	03H
	DD	00H
	DD	01H
	DD	02H
	DD	03H
	DD	00H
	DD	02H
	DD	01H
	DD	03H
_g_sig_last_scan_16x16 DD 00H
	DD	04H
	DD	01H
	DD	08H
	DD	05H
	DD	02H
	DD	0cH
	DD	09H
	DD	06H
	DD	03H
	DD	0dH
	DD	0aH
	DD	07H
	DD	0eH
	DD	0bH
	DD	0fH
_g_sig_last_scan_32x32 DD 00H
	DD	08H
	DD	01H
	DD	010H
	DD	09H
	DD	02H
	DD	018H
	DD	011H
	DD	0aH
	DD	03H
	DD	020H
	DD	019H
	DD	012H
	DD	0bH
	DD	04H
	DD	028H
	DD	021H
	DD	01aH
	DD	013H
	DD	0cH
	DD	05H
	DD	030H
	DD	029H
	DD	022H
	DD	01bH
	DD	014H
	DD	0dH
	DD	06H
	DD	038H
	DD	031H
	DD	02aH
	DD	023H
	DD	01cH
	DD	015H
	DD	0eH
	DD	07H
	DD	039H
	DD	032H
	DD	02bH
	DD	024H
	DD	01dH
	DD	016H
	DD	0fH
	DD	03aH
	DD	033H
	DD	02cH
	DD	025H
	DD	01eH
	DD	017H
	DD	03bH
	DD	034H
	DD	02dH
	DD	026H
	DD	01fH
	DD	03cH
	DD	035H
	DD	02eH
	DD	027H
	DD	03dH
	DD	036H
	DD	02fH
	DD	03eH
	DD	037H
	DD	03fH
_g_sig_last_scan_cg DD FLAT:_g_sig_last_scan_8x8
	DD	FLAT:_g_sig_last_scan_8x8+16
	DD	FLAT:_g_sig_last_scan_8x8+32
	DD	FLAT:_g_sig_last_scan_8x8
	DD	FLAT:_g_sig_last_scan_8x8+16
	DD	FLAT:_g_sig_last_scan_8x8+32
	DD	FLAT:_g_sig_last_scan_16x16
	DD	00H
	DD	00H
	DD	FLAT:_g_sig_last_scan_32x32
	DD	00H
	DD	00H
_g_group_idx DB	00H
	DB	01H
	DB	02H
	DB	03H
	DB	04H
	DB	04H
	DB	05H
	DB	05H
	DB	06H
	DB	06H
	DB	06H
	DB	06H
	DB	07H
	DB	07H
	DB	07H
	DB	07H
	DB	08H
	DB	08H
	DB	08H
	DB	08H
	DB	08H
	DB	08H
	DB	08H
	DB	08H
	DB	09H
	DB	09H
	DB	09H
	DB	09H
	DB	09H
	DB	09H
	DB	09H
	DB	09H
_g_min_in_group DB 00H
	DB	01H
	DB	02H
	DB	03H
	DB	04H
	DB	06H
	DB	08H
	DB	0cH
	DB	010H
	DB	018H
	ORG $+6
_g_sao_edge_offsets DD 0ffffffffH
	DD	00H
	DD	01H
	DD	00H
	DD	00H
	DD	0ffffffffH
	DD	00H
	DD	01H
	DD	0ffffffffH
	DD	0ffffffffH
	DD	01H
	DD	01H
	DD	01H
	DD	0ffffffffH
	DD	0ffffffffH
	DD	01H
_strategies_to_select DD FLAT:??_C@_0P@FIMIKDEG@array_checksum@
	DD	FLAT:_kvz_array_checksum
	DD	FLAT:??_C@_09INHMEIKP@array_md5@
	DD	FLAT:_kvz_array_md5
	DD	FLAT:??_C@_07DDJKLCAH@reg_sad@
	DD	FLAT:_kvz_reg_sad
	DD	FLAT:??_C@_07CCGEEBAL@sad_4x4@
	DD	FLAT:_kvz_sad_4x4
	DD	FLAT:??_C@_07MEAHLBLP@sad_8x8@
	DD	FLAT:_kvz_sad_8x8
	DD	FLAT:??_C@_09CIFGAEGF@sad_16x16@
	DD	FLAT:_kvz_sad_16x16
	DD	FLAT:??_C@_09PHPGBCME@sad_32x32@
	DD	FLAT:_kvz_sad_32x32
	DD	FLAT:??_C@_09HIOKBDLK@sad_64x64@
	DD	FLAT:_kvz_sad_64x64
	DD	FLAT:??_C@_08GDBJPAOD@satd_4x4@
	DD	FLAT:_kvz_satd_4x4
	DD	FLAT:??_C@_08IFHKAAFH@satd_8x8@
	DD	FLAT:_kvz_satd_8x8
	DD	FLAT:??_C@_0L@CJHLPOG@satd_16x16@
	DD	FLAT:_kvz_satd_16x16
	DD	FLAT:??_C@_0L@NNDHKJEH@satd_32x32@
	DD	FLAT:_kvz_satd_32x32
	DD	FLAT:??_C@_0L@FCCLKIDJ@satd_64x64@
	DD	FLAT:_kvz_satd_64x64
	DD	FLAT:??_C@_0O@FHJAMJMP@satd_any_size@
	DD	FLAT:_kvz_satd_any_size
	DD	FLAT:??_C@_0N@PBMCJFCI@sad_4x4_dual@
	DD	FLAT:_kvz_sad_4x4_dual
	DD	FLAT:??_C@_0N@NAFGAMEI@sad_8x8_dual@
	DD	FLAT:_kvz_sad_8x8_dual
	DD	FLAT:??_C@_0P@KGAKCNHP@sad_16x16_dual@
	DD	FLAT:_kvz_sad_16x16_dual
	DD	FLAT:??_C@_0P@EBOHBHKK@sad_32x32_dual@
	DD	FLAT:_kvz_sad_32x32_dual
	DD	FLAT:??_C@_0P@BGJOPAPB@sad_64x64_dual@
	DD	FLAT:_kvz_sad_64x64_dual
	DD	FLAT:??_C@_0O@PJODLFIO@satd_4x4_dual@
	DD	FLAT:_kvz_satd_4x4_dual
	DD	FLAT:??_C@_0O@NIHHCMOO@satd_8x8_dual@
	DD	FLAT:_kvz_satd_8x8_dual
	DD	FLAT:??_C@_0BA@GFDJBOPJ@satd_16x16_dual@
	DD	FLAT:_kvz_satd_16x16_dual
	DD	FLAT:??_C@_0BA@ICNECECM@satd_32x32_dual@
	DD	FLAT:_kvz_satd_32x32_dual
	DD	FLAT:??_C@_0BA@NFKNMDHH@satd_64x64_dual@
	DD	FLAT:_kvz_satd_64x64_dual
	DD	FLAT:??_C@_0BD@EFOGIBKC@satd_any_size_quad@
	DD	FLAT:_kvz_satd_any_size_quad
	DD	FLAT:??_C@_0BA@BPDFDAFM@pixels_calc_ssd@
	DD	FLAT:_kvz_pixels_calc_ssd
	DD	FLAT:??_C@_0P@FIKELBGI@bipred_average@
	DD	FLAT:_kvz_bipred_average
	DD	FLAT:??_C@_0BC@IMILIHON@get_optimized_sad@
	DD	FLAT:_kvz_get_optimized_sad
	DD	FLAT:??_C@_07OEMLCPNF@ver_sad@
	DD	FLAT:_kvz_ver_sad
	DD	FLAT:??_C@_07CJIKFDIC@hor_sad@
	DD	FLAT:_kvz_hor_sad
	DD	FLAT:??_C@_09GDPKBOJB@pixel_var@
	DD	FLAT:_kvz_pixel_var
	DD	FLAT:??_C@_0BF@BJKPGPEP@fast_forward_dst_4x4@
	DD	FLAT:_kvz_fast_forward_dst_4x4
	DD	FLAT:??_C@_07MAFDGKIL@dct_4x4@
	DD	FLAT:_kvz_dct_4x4
	DD	FLAT:??_C@_07CGDAJKDP@dct_8x8@
	DD	FLAT:_kvz_dct_8x8
	DD	FLAT:??_C@_09LPGJIHFJ@dct_16x16@
	DD	FLAT:_kvz_dct_16x16
	DD	FLAT:??_C@_09GAMJJBPI@dct_32x32@
	DD	FLAT:_kvz_dct_32x32
	DD	FLAT:??_C@_0BF@LGIDMEOF@fast_inverse_dst_4x4@
	DD	FLAT:_kvz_fast_inverse_dst_4x4
	DD	FLAT:??_C@_08LDLIJGLD@idct_4x4@
	DD	FLAT:_kvz_idct_4x4
	DD	FLAT:??_C@_08FFNLGGAH@idct_8x8@
	DD	FLAT:_kvz_idct_8x8
	DD	FLAT:??_C@_0L@BMPNPGHO@idct_16x16@
	DD	FLAT:_kvz_idct_16x16
	DD	FLAT:??_C@_0L@MDFNOANP@idct_32x32@
	DD	FLAT:_kvz_idct_32x32
	DD	FLAT:??_C@_0CA@KBMGLOML@filter_hpel_blocks_hor_ver_luma@
	DD	FLAT:_kvz_filter_hpel_blocks_hor_ver_luma
	DD	FLAT:??_C@_0BN@LGIFMJCD@filter_hpel_blocks_diag_luma@
	DD	FLAT:_kvz_filter_hpel_blocks_diag_luma
	DD	FLAT:??_C@_0CA@HAFBJKBM@filter_qpel_blocks_hor_ver_luma@
	DD	FLAT:_kvz_filter_qpel_blocks_hor_ver_luma
	DD	FLAT:??_C@_0BN@LBBJMBKC@filter_qpel_blocks_diag_luma@
	DD	FLAT:_kvz_filter_qpel_blocks_diag_luma
	DD	FLAT:??_C@_0BH@DGLFPIPB@sample_quarterpel_luma@
	DD	FLAT:_kvz_sample_quarterpel_luma
	DD	FLAT:??_C@_0BF@HOLGGLNK@sample_octpel_chroma@
	DD	FLAT:_kvz_sample_octpel_chroma
	DD	FLAT:??_C@_0BK@LCPNGAOF@sample_quarterpel_luma_hi@
	DD	FLAT:_kvz_sample_quarterpel_luma_hi
	DD	FLAT:??_C@_0BI@EFIAEBMP@sample_octpel_chroma_hi@
	DD	FLAT:_kvz_sample_octpel_chroma_hi
	DD	FLAT:??_C@_0BD@MPANGNDO@get_extended_block@
	DD	FLAT:_kvz_get_extended_block
	DD	FLAT:??_C@_05DFPBCFDJ@quant@
	DD	FLAT:_kvz_quant
	DD	FLAT:??_C@_0BC@MPMPMGJB@quantize_residual@
	DD	FLAT:_kvz_quantize_residual
	DD	FLAT:??_C@_07GMDOJGPA@dequant@
	DD	FLAT:_kvz_dequant
	DD	FLAT:??_C@_0O@ECIHPEON@coeff_abs_sum@
	DD	FLAT:_kvz_coeff_abs_sum
	DD	FLAT:??_C@_0BA@HMNKAKOO@fast_coeff_cost@
	DD	FLAT:_kvz_fast_coeff_cost
	DD	FLAT:??_C@_0N@NMFCEONC@angular_pred@
	DD	FLAT:_kvz_angular_pred
	DD	FLAT:??_C@_0BC@KPOCLILL@intra_pred_planar@
	DD	FLAT:_kvz_intra_pred_planar
	DD	FLAT:??_C@_0BH@EAOLFJGL@intra_pred_filtered_dc@
	DD	FLAT:_kvz_intra_pred_filtered_dc
	DD	FLAT:??_C@_0BF@LGILOHOJ@sao_edge_ddistortion@
	DD	FLAT:_kvz_sao_edge_ddistortion
	DD	FLAT:??_C@_0BC@OCNKGNNI@calc_sao_edge_dir@
	DD	FLAT:_kvz_calc_sao_edge_dir
	DD	FLAT:??_C@_0BG@IJPOOFFG@sao_reconstruct_color@
	DD	FLAT:_kvz_sao_reconstruct_color
	DD	FLAT:??_C@_0BF@HDNLAKN@sao_band_ddistortion@
	DD	FLAT:_kvz_sao_band_ddistortion
	DD	FLAT:??_C@_0BB@GDIDDFDB@encode_coeff_nxn@
	DD	FLAT:_kvz_encode_coeff_nxn
	DD	00H
	DD	00H
CONST	ENDS
PUBLIC	_kvz_strategy_register_picture_avx2
PUBLIC	_kvz_reg_sad_avx2
PUBLIC	__JustMyCode_Default
PUBLIC	?__LINE__Var@?0??bipred_average_px_px_template_avx2@@9@9 ; `bipred_average_px_px_template_avx2'::`1'::__LINE__Var
PUBLIC	??_C@_0CE@OJCKHEGB@Branch?5for?54x4?5not?5yet?5implemen@ ; `string'
PUBLIC	??_C@_1JG@HCGLAOEM@?$AAF?$AA?3?$AA?2?$AAo?$AAp?$AAe?$AAn?$AA_?$AAc?$AAo?$AAd?$AAe?$AAc?$AA_?$AAl@ ; `string'
PUBLIC	??_C@_1IG@PFICKALD@?$AA?$CB?$AA?$CI?$AAp?$AAu?$AA_?$AAw?$AA?5?$AA?$DN?$AA?$DN?$AA?5?$AA4?$AA?5?$AA?$CG?$AA?$CG?$AA?5@ ; `string'
PUBLIC	??_C@_0CE@ICBEPKHC@Branch?5for?52x8?5not?5yet?5implemen@ ; `string'
PUBLIC	??_C@_1IG@BCNOOMBC@?$AA?$CB?$AA?$CI?$AAp?$AAu?$AA_?$AAw?$AA?5?$AA?$DN?$AA?$DN?$AA?5?$AA2?$AA?5?$AA?$CG?$AA?$CG?$AA?5@ ; `string'
PUBLIC	??_C@_1DO@PGNEGAJ@?$AA0?$AA?5?$AA?$CG?$AA?$CG?$AA?5?$AA?$CC?$AAU?$AAn?$AAe?$AAx?$AAp?$AAe?$AAc?$AAt?$AAe@ ; `string'
PUBLIC	?__LINE__Var@?0??bipred_average_px_px_avx2@@9@9	; `bipred_average_px_px_avx2'::`1'::__LINE__Var
PUBLIC	?__LINE__Var@?0??bipred_average_im_im_template_avx2@@9@9 ; `bipred_average_im_im_template_avx2'::`1'::__LINE__Var
PUBLIC	?__LINE__Var@?0??bipred_average_im_im_avx2@@9@9	; `bipred_average_im_im_avx2'::`1'::__LINE__Var
PUBLIC	?__LINE__Var@?0??bipred_average_px_im_template_avx2@@9@9 ; `bipred_average_px_im_template_avx2'::`1'::__LINE__Var
PUBLIC	?__LINE__Var@?0??bipred_average_px_im_avx2@@9@9	; `bipred_average_px_im_avx2'::`1'::__LINE__Var
PUBLIC	??_C@_04GEEJMEMG@avx2@				; `string'
PUBLIC	__xmm@00000000ffffffffffffffffffffffff
PUBLIC	__xmm@00010001000100010001000100010001
PUBLIC	__xmm@08080808080808080000000000000000
PUBLIC	__xmm@0c0c0c0c080808080404040400000000
PUBLIC	__xmm@0f0e0d0c0b0a09080706050403020100
PUBLIC	__xmm@41f00000000000000000000000000000
PUBLIC	__xmm@ffffffffffffffffffffffffffffffff
PUBLIC	__ymm@0000000000000000000000000000000000000000ffffffffffffffffffffffff
PUBLIC	__ymm@0000000000000000ffffffffffffffffffffffff000000000000000000000000
PUBLIC	__ymm@0000000000000000ffffffffffffffffffffffffffffffffffffffffffffffff
PUBLIC	__ymm@0001000100010001000100010001000100010001000100010001000100010001
PUBLIC	__ymm@1f1e1d1c1b1a191817161514131211100f0e0d0c0b0a09080706050403020100
PUBLIC	__ymm@7f7f7f7f7f7f7f7f7f7f7f7f7f7f7f7f7f7f7f7f7f7f7f7f7f7f7f7f7f7f7f7f
PUBLIC	__ymm@ffffffffffffffffffffffffffffffffffffffffffffffffffffffffffffffff
EXTRN	__imp___wassert:PROC
EXTRN	_kvz_strategyselector_register:PROC
EXTRN	_kvz_fast_clip_32bit_to_pixel:PROC
EXTRN	_kvz_satd_4x4_subblock_generic:PROC
EXTRN	_kvz_satd_4x4_subblock_quad_generic:PROC
EXTRN	@_RTC_CheckStackVars@8:PROC
EXTRN	@__CheckForDebuggerJustMyCode@4:PROC
EXTRN	@__security_check_cookie@4:PROC
EXTRN	__RTC_CheckEsp:PROC
EXTRN	__RTC_InitBase:PROC
EXTRN	__RTC_Shutdown:PROC
EXTRN	__chkstk:PROC
EXTRN	__ltod3:PROC
EXTRN	___security_cookie:DWORD
EXTRN	__fltused:DWORD
;	COMDAT __ymm@ffffffffffffffffffffffffffffffffffffffffffffffffffffffffffffffff
CONST	SEGMENT
__ymm@ffffffffffffffffffffffffffffffffffffffffffffffffffffffffffffffff DB 0ffH
	DB	0ffH, 0ffH, 0ffH, 0ffH, 0ffH, 0ffH, 0ffH, 0ffH, 0ffH, 0ffH, 0ffH
	DB	0ffH, 0ffH, 0ffH, 0ffH, 0ffH, 0ffH, 0ffH, 0ffH, 0ffH, 0ffH, 0ffH
	DB	0ffH, 0ffH, 0ffH, 0ffH, 0ffH, 0ffH, 0ffH, 0ffH, 0ffH
CONST	ENDS
;	COMDAT __ymm@7f7f7f7f7f7f7f7f7f7f7f7f7f7f7f7f7f7f7f7f7f7f7f7f7f7f7f7f7f7f7f7f
CONST	SEGMENT
__ymm@7f7f7f7f7f7f7f7f7f7f7f7f7f7f7f7f7f7f7f7f7f7f7f7f7f7f7f7f7f7f7f7f DB 07fH
	DB	07fH, 07fH, 07fH, 07fH, 07fH, 07fH, 07fH, 07fH, 07fH, 07fH, 07fH
	DB	07fH, 07fH, 07fH, 07fH, 07fH, 07fH, 07fH, 07fH, 07fH, 07fH, 07fH
	DB	07fH, 07fH, 07fH, 07fH, 07fH, 07fH, 07fH, 07fH, 07fH
CONST	ENDS
;	COMDAT __ymm@1f1e1d1c1b1a191817161514131211100f0e0d0c0b0a09080706050403020100
CONST	SEGMENT
__ymm@1f1e1d1c1b1a191817161514131211100f0e0d0c0b0a09080706050403020100 DB 00H
	DB	01H, 02H, 03H, 04H, 05H, 06H, 07H, 08H, 09H, 0aH, 0bH, 0cH, 0dH
	DB	0eH, 0fH, 010H, 011H, 012H, 013H, 014H, 015H, 016H, 017H, 018H
	DB	019H, 01aH, 01bH, 01cH, 01dH, 01eH, 01fH
CONST	ENDS
;	COMDAT __ymm@0001000100010001000100010001000100010001000100010001000100010001
CONST	SEGMENT
__ymm@0001000100010001000100010001000100010001000100010001000100010001 DB 01H
	DB	00H, 01H, 00H, 01H, 00H, 01H, 00H, 01H, 00H, 01H, 00H, 01H, 00H
	DB	01H, 00H, 01H, 00H, 01H, 00H, 01H, 00H, 01H, 00H, 01H, 00H, 01H
	DB	00H, 01H, 00H, 01H, 00H
CONST	ENDS
;	COMDAT __ymm@0000000000000000ffffffffffffffffffffffffffffffffffffffffffffffff
CONST	SEGMENT
__ymm@0000000000000000ffffffffffffffffffffffffffffffffffffffffffffffff DB 0ffH
	DB	0ffH, 0ffH, 0ffH, 0ffH, 0ffH, 0ffH, 0ffH, 0ffH, 0ffH, 0ffH, 0ffH
	DB	0ffH, 0ffH, 0ffH, 0ffH, 0ffH, 0ffH, 0ffH, 0ffH, 0ffH, 0ffH, 0ffH
	DB	0ffH, 00H, 00H, 00H, 00H, 00H, 00H, 00H, 00H
CONST	ENDS
;	COMDAT __ymm@0000000000000000ffffffffffffffffffffffff000000000000000000000000
CONST	SEGMENT
__ymm@0000000000000000ffffffffffffffffffffffff000000000000000000000000 DB 00H
	DB	00H, 00H, 00H, 00H, 00H, 00H, 00H, 00H, 00H, 00H, 00H, 0ffH, 0ffH
	DB	0ffH, 0ffH, 0ffH, 0ffH, 0ffH, 0ffH, 0ffH, 0ffH, 0ffH, 0ffH, 00H
	DB	00H, 00H, 00H, 00H, 00H, 00H, 00H
CONST	ENDS
;	COMDAT __ymm@0000000000000000000000000000000000000000ffffffffffffffffffffffff
CONST	SEGMENT
__ymm@0000000000000000000000000000000000000000ffffffffffffffffffffffff DB 0ffH
	DB	0ffH, 0ffH, 0ffH, 0ffH, 0ffH, 0ffH, 0ffH, 0ffH, 0ffH, 0ffH, 0ffH
	DB	00H, 00H, 00H, 00H, 00H, 00H, 00H, 00H, 00H, 00H, 00H, 00H, 00H
	DB	00H, 00H, 00H, 00H, 00H, 00H, 00H
CONST	ENDS
;	COMDAT __xmm@ffffffffffffffffffffffffffffffff
CONST	SEGMENT
__xmm@ffffffffffffffffffffffffffffffff DB 0ffH, 0ffH, 0ffH, 0ffH, 0ffH, 0ffH
	DB	0ffH, 0ffH, 0ffH, 0ffH, 0ffH, 0ffH, 0ffH, 0ffH, 0ffH, 0ffH
CONST	ENDS
;	COMDAT __xmm@41f00000000000000000000000000000
CONST	SEGMENT
__xmm@41f00000000000000000000000000000 DB 00H, 00H, 00H, 00H, 00H, 00H, 00H
	DB	00H, 00H, 00H, 00H, 00H, 00H, 00H, 0f0H, 'A'
CONST	ENDS
;	COMDAT __xmm@0f0e0d0c0b0a09080706050403020100
CONST	SEGMENT
__xmm@0f0e0d0c0b0a09080706050403020100 DB 00H, 01H, 02H, 03H, 04H, 05H, 06H
	DB	07H, 08H, 09H, 0aH, 0bH, 0cH, 0dH, 0eH, 0fH
CONST	ENDS
;	COMDAT __xmm@0c0c0c0c080808080404040400000000
CONST	SEGMENT
__xmm@0c0c0c0c080808080404040400000000 DB 00H, 00H, 00H, 00H, 04H, 04H, 04H
	DB	04H, 08H, 08H, 08H, 08H, 0cH, 0cH, 0cH, 0cH
CONST	ENDS
;	COMDAT __xmm@08080808080808080000000000000000
CONST	SEGMENT
__xmm@08080808080808080000000000000000 DB 00H, 00H, 00H, 00H, 00H, 00H, 00H
	DB	00H, 08H, 08H, 08H, 08H, 08H, 08H, 08H, 08H
CONST	ENDS
;	COMDAT __xmm@00010001000100010001000100010001
CONST	SEGMENT
__xmm@00010001000100010001000100010001 DB 01H, 00H, 01H, 00H, 01H, 00H, 01H
	DB	00H, 01H, 00H, 01H, 00H, 01H, 00H, 01H, 00H
CONST	ENDS
;	COMDAT __xmm@00000000ffffffffffffffffffffffff
CONST	SEGMENT
__xmm@00000000ffffffffffffffffffffffff DB 0ffH, 0ffH, 0ffH, 0ffH, 0ffH, 0ffH
	DB	0ffH, 0ffH, 0ffH, 0ffH, 0ffH, 0ffH, 00H, 00H, 00H, 00H
CONST	ENDS
;	COMDAT rtc$TMZ
rtc$TMZ	SEGMENT
__RTC_Shutdown.rtc$TMZ DD FLAT:__RTC_Shutdown
rtc$TMZ	ENDS
;	COMDAT rtc$IMZ
rtc$IMZ	SEGMENT
__RTC_InitBase.rtc$IMZ DD FLAT:__RTC_InitBase
rtc$IMZ	ENDS
;	COMDAT ??_C@_04GEEJMEMG@avx2@
CONST	SEGMENT
??_C@_04GEEJMEMG@avx2@ DB 'avx2', 00H			; `string'
CONST	ENDS
;	COMDAT ?__LINE__Var@?0??bipred_average_px_im_avx2@@9@9
_DATA	SEGMENT
?__LINE__Var@?0??bipred_average_px_im_avx2@@9@9 DD 0569H ; `bipred_average_px_im_avx2'::`1'::__LINE__Var
_DATA	ENDS
;	COMDAT ?__LINE__Var@?0??bipred_average_px_im_template_avx2@@9@9
_DATA	SEGMENT
?__LINE__Var@?0??bipred_average_px_im_template_avx2@@9@9 DD 04a0H ; `bipred_average_px_im_template_avx2'::`1'::__LINE__Var
_DATA	ENDS
;	COMDAT ?__LINE__Var@?0??bipred_average_im_im_avx2@@9@9
_DATA	SEGMENT
?__LINE__Var@?0??bipred_average_im_im_avx2@@9@9 DD 0478H ; `bipred_average_im_im_avx2'::`1'::__LINE__Var
_DATA	ENDS
;	COMDAT ?__LINE__Var@?0??bipred_average_im_im_template_avx2@@9@9
_DATA	SEGMENT
?__LINE__Var@?0??bipred_average_im_im_template_avx2@@9@9 DD 03bcH ; `bipred_average_im_im_template_avx2'::`1'::__LINE__Var
_DATA	ENDS
;	COMDAT ?__LINE__Var@?0??bipred_average_px_px_avx2@@9@9
_DATA	SEGMENT
?__LINE__Var@?0??bipred_average_px_px_avx2@@9@9 DD 0394H ; `bipred_average_px_px_avx2'::`1'::__LINE__Var
_DATA	ENDS
;	COMDAT ??_C@_1DO@PGNEGAJ@?$AA0?$AA?5?$AA?$CG?$AA?$CG?$AA?5?$AA?$CC?$AAU?$AAn?$AAe?$AAx?$AAp?$AAe?$AAc?$AAt?$AAe@
CONST	SEGMENT
??_C@_1DO@PGNEGAJ@?$AA0?$AA?5?$AA?$CG?$AA?$CG?$AA?5?$AA?$CC?$AAU?$AAn?$AAe?$AAx?$AAp?$AAe?$AAc?$AAt?$AAe@ DB '0'
	DB	00H, ' ', 00H, '&', 00H, '&', 00H, ' ', 00H, '"', 00H, 'U', 00H
	DB	'n', 00H, 'e', 00H, 'x', 00H, 'p', 00H, 'e', 00H, 'c', 00H, 't'
	DB	00H, 'e', 00H, 'd', 00H, ' ', 00H, 'b', 00H, 'l', 00H, 'o', 00H
	DB	'c', 00H, 'k', 00H, ' ', 00H, 'w', 00H, 'i', 00H, 'd', 00H, 't'
	DB	00H, 'h', 00H, '.', 00H, '"', 00H, 00H, 00H	; `string'
CONST	ENDS
;	COMDAT ??_C@_1IG@BCNOOMBC@?$AA?$CB?$AA?$CI?$AAp?$AAu?$AA_?$AAw?$AA?5?$AA?$DN?$AA?$DN?$AA?5?$AA2?$AA?5?$AA?$CG?$AA?$CG?$AA?5@
CONST	SEGMENT
??_C@_1IG@BCNOOMBC@?$AA?$CB?$AA?$CI?$AAp?$AAu?$AA_?$AAw?$AA?5?$AA?$DN?$AA?$DN?$AA?5?$AA2?$AA?5?$AA?$CG?$AA?$CG?$AA?5@ DB '!'
	DB	00H, '(', 00H, 'p', 00H, 'u', 00H, '_', 00H, 'w', 00H, ' ', 00H
	DB	'=', 00H, '=', 00H, ' ', 00H, '2', 00H, ' ', 00H, '&', 00H, '&'
	DB	00H, ' ', 00H, 'p', 00H, 'u', 00H, '_', 00H, 'h', 00H, ' ', 00H
	DB	'=', 00H, '=', 00H, ' ', 00H, '8', 00H, ')', 00H, ' ', 00H, '&'
	DB	00H, '&', 00H, ' ', 00H, '"', 00H, 'B', 00H, 'r', 00H, 'a', 00H
	DB	'n', 00H, 'c', 00H, 'h', 00H, ' ', 00H, 'f', 00H, 'o', 00H, 'r'
	DB	00H, ' ', 00H, '2', 00H, 'x', 00H, '8', 00H, ' ', 00H, 'n', 00H
	DB	'o', 00H, 't', 00H, ' ', 00H, 'y', 00H, 'e', 00H, 't', 00H, ' '
	DB	00H, 'i', 00H, 'm', 00H, 'p', 00H, 'l', 00H, 'e', 00H, 'm', 00H
	DB	'e', 00H, 'n', 00H, 't', 00H, 'e', 00H, 'd', 00H, '.', 00H, '"'
	DB	00H, 00H, 00H				; `string'
CONST	ENDS
;	COMDAT ??_C@_0CE@ICBEPKHC@Branch?5for?52x8?5not?5yet?5implemen@
CONST	SEGMENT
??_C@_0CE@ICBEPKHC@Branch?5for?52x8?5not?5yet?5implemen@ DB 'Branch for 2'
	DB	'x8 not yet implemented.', 00H		; `string'
CONST	ENDS
;	COMDAT ??_C@_1IG@PFICKALD@?$AA?$CB?$AA?$CI?$AAp?$AAu?$AA_?$AAw?$AA?5?$AA?$DN?$AA?$DN?$AA?5?$AA4?$AA?5?$AA?$CG?$AA?$CG?$AA?5@
CONST	SEGMENT
??_C@_1IG@PFICKALD@?$AA?$CB?$AA?$CI?$AAp?$AAu?$AA_?$AAw?$AA?5?$AA?$DN?$AA?$DN?$AA?5?$AA4?$AA?5?$AA?$CG?$AA?$CG?$AA?5@ DB '!'
	DB	00H, '(', 00H, 'p', 00H, 'u', 00H, '_', 00H, 'w', 00H, ' ', 00H
	DB	'=', 00H, '=', 00H, ' ', 00H, '4', 00H, ' ', 00H, '&', 00H, '&'
	DB	00H, ' ', 00H, 'p', 00H, 'u', 00H, '_', 00H, 'h', 00H, ' ', 00H
	DB	'=', 00H, '=', 00H, ' ', 00H, '4', 00H, ')', 00H, ' ', 00H, '&'
	DB	00H, '&', 00H, ' ', 00H, '"', 00H, 'B', 00H, 'r', 00H, 'a', 00H
	DB	'n', 00H, 'c', 00H, 'h', 00H, ' ', 00H, 'f', 00H, 'o', 00H, 'r'
	DB	00H, ' ', 00H, '4', 00H, 'x', 00H, '4', 00H, ' ', 00H, 'n', 00H
	DB	'o', 00H, 't', 00H, ' ', 00H, 'y', 00H, 'e', 00H, 't', 00H, ' '
	DB	00H, 'i', 00H, 'm', 00H, 'p', 00H, 'l', 00H, 'e', 00H, 'm', 00H
	DB	'e', 00H, 'n', 00H, 't', 00H, 'e', 00H, 'd', 00H, '.', 00H, '"'
	DB	00H, 00H, 00H				; `string'
CONST	ENDS
;	COMDAT ??_C@_1JG@HCGLAOEM@?$AAF?$AA?3?$AA?2?$AAo?$AAp?$AAe?$AAn?$AA_?$AAc?$AAo?$AAd?$AAe?$AAc?$AA_?$AAl@
CONST	SEGMENT
??_C@_1JG@HCGLAOEM@?$AAF?$AA?3?$AA?2?$AAo?$AAp?$AAe?$AAn?$AA_?$AAc?$AAo?$AAd?$AAe?$AAc?$AA_?$AAl@ DB 'F'
	DB	00H, ':', 00H, '\', 00H, 'o', 00H, 'p', 00H, 'e', 00H, 'n', 00H
	DB	'_', 00H, 'c', 00H, 'o', 00H, 'd', 00H, 'e', 00H, 'c', 00H, '_'
	DB	00H, 'l', 00H, 'e', 00H, 'a', 00H, 'r', 00H, 'n', 00H, '_', 00H
	DB	'2', 00H, '0', 00H, '2', 00H, '1', 00H, '\', 00H, 'k', 00H, 'v'
	DB	00H, 'a', 00H, 'z', 00H, 'a', 00H, 'a', 00H, 'r', 00H, '-', 00H
	DB	'm', 00H, 'a', 00H, 's', 00H, 't', 00H, 'e', 00H, 'r', 00H, '\'
	DB	00H, 's', 00H, 'r', 00H, 'c', 00H, '\', 00H, 's', 00H, 't', 00H
	DB	'r', 00H, 'a', 00H, 't', 00H, 'e', 00H, 'g', 00H, 'i', 00H, 'e'
	DB	00H, 's', 00H, '\', 00H, 'a', 00H, 'v', 00H, 'x', 00H, '2', 00H
	DB	'\', 00H, 'p', 00H, 'i', 00H, 'c', 00H, 't', 00H, 'u', 00H, 'r'
	DB	00H, 'e', 00H, '-', 00H, 'a', 00H, 'v', 00H, 'x', 00H, '2', 00H
	DB	'.', 00H, 'c', 00H, 00H, 00H			; `string'
CONST	ENDS
;	COMDAT ??_C@_0CE@OJCKHEGB@Branch?5for?54x4?5not?5yet?5implemen@
CONST	SEGMENT
??_C@_0CE@OJCKHEGB@Branch?5for?54x4?5not?5yet?5implemen@ DB 'Branch for 4'
	DB	'x4 not yet implemented.', 00H		; `string'
CONST	ENDS
;	COMDAT ?__LINE__Var@?0??bipred_average_px_px_template_avx2@@9@9
_DATA	SEGMENT
?__LINE__Var@?0??bipred_average_px_px_template_avx2@@9@9 DD 0333H ; `bipred_average_px_px_template_avx2'::`1'::__LINE__Var
_DATA	ENDS
; Function compile flags: /Odt
;	COMDAT __JustMyCode_Default
_TEXT	SEGMENT
__JustMyCode_Default PROC				; COMDAT
	push	ebp
	mov	ebp, esp
	pop	ebp
	ret	0
__JustMyCode_Default ENDP
_TEXT	ENDS
; Function compile flags: /Odtp /RTCsu /ZI
; File F:\open_codec_learn_2021\kvazaar-master\src\strategies\avx2\picture-avx2.c
;	COMDAT _pixel_var_avx2
_TEXT	SEGMENT
_buf$ = 8						; size = 4
_len$ = 12						; size = 4
_pixel_var_avx2 PROC					; COMDAT

; 1706 : {

	push	ebp
	mov	ebp, esp
	sub	esp, 192				; 000000c0H
	push	ebx
	push	esi
	push	edi
	lea	edi, DWORD PTR [ebp-192]
	mov	ecx, 48					; 00000030H
	mov	eax, -858993460				; ccccccccH
	rep stosd
	mov	ecx, OFFSET __5DE43F84_picture-avx2@c
	call	@__CheckForDebuggerJustMyCode@4

; 1707 :   return pixel_var_avx2_largebuf(buf, len);

	mov	eax, DWORD PTR _len$[ebp]
	push	eax
	mov	ecx, DWORD PTR _buf$[ebp]
	push	ecx
	call	_pixel_var_avx2_largebuf
	add	esp, 8

; 1708 : }

	pop	edi
	pop	esi
	pop	ebx
	add	esp, 192				; 000000c0H
	cmp	ebp, esp
	call	__RTC_CheckEsp
	mov	esp, ebp
	pop	ebp
	ret	0
_pixel_var_avx2 ENDP
_TEXT	ENDS
; Function compile flags: /Odtp /RTCsu /ZI
; File F:\open_codec_learn_2021\kvazaar-master\src\strategies\avx2\picture-avx2.c
;	COMDAT _pixel_var_avx2_largebuf
_TEXT	SEGMENT
tv274 = -3472						; size = 4
tv293 = -3464						; size = 8
tv331 = -3456						; size = 4
tv289 = -3456						; size = 4
_diff$1 = -2488						; size = 4
_var_sum$ = -2476					; size = 4
_accum8$ = -2464					; size = 16
_accum7$ = -2432					; size = 32
_accum6$ = -2368					; size = 32
_accum5$ = -2304					; size = 32
_accum4$ = -2240					; size = 32
_accum3$ = -2176					; size = 32
_accum2$ = -2112					; size = 32
_accum2_d$ = -2048					; size = 32
_accum_d$ = -1984					; size = 32
_curr$2 = -1920						; size = 32
_curr23$3 = -1856					; size = 32
_curr01$4 = -1792					; size = 32
_curr3_v$5 = -1728					; size = 32
_curr2_v$6 = -1664					; size = 32
_curr1_v$7 = -1600					; size = 32
_curr0_v$8 = -1536					; size = 32
_curr3_sd$9 = -1472					; size = 32
_curr2_sd$10 = -1408					; size = 32
_curr1_sd$11 = -1344					; size = 32
_curr0_sd$12 = -1280					; size = 32
_curr3_f$13 = -1216					; size = 32
_curr2_f$14 = -1152					; size = 32
_curr1_f$15 = -1088					; size = 32
_curr0_f$16 = -1024					; size = 32
_curr3_32$17 = -960					; size = 32
_curr2_32$18 = -896					; size = 32
_curr1_32$19 = -832					; size = 32
_curr0_32$20 = -768					; size = 32
_curr3$21 = -704					; size = 16
_curr2$22 = -672					; size = 16
_curr1$23 = -640					; size = 16
_curr0$24 = -608					; size = 16
_accum$ = -576						; size = 32
_mean$ = -512						; size = 32
_mean_f$ = -460						; size = 4
_sum_5$ = -448						; size = 16
_sum_4$ = -416						; size = 16
_sum_3$ = -384						; size = 16
_sum_hi$ = -352						; size = 16
_sum_lo$ = -320						; size = 16
_curr_sum$25 = -288					; size = 32
_curr$26 = -224						; size = 32
_sums$ = -160						; size = 32
_i$ = -92						; size = 4
_sum$ = -80						; size = 8
_zero$ = -64						; size = 32
_len_f$ = -8						; size = 4
_buf$ = 8						; size = 4
_len$ = 12						; size = 4
_pixel_var_avx2_largebuf PROC				; COMDAT

; 1534 : {

	push	ebx
	mov	ebx, esp
	sub	esp, 8
	and	esp, -32				; ffffffe0H
	add	esp, 4
	push	ebp
	mov	ebp, DWORD PTR [ebx+4]
	mov	DWORD PTR [esp+4], ebp
	mov	ebp, esp
	sub	esp, 3480				; 00000d98H
	push	esi
	push	edi
	lea	edi, DWORD PTR [ebp-3480]
	mov	ecx, 870				; 00000366H
	mov	eax, -858993460				; ccccccccH
	rep stosd
	mov	ecx, OFFSET __5DE43F84_picture-avx2@c
	call	@__CheckForDebuggerJustMyCode@4

; 1535 :   const float len_f  = (float)len;

	mov	eax, DWORD PTR _len$[ebx]
	mov	DWORD PTR tv289[ebp], eax
	vcvtsi2sd xmm0, xmm0, DWORD PTR tv289[ebp]
	mov	ecx, DWORD PTR tv289[ebp]
	shr	ecx, 31					; 0000001fH
	vaddsd	xmm0, xmm0, QWORD PTR __xmm@41f00000000000000000000000000000[ecx*8]
	vmovsd	QWORD PTR tv293[ebp], xmm0
	vcvtsd2ss xmm0, xmm0, QWORD PTR tv293[ebp]
	vmovss	DWORD PTR _len_f$[ebp], xmm0

; 1536 :   const __m256i zero = _mm256_setzero_si256();

	vpxor	xmm0, xmm0, xmm0
	vmovdqu	YMMWORD PTR _zero$[ebp], ymm0

; 1537 : 
; 1538 :   int64_t sum;
; 1539 :   size_t i;
; 1540 :   __m256i sums = zero;

	vmovdqu	ymm0, YMMWORD PTR _zero$[ebp]
	vmovdqu	YMMWORD PTR _sums$[ebp], ymm0

; 1541 :   for (i = 0; i + 31 < len; i += 32) {

	mov	DWORD PTR _i$[ebp], 0
	jmp	SHORT $LN4@pixel_var_
$LN2@pixel_var_:
	mov	eax, DWORD PTR _i$[ebp]
	add	eax, 32					; 00000020H
	mov	DWORD PTR _i$[ebp], eax
$LN4@pixel_var_:
	mov	eax, DWORD PTR _i$[ebp]
	add	eax, 31					; 0000001fH
	cmp	eax, DWORD PTR _len$[ebx]
	jae	SHORT $LN3@pixel_var_

; 1542 :     __m256i curr = _mm256_loadu_si256((const __m256i *)(buf + i));

	mov	eax, DWORD PTR _buf$[ebx]
	add	eax, DWORD PTR _i$[ebp]
	vmovdqu	ymm0, YMMWORD PTR [eax]
	vmovdqu	YMMWORD PTR _curr$26[ebp], ymm0

; 1543 :     __m256i curr_sum = _mm256_sad_epu8(curr, zero);

	vmovdqu	ymm0, YMMWORD PTR _curr$26[ebp]
	vpsadbw	ymm0, ymm0, YMMWORD PTR _zero$[ebp]
	vmovdqu	YMMWORD PTR _curr_sum$25[ebp], ymm0

; 1544 :             sums = _mm256_add_epi64(sums, curr_sum);

	vmovdqu	ymm0, YMMWORD PTR _sums$[ebp]
	vpaddq	ymm0, ymm0, YMMWORD PTR _curr_sum$25[ebp]
	vmovdqu	YMMWORD PTR _sums$[ebp], ymm0

; 1545 :   }

	jmp	SHORT $LN2@pixel_var_
$LN3@pixel_var_:

; 1546 :   __m128i sum_lo = _mm256_castsi256_si128  (sums);

	vmovdqu	xmm0, XMMWORD PTR _sums$[ebp]
	vmovdqa	XMMWORD PTR _sum_lo$[ebp], xmm0

; 1547 :   __m128i sum_hi = _mm256_extracti128_si256(sums,   1);

	vmovdqu	ymm0, YMMWORD PTR _sums$[ebp]
	vextracti128 xmm0, ymm0, 1
	vmovdqa	XMMWORD PTR _sum_hi$[ebp], xmm0

; 1548 :   __m128i sum_3  = _mm_add_epi64           (sum_lo, sum_hi);

	vmovdqa	xmm0, XMMWORD PTR _sum_lo$[ebp]
	vpaddq	xmm0, xmm0, XMMWORD PTR _sum_hi$[ebp]
	vmovdqa	XMMWORD PTR _sum_3$[ebp], xmm0

; 1549 :   __m128i sum_4  = _mm_shuffle_epi32       (sum_3,  _MM_SHUFFLE(1, 0, 3, 2));

	vpshufd	xmm0, XMMWORD PTR _sum_3$[ebp], 78	; 0000004eH
	vmovdqa	XMMWORD PTR _sum_4$[ebp], xmm0

; 1550 :   __m128i sum_5  = _mm_add_epi64           (sum_3,  sum_4);

	vmovdqa	xmm0, XMMWORD PTR _sum_3$[ebp]
	vpaddq	xmm0, xmm0, XMMWORD PTR _sum_4$[ebp]
	vmovdqa	XMMWORD PTR _sum_5$[ebp], xmm0

; 1551 : 
; 1552 :   _mm_storel_epi64((__m128i *)&sum, sum_5);

	vmovdqa	xmm0, XMMWORD PTR _sum_5$[ebp]
	vmovq	QWORD PTR _sum$[ebp], xmm0

; 1553 : 
; 1554 :   // Remaining len mod 32 pixels
; 1555 :   for (; i < len; ++i) {

	jmp	SHORT $LN7@pixel_var_
$LN5@pixel_var_:
	mov	eax, DWORD PTR _i$[ebp]
	add	eax, 1
	mov	DWORD PTR _i$[ebp], eax
$LN7@pixel_var_:
	mov	eax, DWORD PTR _i$[ebp]
	cmp	eax, DWORD PTR _len$[ebx]
	jae	SHORT $LN6@pixel_var_

; 1556 :     sum += buf[i];

	mov	eax, DWORD PTR _buf$[ebx]
	add	eax, DWORD PTR _i$[ebp]
	movzx	eax, BYTE PTR [eax]
	cdq
	add	eax, DWORD PTR _sum$[ebp]
	adc	edx, DWORD PTR _sum$[ebp+4]
	mov	DWORD PTR _sum$[ebp], eax
	mov	DWORD PTR _sum$[ebp+4], edx

; 1557 :   }

	jmp	SHORT $LN5@pixel_var_
$LN6@pixel_var_:

; 1558 : 
; 1559 :   float   mean_f = (float)sum / len_f;

	mov	edx, DWORD PTR _sum$[ebp+4]
	mov	ecx, DWORD PTR _sum$[ebp]
	call	__ltod3
	vcvtsd2ss xmm0, xmm0, xmm0
	vdivss	xmm0, xmm0, DWORD PTR _len_f$[ebp]
	vmovss	DWORD PTR _mean_f$[ebp], xmm0

; 1560 :   __m256  mean   = _mm256_set1_ps(mean_f);

	vmovss	xmm0, DWORD PTR _mean_f$[ebp]
	vbroadcastss ymm0, xmm0
	vmovups	YMMWORD PTR _mean$[ebp], ymm0

; 1561 :   __m256  accum  = _mm256_setzero_ps();

	vxorps	xmm0, xmm0, xmm0
	vmovups	YMMWORD PTR _accum$[ebp], ymm0

; 1562 : 
; 1563 :   for (i = 0; i + 31 < len; i += 32) {

	mov	DWORD PTR _i$[ebp], 0
	jmp	SHORT $LN10@pixel_var_
$LN8@pixel_var_:
	mov	eax, DWORD PTR _i$[ebp]
	add	eax, 32					; 00000020H
	mov	DWORD PTR _i$[ebp], eax
$LN10@pixel_var_:
	mov	eax, DWORD PTR _i$[ebp]
	add	eax, 31					; 0000001fH
	cmp	eax, DWORD PTR _len$[ebx]
	jae	$LN9@pixel_var_

; 1564 :     __m128i curr0    = _mm_loadl_epi64((const __m128i *)(buf + i +  0));

	mov	eax, DWORD PTR _buf$[ebx]
	add	eax, DWORD PTR _i$[ebp]
	vmovq	xmm0, QWORD PTR [eax]
	vmovdqa	XMMWORD PTR _curr0$24[ebp], xmm0

; 1565 :     __m128i curr1    = _mm_loadl_epi64((const __m128i *)(buf + i +  8));

	mov	eax, DWORD PTR _buf$[ebx]
	add	eax, DWORD PTR _i$[ebp]
	vmovq	xmm0, QWORD PTR [eax+8]
	vmovdqa	XMMWORD PTR _curr1$23[ebp], xmm0

; 1566 :     __m128i curr2    = _mm_loadl_epi64((const __m128i *)(buf + i + 16));

	mov	eax, DWORD PTR _buf$[ebx]
	add	eax, DWORD PTR _i$[ebp]
	vmovq	xmm0, QWORD PTR [eax+16]
	vmovdqa	XMMWORD PTR _curr2$22[ebp], xmm0

; 1567 :     __m128i curr3    = _mm_loadl_epi64((const __m128i *)(buf + i + 24));

	mov	eax, DWORD PTR _buf$[ebx]
	add	eax, DWORD PTR _i$[ebp]
	vmovq	xmm0, QWORD PTR [eax+24]
	vmovdqa	XMMWORD PTR _curr3$21[ebp], xmm0

; 1568 : 
; 1569 :     __m256i curr0_32 = _mm256_cvtepu8_epi32(curr0);

	vpmovzxbd ymm0, XMMWORD PTR _curr0$24[ebp]
	vmovdqu	YMMWORD PTR _curr0_32$20[ebp], ymm0

; 1570 :     __m256i curr1_32 = _mm256_cvtepu8_epi32(curr1);

	vpmovzxbd ymm0, XMMWORD PTR _curr1$23[ebp]
	vmovdqu	YMMWORD PTR _curr1_32$19[ebp], ymm0

; 1571 :     __m256i curr2_32 = _mm256_cvtepu8_epi32(curr2);

	vpmovzxbd ymm0, XMMWORD PTR _curr2$22[ebp]
	vmovdqu	YMMWORD PTR _curr2_32$18[ebp], ymm0

; 1572 :     __m256i curr3_32 = _mm256_cvtepu8_epi32(curr3);

	vpmovzxbd ymm0, XMMWORD PTR _curr3$21[ebp]
	vmovdqu	YMMWORD PTR _curr3_32$17[ebp], ymm0

; 1573 : 
; 1574 :     __m256  curr0_f  = _mm256_cvtepi32_ps  (curr0_32);

	vmovdqu	ymm0, YMMWORD PTR _curr0_32$20[ebp]
	vcvtdq2ps ymm0, ymm0
	vmovups	YMMWORD PTR _curr0_f$16[ebp], ymm0

; 1575 :     __m256  curr1_f  = _mm256_cvtepi32_ps  (curr1_32);

	vmovdqu	ymm0, YMMWORD PTR _curr1_32$19[ebp]
	vcvtdq2ps ymm0, ymm0
	vmovups	YMMWORD PTR _curr1_f$15[ebp], ymm0

; 1576 :     __m256  curr2_f  = _mm256_cvtepi32_ps  (curr2_32);

	vmovdqu	ymm0, YMMWORD PTR _curr2_32$18[ebp]
	vcvtdq2ps ymm0, ymm0
	vmovups	YMMWORD PTR _curr2_f$14[ebp], ymm0

; 1577 :     __m256  curr3_f  = _mm256_cvtepi32_ps  (curr3_32);

	vmovdqu	ymm0, YMMWORD PTR _curr3_32$17[ebp]
	vcvtdq2ps ymm0, ymm0
	vmovups	YMMWORD PTR _curr3_f$13[ebp], ymm0

; 1578 : 
; 1579 :     __m256  curr0_sd = _mm256_sub_ps       (curr0_f,  mean);

	vmovups	ymm0, YMMWORD PTR _curr0_f$16[ebp]
	vsubps	ymm0, ymm0, YMMWORD PTR _mean$[ebp]
	vmovups	YMMWORD PTR _curr0_sd$12[ebp], ymm0

; 1580 :     __m256  curr1_sd = _mm256_sub_ps       (curr1_f,  mean);

	vmovups	ymm0, YMMWORD PTR _curr1_f$15[ebp]
	vsubps	ymm0, ymm0, YMMWORD PTR _mean$[ebp]
	vmovups	YMMWORD PTR _curr1_sd$11[ebp], ymm0

; 1581 :     __m256  curr2_sd = _mm256_sub_ps       (curr2_f,  mean);

	vmovups	ymm0, YMMWORD PTR _curr2_f$14[ebp]
	vsubps	ymm0, ymm0, YMMWORD PTR _mean$[ebp]
	vmovups	YMMWORD PTR _curr2_sd$10[ebp], ymm0

; 1582 :     __m256  curr3_sd = _mm256_sub_ps       (curr3_f,  mean);

	vmovups	ymm0, YMMWORD PTR _curr3_f$13[ebp]
	vsubps	ymm0, ymm0, YMMWORD PTR _mean$[ebp]
	vmovups	YMMWORD PTR _curr3_sd$9[ebp], ymm0

; 1583 : 
; 1584 :     __m256  curr0_v  = _mm256_mul_ps       (curr0_sd, curr0_sd);

	vmovups	ymm0, YMMWORD PTR _curr0_sd$12[ebp]
	vmulps	ymm0, ymm0, YMMWORD PTR _curr0_sd$12[ebp]
	vmovups	YMMWORD PTR _curr0_v$8[ebp], ymm0

; 1585 :     __m256  curr1_v  = _mm256_mul_ps       (curr1_sd, curr1_sd);

	vmovups	ymm0, YMMWORD PTR _curr1_sd$11[ebp]
	vmulps	ymm0, ymm0, YMMWORD PTR _curr1_sd$11[ebp]
	vmovups	YMMWORD PTR _curr1_v$7[ebp], ymm0

; 1586 :     __m256  curr2_v  = _mm256_mul_ps       (curr2_sd, curr2_sd);

	vmovups	ymm0, YMMWORD PTR _curr2_sd$10[ebp]
	vmulps	ymm0, ymm0, YMMWORD PTR _curr2_sd$10[ebp]
	vmovups	YMMWORD PTR _curr2_v$6[ebp], ymm0

; 1587 :     __m256  curr3_v  = _mm256_mul_ps       (curr3_sd, curr3_sd);

	vmovups	ymm0, YMMWORD PTR _curr3_sd$9[ebp]
	vmulps	ymm0, ymm0, YMMWORD PTR _curr3_sd$9[ebp]
	vmovups	YMMWORD PTR _curr3_v$5[ebp], ymm0

; 1588 : 
; 1589 :     __m256  curr01   = _mm256_add_ps       (curr0_v,  curr1_v);

	vmovups	ymm0, YMMWORD PTR _curr0_v$8[ebp]
	vaddps	ymm0, ymm0, YMMWORD PTR _curr1_v$7[ebp]
	vmovups	YMMWORD PTR _curr01$4[ebp], ymm0

; 1590 :     __m256  curr23   = _mm256_add_ps       (curr2_v,  curr3_v);

	vmovups	ymm0, YMMWORD PTR _curr2_v$6[ebp]
	vaddps	ymm0, ymm0, YMMWORD PTR _curr3_v$5[ebp]
	vmovups	YMMWORD PTR _curr23$3[ebp], ymm0

; 1591 :     __m256  curr     = _mm256_add_ps       (curr01,   curr23);

	vmovups	ymm0, YMMWORD PTR _curr01$4[ebp]
	vaddps	ymm0, ymm0, YMMWORD PTR _curr23$3[ebp]
	vmovups	YMMWORD PTR _curr$2[ebp], ymm0

; 1592 :             accum    = _mm256_add_ps       (accum,    curr);

	vmovups	ymm0, YMMWORD PTR _accum$[ebp]
	vaddps	ymm0, ymm0, YMMWORD PTR _curr$2[ebp]
	vmovups	YMMWORD PTR _accum$[ebp], ymm0

; 1593 :   }

	jmp	$LN8@pixel_var_
$LN9@pixel_var_:

; 1594 :   __m256d accum_d  = _mm256_castps_pd     (accum);

	vmovupd	ymm0, YMMWORD PTR _accum$[ebp]
	vmovupd	YMMWORD PTR _accum_d$[ebp], ymm0

; 1595 :   __m256d accum2_d = _mm256_permute4x64_pd(accum_d, _MM_SHUFFLE(1, 0, 3, 2));

	vpermpd	ymm0, YMMWORD PTR _accum_d$[ebp], 78	; 0000004eH
	vmovupd	YMMWORD PTR _accum2_d$[ebp], ymm0

; 1596 :   __m256  accum2   = _mm256_castpd_ps     (accum2_d);

	vmovups	ymm0, YMMWORD PTR _accum2_d$[ebp]
	vmovups	YMMWORD PTR _accum2$[ebp], ymm0

; 1597 : 
; 1598 :   __m256  accum3   = _mm256_add_ps        (accum,  accum2);

	vmovups	ymm0, YMMWORD PTR _accum$[ebp]
	vaddps	ymm0, ymm0, YMMWORD PTR _accum2$[ebp]
	vmovups	YMMWORD PTR _accum3$[ebp], ymm0

; 1599 :   __m256  accum4   = _mm256_permute_ps    (accum3, _MM_SHUFFLE(1, 0, 3, 2));

	vpermilps ymm0, YMMWORD PTR _accum3$[ebp], 78	; 0000004eH
	vmovups	YMMWORD PTR _accum4$[ebp], ymm0

; 1600 :   __m256  accum5   = _mm256_add_ps        (accum3, accum4);

	vmovups	ymm0, YMMWORD PTR _accum3$[ebp]
	vaddps	ymm0, ymm0, YMMWORD PTR _accum4$[ebp]
	vmovups	YMMWORD PTR _accum5$[ebp], ymm0

; 1601 :   __m256  accum6   = _mm256_permute_ps    (accum5, _MM_SHUFFLE(2, 3, 0, 1));

	vpermilps ymm0, YMMWORD PTR _accum5$[ebp], 177	; 000000b1H
	vmovups	YMMWORD PTR _accum6$[ebp], ymm0

; 1602 :   __m256  accum7   = _mm256_add_ps        (accum5, accum6);

	vmovups	ymm0, YMMWORD PTR _accum5$[ebp]
	vaddps	ymm0, ymm0, YMMWORD PTR _accum6$[ebp]
	vmovups	YMMWORD PTR _accum7$[ebp], ymm0

; 1603 : 
; 1604 :   __m128  accum8   = _mm256_castps256_ps128(accum7);

	vmovups	xmm0, XMMWORD PTR _accum7$[ebp]
	vmovaps	XMMWORD PTR _accum8$[ebp], xmm0

; 1605 :   float   var_sum  = _mm_cvtss_f32         (accum8);

	vmovaps	xmm0, XMMWORD PTR _accum8$[ebp]
	vmovss	DWORD PTR tv274[ebp], xmm0
	vmovss	xmm0, DWORD PTR tv274[ebp]
	vmovss	DWORD PTR _var_sum$[ebp], xmm0

; 1606 : 
; 1607 :   // Remaining len mod 32 pixels
; 1608 :   for (; i < len; ++i) {

	jmp	SHORT $LN13@pixel_var_
$LN11@pixel_var_:
	mov	eax, DWORD PTR _i$[ebp]
	add	eax, 1
	mov	DWORD PTR _i$[ebp], eax
$LN13@pixel_var_:
	mov	eax, DWORD PTR _i$[ebp]
	cmp	eax, DWORD PTR _len$[ebx]
	jae	SHORT $LN12@pixel_var_

; 1609 :     float diff = buf[i] - mean_f;

	mov	eax, DWORD PTR _buf$[ebx]
	add	eax, DWORD PTR _i$[ebp]
	movzx	ecx, BYTE PTR [eax]
	vcvtsi2ss xmm0, xmm0, ecx
	vsubss	xmm0, xmm0, DWORD PTR _mean_f$[ebp]
	vmovss	DWORD PTR _diff$1[ebp], xmm0

; 1610 :     var_sum += diff * diff;

	vmovss	xmm0, DWORD PTR _diff$1[ebp]
	vmulss	xmm0, xmm0, DWORD PTR _diff$1[ebp]
	vmovss	xmm1, DWORD PTR _var_sum$[ebp]
	vaddss	xmm0, xmm1, xmm0
	vmovss	DWORD PTR _var_sum$[ebp], xmm0

; 1611 :   }

	jmp	SHORT $LN11@pixel_var_
$LN12@pixel_var_:

; 1612 : 
; 1613 :   return  var_sum / len_f;

	vmovss	xmm0, DWORD PTR _var_sum$[ebp]
	vdivss	xmm0, xmm0, DWORD PTR _len_f$[ebp]
	vmovss	DWORD PTR tv331[ebp], xmm0
	fld	DWORD PTR tv331[ebp]

; 1614 : }

	push	edx
	mov	ecx, ebp
	push	eax
	lea	edx, DWORD PTR $LN17@pixel_var_
	call	@_RTC_CheckStackVars@8
	pop	eax
	pop	edx
	pop	edi
	pop	esi
	mov	esp, ebp
	pop	ebp
	mov	esp, ebx
	pop	ebx
	ret	0
$LN17@pixel_var_:
	DD	1
	DD	$LN16@pixel_var_
$LN16@pixel_var_:
	DD	-80					; ffffffb0H
	DD	8
	DD	$LN15@pixel_var_
$LN15@pixel_var_:
	DB	115					; 00000073H
	DB	117					; 00000075H
	DB	109					; 0000006dH
	DB	0
_pixel_var_avx2_largebuf ENDP
_TEXT	ENDS
; Function compile flags: /Odtp /RTCsu /ZI
; File F:\open_codec_learn_2021\kvazaar-master\src\strategies\avx2\picture-avx2.c
;	COMDAT _hor_sad_avx2
_TEXT	SEGMENT
_pic_data$ = 8						; size = 4
_ref_data$ = 12						; size = 4
_width$ = 16						; size = 4
_height$ = 20						; size = 4
_pic_stride$ = 24					; size = 4
_ref_stride$ = 28					; size = 4
_left$ = 32						; size = 4
_right$ = 36						; size = 4
_hor_sad_avx2 PROC					; COMDAT

; 1515 : {

	push	ebp
	mov	ebp, esp
	sub	esp, 192				; 000000c0H
	push	ebx
	push	esi
	push	edi
	lea	edi, DWORD PTR [ebp-192]
	mov	ecx, 48					; 00000030H
	mov	eax, -858993460				; ccccccccH
	rep stosd
	mov	ecx, OFFSET __5DE43F84_picture-avx2@c
	call	@__CheckForDebuggerJustMyCode@4

; 1516 :   if (width == 4)

	cmp	DWORD PTR _width$[ebp], 4
	jne	SHORT $LN2@hor_sad_av

; 1517 :     return hor_sad_sse41_w4(pic_data, ref_data, height,

	mov	eax, DWORD PTR _right$[ebp]
	push	eax
	mov	ecx, DWORD PTR _left$[ebp]
	push	ecx
	mov	edx, DWORD PTR _ref_stride$[ebp]
	push	edx
	mov	eax, DWORD PTR _pic_stride$[ebp]
	push	eax
	mov	ecx, DWORD PTR _height$[ebp]
	push	ecx
	mov	edx, DWORD PTR _ref_data$[ebp]
	push	edx
	mov	eax, DWORD PTR _pic_data$[ebp]
	push	eax
	call	_hor_sad_sse41_w4
	add	esp, 28					; 0000001cH
	jmp	$LN1@hor_sad_av
$LN2@hor_sad_av:

; 1518 :                             pic_stride, ref_stride, left, right);
; 1519 :   if (width == 8)

	cmp	DWORD PTR _width$[ebp], 8
	jne	SHORT $LN3@hor_sad_av

; 1520 :     return hor_sad_sse41_w8(pic_data, ref_data, height,

	mov	eax, DWORD PTR _right$[ebp]
	push	eax
	mov	ecx, DWORD PTR _left$[ebp]
	push	ecx
	mov	edx, DWORD PTR _ref_stride$[ebp]
	push	edx
	mov	eax, DWORD PTR _pic_stride$[ebp]
	push	eax
	mov	ecx, DWORD PTR _height$[ebp]
	push	ecx
	mov	edx, DWORD PTR _ref_data$[ebp]
	push	edx
	mov	eax, DWORD PTR _pic_data$[ebp]
	push	eax
	call	_hor_sad_sse41_w8
	add	esp, 28					; 0000001cH
	jmp	$LN1@hor_sad_av
$LN3@hor_sad_av:

; 1521 :                             pic_stride, ref_stride, left, right);
; 1522 :   if (width == 16)

	cmp	DWORD PTR _width$[ebp], 16		; 00000010H
	jne	SHORT $LN4@hor_sad_av

; 1523 :     return hor_sad_sse41_w16(pic_data, ref_data, height,

	mov	eax, DWORD PTR _right$[ebp]
	push	eax
	mov	ecx, DWORD PTR _left$[ebp]
	push	ecx
	mov	edx, DWORD PTR _ref_stride$[ebp]
	push	edx
	mov	eax, DWORD PTR _pic_stride$[ebp]
	push	eax
	mov	ecx, DWORD PTR _height$[ebp]
	push	ecx
	mov	edx, DWORD PTR _ref_data$[ebp]
	push	edx
	mov	eax, DWORD PTR _pic_data$[ebp]
	push	eax
	call	_hor_sad_sse41_w16
	add	esp, 28					; 0000001cH
	jmp	SHORT $LN1@hor_sad_av
$LN4@hor_sad_av:

; 1524 :                              pic_stride, ref_stride, left, right);
; 1525 :   if (width == 32)

	cmp	DWORD PTR _width$[ebp], 32		; 00000020H
	jne	SHORT $LN5@hor_sad_av

; 1526 :     return hor_sad_avx2_w32 (pic_data, ref_data, height,

	mov	eax, DWORD PTR _right$[ebp]
	push	eax
	mov	ecx, DWORD PTR _left$[ebp]
	push	ecx
	mov	edx, DWORD PTR _ref_stride$[ebp]
	push	edx
	mov	eax, DWORD PTR _pic_stride$[ebp]
	push	eax
	mov	ecx, DWORD PTR _height$[ebp]
	push	ecx
	mov	edx, DWORD PTR _ref_data$[ebp]
	push	edx
	mov	eax, DWORD PTR _pic_data$[ebp]
	push	eax
	call	_hor_sad_avx2_w32
	add	esp, 28					; 0000001cH
	jmp	SHORT $LN1@hor_sad_av
	jmp	SHORT $LN1@hor_sad_av
$LN5@hor_sad_av:

; 1527 :                              pic_stride, ref_stride, left, right);
; 1528 :   else
; 1529 :     return hor_sad_sse41_arbitrary(pic_data, ref_data, width, height,

	mov	eax, DWORD PTR _right$[ebp]
	push	eax
	mov	ecx, DWORD PTR _left$[ebp]
	push	ecx
	mov	edx, DWORD PTR _ref_stride$[ebp]
	push	edx
	mov	eax, DWORD PTR _pic_stride$[ebp]
	push	eax
	mov	ecx, DWORD PTR _height$[ebp]
	push	ecx
	mov	edx, DWORD PTR _width$[ebp]
	push	edx
	mov	eax, DWORD PTR _ref_data$[ebp]
	push	eax
	mov	ecx, DWORD PTR _pic_data$[ebp]
	push	ecx
	call	_hor_sad_sse41_arbitrary
	add	esp, 32					; 00000020H
$LN1@hor_sad_av:

; 1530 :                                    pic_stride, ref_stride, left, right);
; 1531 : }

	pop	edi
	pop	esi
	pop	ebx
	add	esp, 192				; 000000c0H
	cmp	ebp, esp
	call	__RTC_CheckEsp
	mov	esp, ebp
	pop	ebp
	ret	0
_hor_sad_avx2 ENDP
_TEXT	ENDS
; Function compile flags: /Odtp /RTCsu /ZI
; File F:\open_codec_learn_2021\kvazaar-master\src\strategies\avx2\picture-avx2.c
;	COMDAT _ver_sad_avx2
_TEXT	SEGMENT
_pic_data$ = 8						; size = 4
_ref_data$ = 12						; size = 4
_width$ = 16						; size = 4
_height$ = 20						; size = 4
_stride$ = 24						; size = 4
_ver_sad_avx2 PROC					; COMDAT

; 1497 : {

	push	ebp
	mov	ebp, esp
	sub	esp, 192				; 000000c0H
	push	ebx
	push	esi
	push	edi
	lea	edi, DWORD PTR [ebp-192]
	mov	ecx, 48					; 00000030H
	mov	eax, -858993460				; ccccccccH
	rep stosd
	mov	ecx, OFFSET __5DE43F84_picture-avx2@c
	call	@__CheckForDebuggerJustMyCode@4

; 1498 :   if (width == 0)

	cmp	DWORD PTR _width$[ebp], 0
	jne	SHORT $LN2@ver_sad_av

; 1499 :     return 0;

	xor	eax, eax
	jmp	$LN1@ver_sad_av
$LN2@ver_sad_av:

; 1500 :   if (width == 4)

	cmp	DWORD PTR _width$[ebp], 4
	jne	SHORT $LN3@ver_sad_av

; 1501 :     return ver_sad_w4(pic_data, ref_data, height, stride);

	mov	eax, DWORD PTR _stride$[ebp]
	push	eax
	mov	ecx, DWORD PTR _height$[ebp]
	push	ecx
	mov	edx, DWORD PTR _ref_data$[ebp]
	push	edx
	mov	eax, DWORD PTR _pic_data$[ebp]
	push	eax
	call	_ver_sad_w4
	add	esp, 16					; 00000010H
	jmp	SHORT $LN1@ver_sad_av
$LN3@ver_sad_av:

; 1502 :   if (width == 8)

	cmp	DWORD PTR _width$[ebp], 8
	jne	SHORT $LN4@ver_sad_av

; 1503 :     return ver_sad_w8(pic_data, ref_data, height, stride);

	mov	eax, DWORD PTR _stride$[ebp]
	push	eax
	mov	ecx, DWORD PTR _height$[ebp]
	push	ecx
	mov	edx, DWORD PTR _ref_data$[ebp]
	push	edx
	mov	eax, DWORD PTR _pic_data$[ebp]
	push	eax
	call	_ver_sad_w8
	add	esp, 16					; 00000010H
	jmp	SHORT $LN1@ver_sad_av
$LN4@ver_sad_av:

; 1504 :   if (width == 12)

	cmp	DWORD PTR _width$[ebp], 12		; 0000000cH
	jne	SHORT $LN5@ver_sad_av

; 1505 :     return ver_sad_w12(pic_data, ref_data, height, stride);

	mov	eax, DWORD PTR _stride$[ebp]
	push	eax
	mov	ecx, DWORD PTR _height$[ebp]
	push	ecx
	mov	edx, DWORD PTR _ref_data$[ebp]
	push	edx
	mov	eax, DWORD PTR _pic_data$[ebp]
	push	eax
	call	_ver_sad_w12
	add	esp, 16					; 00000010H
	jmp	SHORT $LN1@ver_sad_av
$LN5@ver_sad_av:

; 1506 :   if (width == 16)

	cmp	DWORD PTR _width$[ebp], 16		; 00000010H
	jne	SHORT $LN6@ver_sad_av

; 1507 :     return ver_sad_w16(pic_data, ref_data, height, stride);

	mov	eax, DWORD PTR _stride$[ebp]
	push	eax
	mov	ecx, DWORD PTR _height$[ebp]
	push	ecx
	mov	edx, DWORD PTR _ref_data$[ebp]
	push	edx
	mov	eax, DWORD PTR _pic_data$[ebp]
	push	eax
	call	_ver_sad_w16
	add	esp, 16					; 00000010H
	jmp	SHORT $LN1@ver_sad_av
	jmp	SHORT $LN1@ver_sad_av
$LN6@ver_sad_av:

; 1508 :   else
; 1509 :     return ver_sad_arbitrary(pic_data, ref_data, width, height, stride);

	mov	eax, DWORD PTR _stride$[ebp]
	push	eax
	mov	ecx, DWORD PTR _height$[ebp]
	push	ecx
	mov	edx, DWORD PTR _width$[ebp]
	push	edx
	mov	eax, DWORD PTR _ref_data$[ebp]
	push	eax
	mov	ecx, DWORD PTR _pic_data$[ebp]
	push	ecx
	call	_ver_sad_arbitrary
	add	esp, 20					; 00000014H
$LN1@ver_sad_av:

; 1510 : }

	pop	edi
	pop	esi
	pop	ebx
	add	esp, 192				; 000000c0H
	cmp	ebp, esp
	call	__RTC_CheckEsp
	mov	esp, ebp
	pop	ebp
	ret	0
_ver_sad_avx2 ENDP
_TEXT	ENDS
; Function compile flags: /Odtp /RTCsu /ZI
; File F:\open_codec_learn_2021\kvazaar-master\src\strategies\avx2\picture-avx2.c
;	COMDAT _get_optimized_sad_avx2
_TEXT	SEGMENT
_width$ = 8						; size = 4
_get_optimized_sad_avx2 PROC				; COMDAT

; 1474 : {

	push	ebp
	mov	ebp, esp
	sub	esp, 192				; 000000c0H
	push	ebx
	push	esi
	push	edi
	lea	edi, DWORD PTR [ebp-192]
	mov	ecx, 48					; 00000030H
	mov	eax, -858993460				; ccccccccH
	rep stosd
	mov	ecx, OFFSET __5DE43F84_picture-avx2@c
	call	@__CheckForDebuggerJustMyCode@4

; 1475 :   if (width == 0)

	cmp	DWORD PTR _width$[ebp], 0
	jne	SHORT $LN2@get_optimi

; 1476 :     return reg_sad_w0;

	mov	eax, OFFSET _reg_sad_w0
	jmp	SHORT $LN1@get_optimi
$LN2@get_optimi:

; 1477 :   if (width == 4)

	cmp	DWORD PTR _width$[ebp], 4
	jne	SHORT $LN3@get_optimi

; 1478 :     return reg_sad_w4;

	mov	eax, OFFSET _reg_sad_w4
	jmp	SHORT $LN1@get_optimi
$LN3@get_optimi:

; 1479 :   if (width == 8)

	cmp	DWORD PTR _width$[ebp], 8
	jne	SHORT $LN4@get_optimi

; 1480 :     return reg_sad_w8;

	mov	eax, OFFSET _reg_sad_w8
	jmp	SHORT $LN1@get_optimi
$LN4@get_optimi:

; 1481 :   if (width == 12)

	cmp	DWORD PTR _width$[ebp], 12		; 0000000cH
	jne	SHORT $LN5@get_optimi

; 1482 :     return reg_sad_w12;

	mov	eax, OFFSET _reg_sad_w12
	jmp	SHORT $LN1@get_optimi
$LN5@get_optimi:

; 1483 :   if (width == 16)

	cmp	DWORD PTR _width$[ebp], 16		; 00000010H
	jne	SHORT $LN6@get_optimi

; 1484 :     return reg_sad_w16;

	mov	eax, OFFSET _reg_sad_w16
	jmp	SHORT $LN1@get_optimi
$LN6@get_optimi:

; 1485 :   if (width == 24)

	cmp	DWORD PTR _width$[ebp], 24		; 00000018H
	jne	SHORT $LN7@get_optimi

; 1486 :     return reg_sad_w24;

	mov	eax, OFFSET _reg_sad_w24
	jmp	SHORT $LN1@get_optimi
$LN7@get_optimi:

; 1487 :   if (width == 32)

	cmp	DWORD PTR _width$[ebp], 32		; 00000020H
	jne	SHORT $LN8@get_optimi

; 1488 :     return reg_sad_w32;

	mov	eax, OFFSET _reg_sad_w32
	jmp	SHORT $LN1@get_optimi
$LN8@get_optimi:

; 1489 :   if (width == 64)

	cmp	DWORD PTR _width$[ebp], 64		; 00000040H
	jne	SHORT $LN9@get_optimi

; 1490 :     return reg_sad_w64;

	mov	eax, OFFSET _reg_sad_w64
	jmp	SHORT $LN1@get_optimi
	jmp	SHORT $LN1@get_optimi
$LN9@get_optimi:

; 1491 :   else
; 1492 :     return NULL;

	xor	eax, eax
$LN1@get_optimi:

; 1493 : }

	pop	edi
	pop	esi
	pop	ebx
	add	esp, 192				; 000000c0H
	cmp	ebp, esp
	call	__RTC_CheckEsp
	mov	esp, ebp
	pop	ebp
	ret	0
_get_optimized_sad_avx2 ENDP
_TEXT	ENDS
; Function compile flags: /Odtp /RTCsu /ZI
; File F:\open_codec_learn_2021\kvazaar-master\src\strategies\avx2\picture-avx2.c
;	COMDAT _bipred_average_avx2
_TEXT	SEGMENT
tv225 = -316						; size = 4
tv220 = -316						; size = 4
tv215 = -316						; size = 4
tv210 = -316						; size = 4
tv139 = -316						; size = 4
tv134 = -316						; size = 4
_src_im_v$1 = -116					; size = 4
_src_px_v$2 = -104					; size = 4
_src_im_u$3 = -92					; size = 4
_src_px_u$4 = -80					; size = 4
_pb_h$5 = -68						; size = 4
_pb_w$6 = -56						; size = 4
_pb_offset$7 = -44					; size = 4
_src_im$8 = -32						; size = 4
_src_px$9 = -20						; size = 4
_pb_offset$10 = -8					; size = 4
_lcu$ = 8						; size = 4
_px_L0$ = 12						; size = 4
_px_L1$ = 16						; size = 4
_im_L0$ = 20						; size = 4
_im_L1$ = 24						; size = 4
_pu_x$ = 28						; size = 4
_pu_y$ = 32						; size = 4
_pu_w$ = 36						; size = 4
_pu_h$ = 40						; size = 4
_im_flags_L0$ = 44					; size = 4
_im_flags_L1$ = 48					; size = 4
_predict_luma$ = 52					; size = 1
_predict_chroma$ = 56					; size = 1
_bipred_average_avx2 PROC				; COMDAT

; 1431 :   const bool predict_chroma) {

	push	ebp
	mov	ebp, esp
	sub	esp, 316				; 0000013cH
	push	ebx
	push	esi
	push	edi
	lea	edi, DWORD PTR [ebp-316]
	mov	ecx, 79					; 0000004fH
	mov	eax, -858993460				; ccccccccH
	rep stosd
	mov	ecx, OFFSET __5DE43F84_picture-avx2@c
	call	@__CheckForDebuggerJustMyCode@4

; 1432 : 
; 1433 :   //After reconstruction, merge the predictors by taking an average of each pixel
; 1434 :   if (predict_luma) {

	movzx	eax, BYTE PTR _predict_luma$[ebp]
	test	eax, eax
	je	$LN2@bipred_ave

; 1435 :     unsigned pb_offset = SUB_SCU(pu_y) * LCU_WIDTH + SUB_SCU(pu_x);

	mov	eax, DWORD PTR _pu_y$[ebp]
	and	eax, 63					; 0000003fH
	shl	eax, 6
	mov	ecx, DWORD PTR _pu_x$[ebp]
	and	ecx, 63					; 0000003fH
	add	eax, ecx
	mov	DWORD PTR _pb_offset$10[ebp], eax

; 1436 : 
; 1437 :     if (!(im_flags_L0 & 1) && !(im_flags_L1 & 1)) {

	mov	eax, DWORD PTR _im_flags_L0$[ebp]
	and	eax, 1
	jne	SHORT $LN3@bipred_ave
	mov	eax, DWORD PTR _im_flags_L1$[ebp]
	and	eax, 1
	jne	SHORT $LN3@bipred_ave

; 1438 :       bipred_average_px_px_avx2(lcu->rec.y + pb_offset, px_L0->y, px_L1->y, pu_w, pu_h, LCU_WIDTH);

	push	64					; 00000040H
	mov	eax, DWORD PTR _pu_h$[ebp]
	push	eax
	mov	ecx, DWORD PTR _pu_w$[ebp]
	push	ecx
	mov	edx, DWORD PTR _px_L1$[ebp]
	mov	eax, DWORD PTR [edx+4]
	push	eax
	mov	ecx, DWORD PTR _px_L0$[ebp]
	mov	edx, DWORD PTR [ecx+4]
	push	edx
	mov	eax, DWORD PTR _pb_offset$10[ebp]
	mov	ecx, DWORD PTR _lcu$[ebp]
	lea	edx, DWORD PTR [ecx+eax+6540]
	push	edx
	call	_bipred_average_px_px_avx2
	add	esp, 24					; 00000018H
	jmp	$LN2@bipred_ave
$LN3@bipred_ave:

; 1439 : 
; 1440 :     } else if ((im_flags_L0 & 1) && (im_flags_L1 & 1)) {

	mov	eax, DWORD PTR _im_flags_L0$[ebp]
	and	eax, 1
	je	SHORT $LN5@bipred_ave
	mov	eax, DWORD PTR _im_flags_L1$[ebp]
	and	eax, 1
	je	SHORT $LN5@bipred_ave

; 1441 :       bipred_average_im_im_avx2(lcu->rec.y + pb_offset, im_L0->y, im_L1->y, pu_w, pu_h, LCU_WIDTH);

	push	64					; 00000040H
	mov	eax, DWORD PTR _pu_h$[ebp]
	push	eax
	mov	ecx, DWORD PTR _pu_w$[ebp]
	push	ecx
	mov	edx, DWORD PTR _im_L1$[ebp]
	mov	eax, DWORD PTR [edx+4]
	push	eax
	mov	ecx, DWORD PTR _im_L0$[ebp]
	mov	edx, DWORD PTR [ecx+4]
	push	edx
	mov	eax, DWORD PTR _pb_offset$10[ebp]
	mov	ecx, DWORD PTR _lcu$[ebp]
	lea	edx, DWORD PTR [ecx+eax+6540]
	push	edx
	call	_bipred_average_im_im_avx2
	add	esp, 24					; 00000018H

; 1442 : 
; 1443 :     } else {

	jmp	SHORT $LN2@bipred_ave
$LN5@bipred_ave:

; 1444 :       kvz_pixel *src_px    = (im_flags_L0 & 1) ? px_L1->y : px_L0->y;

	mov	eax, DWORD PTR _im_flags_L0$[ebp]
	and	eax, 1
	je	SHORT $LN13@bipred_ave
	mov	ecx, DWORD PTR _px_L1$[ebp]
	mov	edx, DWORD PTR [ecx+4]
	mov	DWORD PTR tv134[ebp], edx
	jmp	SHORT $LN14@bipred_ave
$LN13@bipred_ave:
	mov	eax, DWORD PTR _px_L0$[ebp]
	mov	ecx, DWORD PTR [eax+4]
	mov	DWORD PTR tv134[ebp], ecx
$LN14@bipred_ave:
	mov	edx, DWORD PTR tv134[ebp]
	mov	DWORD PTR _src_px$9[ebp], edx

; 1445 :       kvz_pixel_im *src_im = (im_flags_L0 & 1) ? im_L0->y : im_L1->y;

	mov	eax, DWORD PTR _im_flags_L0$[ebp]
	and	eax, 1
	je	SHORT $LN15@bipred_ave
	mov	ecx, DWORD PTR _im_L0$[ebp]
	mov	edx, DWORD PTR [ecx+4]
	mov	DWORD PTR tv139[ebp], edx
	jmp	SHORT $LN16@bipred_ave
$LN15@bipred_ave:
	mov	eax, DWORD PTR _im_L1$[ebp]
	mov	ecx, DWORD PTR [eax+4]
	mov	DWORD PTR tv139[ebp], ecx
$LN16@bipred_ave:
	mov	edx, DWORD PTR tv139[ebp]
	mov	DWORD PTR _src_im$8[ebp], edx

; 1446 :       bipred_average_px_im_avx2(lcu->rec.y + pb_offset, src_px, src_im, pu_w, pu_h, LCU_WIDTH);

	push	64					; 00000040H
	mov	eax, DWORD PTR _pu_h$[ebp]
	push	eax
	mov	ecx, DWORD PTR _pu_w$[ebp]
	push	ecx
	mov	edx, DWORD PTR _src_im$8[ebp]
	push	edx
	mov	eax, DWORD PTR _src_px$9[ebp]
	push	eax
	mov	ecx, DWORD PTR _pb_offset$10[ebp]
	mov	edx, DWORD PTR _lcu$[ebp]
	lea	eax, DWORD PTR [edx+ecx+6540]
	push	eax
	call	_bipred_average_px_im_avx2
	add	esp, 24					; 00000018H
$LN2@bipred_ave:

; 1447 :     }
; 1448 :   }
; 1449 :   if (predict_chroma) {

	movzx	eax, BYTE PTR _predict_chroma$[ebp]
	test	eax, eax
	je	$LN1@bipred_ave

; 1450 :     unsigned pb_offset = SUB_SCU(pu_y) / 2 * LCU_WIDTH_C + SUB_SCU(pu_x) / 2;

	mov	eax, DWORD PTR _pu_y$[ebp]
	and	eax, 63					; 0000003fH
	shr	eax, 1
	shl	eax, 5
	mov	ecx, DWORD PTR _pu_x$[ebp]
	and	ecx, 63					; 0000003fH
	shr	ecx, 1
	add	eax, ecx
	mov	DWORD PTR _pb_offset$7[ebp], eax

; 1451 :     unsigned pb_w = pu_w / 2;

	mov	eax, DWORD PTR _pu_w$[ebp]
	shr	eax, 1
	mov	DWORD PTR _pb_w$6[ebp], eax

; 1452 :     unsigned pb_h = pu_h / 2;

	mov	eax, DWORD PTR _pu_h$[ebp]
	shr	eax, 1
	mov	DWORD PTR _pb_h$5[ebp], eax

; 1453 : 
; 1454 :     if (!(im_flags_L0 & 2) && !(im_flags_L1 & 2)) {

	mov	eax, DWORD PTR _im_flags_L0$[ebp]
	and	eax, 2
	jne	SHORT $LN8@bipred_ave
	mov	eax, DWORD PTR _im_flags_L1$[ebp]
	and	eax, 2
	jne	SHORT $LN8@bipred_ave

; 1455 :       bipred_average_px_px_avx2(lcu->rec.u + pb_offset, px_L0->u, px_L1->u, pb_w, pb_h, LCU_WIDTH_C);

	push	32					; 00000020H
	mov	eax, DWORD PTR _pb_h$5[ebp]
	push	eax
	mov	ecx, DWORD PTR _pb_w$6[ebp]
	push	ecx
	mov	edx, DWORD PTR _px_L1$[ebp]
	mov	eax, DWORD PTR [edx+8]
	push	eax
	mov	ecx, DWORD PTR _px_L0$[ebp]
	mov	edx, DWORD PTR [ecx+8]
	push	edx
	mov	eax, DWORD PTR _pb_offset$7[ebp]
	mov	ecx, DWORD PTR _lcu$[ebp]
	lea	edx, DWORD PTR [ecx+eax+10636]
	push	edx
	call	_bipred_average_px_px_avx2
	add	esp, 24					; 00000018H

; 1456 :       bipred_average_px_px_avx2(lcu->rec.v + pb_offset, px_L0->v, px_L1->v, pb_w, pb_h, LCU_WIDTH_C);

	push	32					; 00000020H
	mov	eax, DWORD PTR _pb_h$5[ebp]
	push	eax
	mov	ecx, DWORD PTR _pb_w$6[ebp]
	push	ecx
	mov	edx, DWORD PTR _px_L1$[ebp]
	mov	eax, DWORD PTR [edx+12]
	push	eax
	mov	ecx, DWORD PTR _px_L0$[ebp]
	mov	edx, DWORD PTR [ecx+12]
	push	edx
	mov	eax, DWORD PTR _pb_offset$7[ebp]
	mov	ecx, DWORD PTR _lcu$[ebp]
	lea	edx, DWORD PTR [ecx+eax+11660]
	push	edx
	call	_bipred_average_px_px_avx2
	add	esp, 24					; 00000018H
	jmp	$LN1@bipred_ave
$LN8@bipred_ave:

; 1457 : 
; 1458 :     } else if ((im_flags_L0 & 2) && (im_flags_L1 & 2)) {

	mov	eax, DWORD PTR _im_flags_L0$[ebp]
	and	eax, 2
	je	SHORT $LN10@bipred_ave
	mov	eax, DWORD PTR _im_flags_L1$[ebp]
	and	eax, 2
	je	SHORT $LN10@bipred_ave

; 1459 :       bipred_average_im_im_avx2(lcu->rec.u + pb_offset, im_L0->u, im_L1->u, pb_w, pb_h, LCU_WIDTH_C);

	push	32					; 00000020H
	mov	eax, DWORD PTR _pb_h$5[ebp]
	push	eax
	mov	ecx, DWORD PTR _pb_w$6[ebp]
	push	ecx
	mov	edx, DWORD PTR _im_L1$[ebp]
	mov	eax, DWORD PTR [edx+8]
	push	eax
	mov	ecx, DWORD PTR _im_L0$[ebp]
	mov	edx, DWORD PTR [ecx+8]
	push	edx
	mov	eax, DWORD PTR _pb_offset$7[ebp]
	mov	ecx, DWORD PTR _lcu$[ebp]
	lea	edx, DWORD PTR [ecx+eax+10636]
	push	edx
	call	_bipred_average_im_im_avx2
	add	esp, 24					; 00000018H

; 1460 :       bipred_average_im_im_avx2(lcu->rec.v + pb_offset, im_L0->v, im_L1->v, pb_w, pb_h, LCU_WIDTH_C);

	push	32					; 00000020H
	mov	eax, DWORD PTR _pb_h$5[ebp]
	push	eax
	mov	ecx, DWORD PTR _pb_w$6[ebp]
	push	ecx
	mov	edx, DWORD PTR _im_L1$[ebp]
	mov	eax, DWORD PTR [edx+12]
	push	eax
	mov	ecx, DWORD PTR _im_L0$[ebp]
	mov	edx, DWORD PTR [ecx+12]
	push	edx
	mov	eax, DWORD PTR _pb_offset$7[ebp]
	mov	ecx, DWORD PTR _lcu$[ebp]
	lea	edx, DWORD PTR [ecx+eax+11660]
	push	edx
	call	_bipred_average_im_im_avx2
	add	esp, 24					; 00000018H

; 1461 : 
; 1462 :     } else {

	jmp	$LN1@bipred_ave
$LN10@bipred_ave:

; 1463 :       kvz_pixel    *src_px_u = (im_flags_L0 & 2) ? px_L1->u : px_L0->u;

	mov	eax, DWORD PTR _im_flags_L0$[ebp]
	and	eax, 2
	je	SHORT $LN17@bipred_ave
	mov	ecx, DWORD PTR _px_L1$[ebp]
	mov	edx, DWORD PTR [ecx+8]
	mov	DWORD PTR tv210[ebp], edx
	jmp	SHORT $LN18@bipred_ave
$LN17@bipred_ave:
	mov	eax, DWORD PTR _px_L0$[ebp]
	mov	ecx, DWORD PTR [eax+8]
	mov	DWORD PTR tv210[ebp], ecx
$LN18@bipred_ave:
	mov	edx, DWORD PTR tv210[ebp]
	mov	DWORD PTR _src_px_u$4[ebp], edx

; 1464 :       kvz_pixel_im *src_im_u = (im_flags_L0 & 2) ? im_L0->u : im_L1->u;

	mov	eax, DWORD PTR _im_flags_L0$[ebp]
	and	eax, 2
	je	SHORT $LN19@bipred_ave
	mov	ecx, DWORD PTR _im_L0$[ebp]
	mov	edx, DWORD PTR [ecx+8]
	mov	DWORD PTR tv215[ebp], edx
	jmp	SHORT $LN20@bipred_ave
$LN19@bipred_ave:
	mov	eax, DWORD PTR _im_L1$[ebp]
	mov	ecx, DWORD PTR [eax+8]
	mov	DWORD PTR tv215[ebp], ecx
$LN20@bipred_ave:
	mov	edx, DWORD PTR tv215[ebp]
	mov	DWORD PTR _src_im_u$3[ebp], edx

; 1465 :       kvz_pixel    *src_px_v = (im_flags_L0 & 2) ? px_L1->v : px_L0->v;

	mov	eax, DWORD PTR _im_flags_L0$[ebp]
	and	eax, 2
	je	SHORT $LN21@bipred_ave
	mov	ecx, DWORD PTR _px_L1$[ebp]
	mov	edx, DWORD PTR [ecx+12]
	mov	DWORD PTR tv220[ebp], edx
	jmp	SHORT $LN22@bipred_ave
$LN21@bipred_ave:
	mov	eax, DWORD PTR _px_L0$[ebp]
	mov	ecx, DWORD PTR [eax+12]
	mov	DWORD PTR tv220[ebp], ecx
$LN22@bipred_ave:
	mov	edx, DWORD PTR tv220[ebp]
	mov	DWORD PTR _src_px_v$2[ebp], edx

; 1466 :       kvz_pixel_im *src_im_v = (im_flags_L0 & 2) ? im_L0->v : im_L1->v;

	mov	eax, DWORD PTR _im_flags_L0$[ebp]
	and	eax, 2
	je	SHORT $LN23@bipred_ave
	mov	ecx, DWORD PTR _im_L0$[ebp]
	mov	edx, DWORD PTR [ecx+12]
	mov	DWORD PTR tv225[ebp], edx
	jmp	SHORT $LN24@bipred_ave
$LN23@bipred_ave:
	mov	eax, DWORD PTR _im_L1$[ebp]
	mov	ecx, DWORD PTR [eax+12]
	mov	DWORD PTR tv225[ebp], ecx
$LN24@bipred_ave:
	mov	edx, DWORD PTR tv225[ebp]
	mov	DWORD PTR _src_im_v$1[ebp], edx

; 1467 :       bipred_average_px_im_avx2(lcu->rec.u + pb_offset, src_px_u, src_im_u, pb_w, pb_h, LCU_WIDTH_C);

	push	32					; 00000020H
	mov	eax, DWORD PTR _pb_h$5[ebp]
	push	eax
	mov	ecx, DWORD PTR _pb_w$6[ebp]
	push	ecx
	mov	edx, DWORD PTR _src_im_u$3[ebp]
	push	edx
	mov	eax, DWORD PTR _src_px_u$4[ebp]
	push	eax
	mov	ecx, DWORD PTR _pb_offset$7[ebp]
	mov	edx, DWORD PTR _lcu$[ebp]
	lea	eax, DWORD PTR [edx+ecx+10636]
	push	eax
	call	_bipred_average_px_im_avx2
	add	esp, 24					; 00000018H

; 1468 :       bipred_average_px_im_avx2(lcu->rec.v + pb_offset, src_px_v, src_im_v, pb_w, pb_h, LCU_WIDTH_C);

	push	32					; 00000020H
	mov	eax, DWORD PTR _pb_h$5[ebp]
	push	eax
	mov	ecx, DWORD PTR _pb_w$6[ebp]
	push	ecx
	mov	edx, DWORD PTR _src_im_v$1[ebp]
	push	edx
	mov	eax, DWORD PTR _src_px_v$2[ebp]
	push	eax
	mov	ecx, DWORD PTR _pb_offset$7[ebp]
	mov	edx, DWORD PTR _lcu$[ebp]
	lea	eax, DWORD PTR [edx+ecx+11660]
	push	eax
	call	_bipred_average_px_im_avx2
	add	esp, 24					; 00000018H
$LN1@bipred_ave:

; 1469 :     }
; 1470 :   }
; 1471 : }

	pop	edi
	pop	esi
	pop	ebx
	add	esp, 316				; 0000013cH
	cmp	ebp, esp
	call	__RTC_CheckEsp
	mov	esp, ebp
	pop	ebp
	ret	0
_bipred_average_avx2 ENDP
_TEXT	ENDS
; Function compile flags: /Odtp /RTCsu /ZI
; File F:\open_codec_learn_2021\kvazaar-master\src\strategies\avx2\picture-avx2.c
;	COMDAT _bipred_average_px_im_avx2
_TEXT	SEGMENT
tv67 = -292						; size = 4
_rounded$1 = -92					; size = 4
_sample_im$2 = -80					; size = 2
_sample_px$3 = -68					; size = 2
_x$4 = -56						; size = 4
_y$5 = -44						; size = 4
_i$6 = -32						; size = 4
_offset$7 = -20						; size = 4
_shift$8 = -8						; size = 4
_dst$ = 8						; size = 4
_px$ = 12						; size = 4
_im$ = 16						; size = 4
_pu_w$ = 20						; size = 4
_pu_h$ = 24						; size = 4
_dst_stride$ = 28					; size = 4
_bipred_average_px_im_avx2 PROC				; COMDAT

; 1385 : {

	push	ebp
	mov	ebp, esp
	sub	esp, 292				; 00000124H
	push	ebx
	push	esi
	push	edi
	lea	edi, DWORD PTR [ebp-292]
	mov	ecx, 73					; 00000049H
	mov	eax, -858993460				; ccccccccH
	rep stosd
	mov	ecx, OFFSET __5DE43F84_picture-avx2@c
	call	@__CheckForDebuggerJustMyCode@4

; 1386 :   // Use scalar code for yet unoptimized block sizes (4x4, 2x8)
; 1387 :   if (!(pu_w == 4 && pu_h == 4) && pu_w > 2) {

	cmp	DWORD PTR _pu_w$[ebp], 4
	jne	SHORT $LN9@bipred_ave
	cmp	DWORD PTR _pu_h$[ebp], 4
	je	$LN7@bipred_ave
$LN9@bipred_ave:
	cmp	DWORD PTR _pu_w$[ebp], 2
	jbe	$LN7@bipred_ave

; 1388 :     switch (pu_w) {

	mov	eax, DWORD PTR _pu_w$[ebp]
	mov	DWORD PTR tv67[ebp], eax
	mov	ecx, DWORD PTR tv67[ebp]
	sub	ecx, 4
	mov	DWORD PTR tv67[ebp], ecx
	cmp	DWORD PTR tv67[ebp], 60			; 0000003cH
	ja	$LN19@bipred_ave
	mov	edx, DWORD PTR tv67[ebp]
	movzx	eax, BYTE PTR $LN22@bipred_ave[edx]
	jmp	DWORD PTR $LN23@bipred_ave[eax*4]
$LN10@bipred_ave:

; 1389 :       case  4: bipred_average_px_im_template_avx2(dst, px, im,  4, pu_h, dst_stride); break;

	mov	eax, DWORD PTR _dst_stride$[ebp]
	push	eax
	mov	ecx, DWORD PTR _pu_h$[ebp]
	push	ecx
	push	4
	mov	edx, DWORD PTR _im$[ebp]
	push	edx
	mov	eax, DWORD PTR _px$[ebp]
	push	eax
	mov	ecx, DWORD PTR _dst$[ebp]
	push	ecx
	call	_bipred_average_px_im_template_avx2
	add	esp, 24					; 00000018H
	jmp	$LN2@bipred_ave
$LN11@bipred_ave:

; 1390 :       case  8: bipred_average_px_im_template_avx2(dst, px, im,  8, pu_h, dst_stride); break;

	mov	eax, DWORD PTR _dst_stride$[ebp]
	push	eax
	mov	ecx, DWORD PTR _pu_h$[ebp]
	push	ecx
	push	8
	mov	edx, DWORD PTR _im$[ebp]
	push	edx
	mov	eax, DWORD PTR _px$[ebp]
	push	eax
	mov	ecx, DWORD PTR _dst$[ebp]
	push	ecx
	call	_bipred_average_px_im_template_avx2
	add	esp, 24					; 00000018H
	jmp	$LN2@bipred_ave
$LN12@bipred_ave:

; 1391 :       case 16: bipred_average_px_im_template_avx2(dst, px, im, 16, pu_h, dst_stride); break;

	mov	eax, DWORD PTR _dst_stride$[ebp]
	push	eax
	mov	ecx, DWORD PTR _pu_h$[ebp]
	push	ecx
	push	16					; 00000010H
	mov	edx, DWORD PTR _im$[ebp]
	push	edx
	mov	eax, DWORD PTR _px$[ebp]
	push	eax
	mov	ecx, DWORD PTR _dst$[ebp]
	push	ecx
	call	_bipred_average_px_im_template_avx2
	add	esp, 24					; 00000018H
	jmp	$LN2@bipred_ave
$LN13@bipred_ave:

; 1392 :       case 32: bipred_average_px_im_template_avx2(dst, px, im, 32, pu_h, dst_stride); break;

	mov	eax, DWORD PTR _dst_stride$[ebp]
	push	eax
	mov	ecx, DWORD PTR _pu_h$[ebp]
	push	ecx
	push	32					; 00000020H
	mov	edx, DWORD PTR _im$[ebp]
	push	edx
	mov	eax, DWORD PTR _px$[ebp]
	push	eax
	mov	ecx, DWORD PTR _dst$[ebp]
	push	ecx
	call	_bipred_average_px_im_template_avx2
	add	esp, 24					; 00000018H
	jmp	$LN2@bipred_ave
$LN14@bipred_ave:

; 1393 :       case 64: bipred_average_px_im_template_avx2(dst, px, im, 64, pu_h, dst_stride); break;

	mov	eax, DWORD PTR _dst_stride$[ebp]
	push	eax
	mov	ecx, DWORD PTR _pu_h$[ebp]
	push	ecx
	push	64					; 00000040H
	mov	edx, DWORD PTR _im$[ebp]
	push	edx
	mov	eax, DWORD PTR _px$[ebp]
	push	eax
	mov	ecx, DWORD PTR _dst$[ebp]
	push	ecx
	call	_bipred_average_px_im_template_avx2
	add	esp, 24					; 00000018H
	jmp	$LN2@bipred_ave
$LN15@bipred_ave:

; 1394 : 
; 1395 :       case  6: bipred_average_px_im_template_avx2(dst, px, im,  6, pu_h, dst_stride); break;

	mov	eax, DWORD PTR _dst_stride$[ebp]
	push	eax
	mov	ecx, DWORD PTR _pu_h$[ebp]
	push	ecx
	push	6
	mov	edx, DWORD PTR _im$[ebp]
	push	edx
	mov	eax, DWORD PTR _px$[ebp]
	push	eax
	mov	ecx, DWORD PTR _dst$[ebp]
	push	ecx
	call	_bipred_average_px_im_template_avx2
	add	esp, 24					; 00000018H
	jmp	$LN2@bipred_ave
$LN16@bipred_ave:

; 1396 :       case 12: bipred_average_px_im_template_avx2(dst, px, im, 12, pu_h, dst_stride); break;

	mov	eax, DWORD PTR _dst_stride$[ebp]
	push	eax
	mov	ecx, DWORD PTR _pu_h$[ebp]
	push	ecx
	push	12					; 0000000cH
	mov	edx, DWORD PTR _im$[ebp]
	push	edx
	mov	eax, DWORD PTR _px$[ebp]
	push	eax
	mov	ecx, DWORD PTR _dst$[ebp]
	push	ecx
	call	_bipred_average_px_im_template_avx2
	add	esp, 24					; 00000018H
	jmp	SHORT $LN2@bipred_ave
$LN17@bipred_ave:

; 1397 :       case 24: bipred_average_px_im_template_avx2(dst, px, im, 24, pu_h, dst_stride); break;

	mov	eax, DWORD PTR _dst_stride$[ebp]
	push	eax
	mov	ecx, DWORD PTR _pu_h$[ebp]
	push	ecx
	push	24					; 00000018H
	mov	edx, DWORD PTR _im$[ebp]
	push	edx
	mov	eax, DWORD PTR _px$[ebp]
	push	eax
	mov	ecx, DWORD PTR _dst$[ebp]
	push	ecx
	call	_bipred_average_px_im_template_avx2
	add	esp, 24					; 00000018H
	jmp	SHORT $LN2@bipred_ave
$LN18@bipred_ave:

; 1398 :       case 48: bipred_average_px_im_template_avx2(dst, px, im, 48, pu_h, dst_stride); break;

	mov	eax, DWORD PTR _dst_stride$[ebp]
	push	eax
	mov	ecx, DWORD PTR _pu_h$[ebp]
	push	ecx
	push	48					; 00000030H
	mov	edx, DWORD PTR _im$[ebp]
	push	edx
	mov	eax, DWORD PTR _px$[ebp]
	push	eax
	mov	ecx, DWORD PTR _dst$[ebp]
	push	ecx
	call	_bipred_average_px_im_template_avx2
	add	esp, 24					; 00000018H
	jmp	SHORT $LN2@bipred_ave
$LN19@bipred_ave:

; 1399 :       default:
; 1400 :         assert(0 && "Unexpected block width.");

	xor	eax, eax
	jne	SHORT $LN2@bipred_ave
	mov	ecx, DWORD PTR ?__LINE__Var@?0??bipred_average_px_im_avx2@@9@9
	add	ecx, 15					; 0000000fH
	mov	esi, esp
	push	ecx
	push	OFFSET ??_C@_1JG@HCGLAOEM@?$AAF?$AA?3?$AA?2?$AAo?$AAp?$AAe?$AAn?$AA_?$AAc?$AAo?$AAd?$AAe?$AAc?$AA_?$AAl@
	push	OFFSET ??_C@_1DO@PGNEGAJ@?$AA0?$AA?5?$AA?$CG?$AA?$CG?$AA?5?$AA?$CC?$AAU?$AAn?$AAe?$AAx?$AAp?$AAe?$AAc?$AAt?$AAe@
	call	DWORD PTR __imp___wassert
	add	esp, 12					; 0000000cH
	cmp	esi, esp
	call	__RTC_CheckEsp
$LN2@bipred_ave:

; 1401 :         break;
; 1402 :     }
; 1403 :   } else {

	jmp	$LN1@bipred_ave
$LN7@bipred_ave:

; 1404 :     int32_t shift = 15 - KVZ_BIT_DEPTH; // TODO: defines

	mov	DWORD PTR _shift$8[ebp], 7

; 1405 :     int32_t offset = 1 << (shift - 1);

	mov	eax, DWORD PTR _shift$8[ebp]
	sub	eax, 1
	mov	ecx, 1
	shlx	edx, ecx, eax
	mov	DWORD PTR _offset$7[ebp], edx

; 1406 : 
; 1407 :     for (int i = 0; i < pu_w * pu_h; ++i)

	mov	DWORD PTR _i$6[ebp], 0
	jmp	SHORT $LN6@bipred_ave
$LN4@bipred_ave:
	mov	eax, DWORD PTR _i$6[ebp]
	add	eax, 1
	mov	DWORD PTR _i$6[ebp], eax
$LN6@bipred_ave:
	mov	eax, DWORD PTR _pu_w$[ebp]
	imul	eax, DWORD PTR _pu_h$[ebp]
	cmp	DWORD PTR _i$6[ebp], eax
	jae	SHORT $LN1@bipred_ave

; 1408 :     {
; 1409 :       int y = i / pu_w;

	mov	eax, DWORD PTR _i$6[ebp]
	xor	edx, edx
	div	DWORD PTR _pu_w$[ebp]
	mov	DWORD PTR _y$5[ebp], eax

; 1410 :       int x = i % pu_w;

	mov	eax, DWORD PTR _i$6[ebp]
	xor	edx, edx
	div	DWORD PTR _pu_w$[ebp]
	mov	DWORD PTR _x$4[ebp], edx

; 1411 :       int16_t sample_px = px[i] << (14 - KVZ_BIT_DEPTH);

	mov	eax, DWORD PTR _px$[ebp]
	add	eax, DWORD PTR _i$6[ebp]
	movzx	ecx, BYTE PTR [eax]
	shl	ecx, 6
	mov	WORD PTR _sample_px$3[ebp], cx

; 1412 :       int16_t sample_im = im[i];

	mov	eax, DWORD PTR _i$6[ebp]
	mov	ecx, DWORD PTR _im$[ebp]
	mov	dx, WORD PTR [ecx+eax*2]
	mov	WORD PTR _sample_im$2[ebp], dx

; 1413 :       int32_t rounded = (sample_px + sample_im + offset) >> shift;

	movsx	eax, WORD PTR _sample_px$3[ebp]
	movsx	ecx, WORD PTR _sample_im$2[ebp]
	add	eax, DWORD PTR _offset$7[ebp]
	add	ecx, eax
	mov	edx, DWORD PTR _shift$8[ebp]
	sarx	eax, ecx, edx
	mov	DWORD PTR _rounded$1[ebp], eax

; 1414 :       dst[y * dst_stride + x] = kvz_fast_clip_32bit_to_pixel(rounded);

	mov	eax, DWORD PTR _rounded$1[ebp]
	push	eax
	call	_kvz_fast_clip_32bit_to_pixel
	add	esp, 4
	mov	ecx, DWORD PTR _y$5[ebp]
	imul	ecx, DWORD PTR _dst_stride$[ebp]
	add	ecx, DWORD PTR _x$4[ebp]
	mov	edx, DWORD PTR _dst$[ebp]
	mov	BYTE PTR [edx+ecx], al

; 1415 :     }

	jmp	SHORT $LN4@bipred_ave
$LN1@bipred_ave:

; 1416 :   }
; 1417 : }

	pop	edi
	pop	esi
	pop	ebx
	add	esp, 292				; 00000124H
	cmp	ebp, esp
	call	__RTC_CheckEsp
	mov	esp, ebp
	pop	ebp
	ret	0
	npad	2
$LN23@bipred_ave:
	DD	$LN10@bipred_ave
	DD	$LN15@bipred_ave
	DD	$LN11@bipred_ave
	DD	$LN16@bipred_ave
	DD	$LN12@bipred_ave
	DD	$LN17@bipred_ave
	DD	$LN13@bipred_ave
	DD	$LN18@bipred_ave
	DD	$LN14@bipred_ave
	DD	$LN19@bipred_ave
$LN22@bipred_ave:
	DB	0
	DB	9
	DB	1
	DB	9
	DB	2
	DB	9
	DB	9
	DB	9
	DB	3
	DB	9
	DB	9
	DB	9
	DB	4
	DB	9
	DB	9
	DB	9
	DB	9
	DB	9
	DB	9
	DB	9
	DB	5
	DB	9
	DB	9
	DB	9
	DB	9
	DB	9
	DB	9
	DB	9
	DB	6
	DB	9
	DB	9
	DB	9
	DB	9
	DB	9
	DB	9
	DB	9
	DB	9
	DB	9
	DB	9
	DB	9
	DB	9
	DB	9
	DB	9
	DB	9
	DB	7
	DB	9
	DB	9
	DB	9
	DB	9
	DB	9
	DB	9
	DB	9
	DB	9
	DB	9
	DB	9
	DB	9
	DB	9
	DB	9
	DB	9
	DB	9
	DB	8
_bipred_average_px_im_avx2 ENDP
_TEXT	ENDS
; Function compile flags: /Odtp /RTCsu /ZI
; File F:\open_codec_learn_2021\kvazaar-master\src\strategies\avx2\picture-avx2.c
;	COMDAT _bipred_average_px_im_template_avx2
_TEXT	SEGMENT
tv73 = -5308						; size = 4
tv425 = -5304						; size = 4
tv401 = -5304						; size = 4
tv227 = -5304						; size = 4
tv78 = -5304						; size = 4
tv71 = -5304						; size = 4
_elements_89ab$1 = -3760				; size = 4
_elements_67$2 = -3748					; size = 2
_elements_45$3 = -3736					; size = 2
_elements_0123$4 = -3724				; size = 4
_avg$5 = -3712						; size = 16
_avg256$6 = -3680					; size = 32
_avg_hi$7 = -3616					; size = 32
_avg_lo$8 = -3552					; size = 32
_all_ones$9 = -3488					; size = 32
_sample_px_im_hi$10 = -3424				; size = 32
_sample_px_im_lo$11 = -3360				; size = 32
_sample_im_16bit$12 = -3296				; size = 32
_sample_px_16bit$13 = -3232				; size = 32
_mask$14 = -3168					; size = 32
_sample_px_8bit$15 = -3120				; size = 16
_mask128$16 = -3088					; size = 16
_y$17 = -3064						; size = 4
_i$18 = -3052						; size = 4
_avg$19 = -3040						; size = 16
_avg256$20 = -3008					; size = 32
_avg_hi$21 = -2944					; size = 32
_avg_lo$22 = -2880					; size = 32
_all_ones$23 = -2816					; size = 32
_sample_px_im_hi$24 = -2752				; size = 32
_sample_px_im_lo$25 = -2688				; size = 32
_sample_im_16bit$26 = -2624				; size = 32
_sample_px_16bit$27 = -2560				; size = 32
_sample_px_8bit$28 = -2512				; size = 16
_y$29 = -2488						; size = 4
_i$30 = -2476						; size = 4
_avg$31 = -2464						; size = 32
_avg0213$32 = -2400					; size = 32
_avg_23$33 = -2336					; size = 32
_avg_01$34 = -2272					; size = 32
_avg_b_hi$35 = -2208					; size = 32
_avg_b_lo$36 = -2144					; size = 32
_avg_a_hi$37 = -2080					; size = 32
_avg_a_lo$38 = -2016					; size = 32
_all_ones$39 = -1952					; size = 32
_sample_px_im_b_hi$40 = -1888				; size = 32
_sample_px_im_b_lo$41 = -1824				; size = 32
_sample_px_im_a_hi$42 = -1760				; size = 32
_sample_px_im_a_lo$43 = -1696				; size = 32
_sample_im_b_16bit$44 = -1632				; size = 32
_sample_im_a_16bit$45 = -1568				; size = 32
_sample_px_b_16bit$46 = -1504				; size = 32
_sample_px_a_16bit$47 = -1440				; size = 32
_sample_px_b_8bit$48 = -1376				; size = 16
_sample_px_a_8bit$49 = -1344				; size = 16
_mask$50 = -1312					; size = 32
_x$51 = -1252						; size = 4
_y$52 = -1240						; size = 4
_i$53 = -1228						; size = 4
_avg$54 = -1216						; size = 32
_avg0213$55 = -1152					; size = 32
_avg_23$56 = -1088					; size = 32
_avg_01$57 = -1024					; size = 32
_avg_b_hi$58 = -960					; size = 32
_avg_b_lo$59 = -896					; size = 32
_avg_a_hi$60 = -832					; size = 32
_avg_a_lo$61 = -768					; size = 32
_all_ones$62 = -704					; size = 32
_sample_px_im_b_hi$63 = -640				; size = 32
_sample_px_im_b_lo$64 = -576				; size = 32
_sample_px_im_a_hi$65 = -512				; size = 32
_sample_px_im_a_lo$66 = -448				; size = 32
_sample_im_b_16bit$67 = -384				; size = 32
_sample_im_a_16bit$68 = -320				; size = 32
_sample_px_b_16bit$69 = -256				; size = 32
_sample_px_a_16bit$70 = -192				; size = 32
_x$71 = -124						; size = 4
_y$72 = -112						; size = 4
_i$73 = -100						; size = 4
_area_mod_32$ = -85					; size = 1
_has_pow2_width$ = -73					; size = 1
_offset$ = -64						; size = 32
_scalar_offset$ = -20					; size = 4
_shift$ = -8						; size = 4
_dst$ = 8						; size = 4
_px$ = 12						; size = 4
_im$ = 16						; size = 4
_pu_w$ = 20						; size = 4
_pu_h$ = 24						; size = 4
_dst_stride$ = 28					; size = 4
_bipred_average_px_im_template_avx2 PROC		; COMDAT

; 1184 : {

	push	ebx
	mov	ebx, esp
	sub	esp, 8
	and	esp, -32				; ffffffe0H
	add	esp, 4
	push	ebp
	mov	ebp, DWORD PTR [ebx+4]
	mov	DWORD PTR [esp+4], ebp
	mov	ebp, esp
	mov	eax, 5336				; 000014d8H
	call	__chkstk
	push	esi
	push	edi
	lea	edi, DWORD PTR [ebp-5336]
	mov	ecx, 1334				; 00000536H
	mov	eax, -858993460				; ccccccccH
	rep stosd
	mov	ecx, OFFSET __5DE43F84_picture-avx2@c
	call	@__CheckForDebuggerJustMyCode@4

; 1185 :   int32_t shift = 15 - KVZ_BIT_DEPTH; // TODO: defines

	mov	DWORD PTR _shift$[ebp], 7

; 1186 :   int32_t scalar_offset = 1 << (shift - 1);

	mov	eax, DWORD PTR _shift$[ebp]
	sub	eax, 1
	mov	ecx, 1
	shlx	edx, ecx, eax
	mov	DWORD PTR _scalar_offset$[ebp], edx

; 1187 :   __m256i offset = _mm256_set1_epi32(scalar_offset);

	vmovd	xmm0, DWORD PTR _scalar_offset$[ebp]
	vpbroadcastd ymm0, xmm0
	vmovdqu	YMMWORD PTR _offset$[ebp], ymm0

; 1188 : 
; 1189 :   bool has_pow2_width = _mm_popcnt_u32(pu_w) == 1;

	popcnt	eax, DWORD PTR _pu_w$[ebx]
	cmp	eax, 1
	jne	SHORT $LN36@bipred_ave
	mov	DWORD PTR tv71[ebp], 1
	jmp	SHORT $LN37@bipred_ave
$LN36@bipred_ave:
	mov	DWORD PTR tv71[ebp], 0
$LN37@bipred_ave:
	cmp	DWORD PTR tv71[ebp], 0
	jne	SHORT $LN38@bipred_ave
	mov	DWORD PTR tv73[ebp], 0
	jmp	SHORT $LN39@bipred_ave
$LN38@bipred_ave:
	mov	DWORD PTR tv73[ebp], 1
$LN39@bipred_ave:
	mov	cl, BYTE PTR tv73[ebp]
	mov	BYTE PTR _has_pow2_width$[ebp], cl

; 1190 :   bool area_mod_32 = (pu_w * pu_h) % 32;

	mov	eax, DWORD PTR _pu_w$[ebx]
	imul	eax, DWORD PTR _pu_h$[ebx]
	xor	edx, edx
	mov	ecx, 32					; 00000020H
	div	ecx
	test	edx, edx
	jne	SHORT $LN40@bipred_ave
	mov	DWORD PTR tv78[ebp], 0
	jmp	SHORT $LN41@bipred_ave
$LN40@bipred_ave:
	mov	DWORD PTR tv78[ebp], 1
$LN41@bipred_ave:
	mov	dl, BYTE PTR tv78[ebp]
	mov	BYTE PTR _area_mod_32$[ebp], dl

; 1191 :   assert(!(pu_w == 4 && pu_h == 4) && "Branch for 4x4 not yet implemented.");

	cmp	DWORD PTR _pu_w$[ebx], 4
	jne	SHORT $LN42@bipred_ave
	cmp	DWORD PTR _pu_h$[ebx], 4
	je	SHORT $LN43@bipred_ave
$LN42@bipred_ave:
	mov	eax, OFFSET ??_C@_0CE@OJCKHEGB@Branch?5for?54x4?5not?5yet?5implemen@
	test	eax, eax
	jne	SHORT $LN44@bipred_ave
$LN43@bipred_ave:
	mov	ecx, DWORD PTR ?__LINE__Var@?0??bipred_average_px_im_template_avx2@@9@9
	add	ecx, 7
	mov	esi, esp
	push	ecx
	push	OFFSET ??_C@_1JG@HCGLAOEM@?$AAF?$AA?3?$AA?2?$AAo?$AAp?$AAe?$AAn?$AA_?$AAc?$AAo?$AAd?$AAe?$AAc?$AA_?$AAl@
	push	OFFSET ??_C@_1IG@PFICKALD@?$AA?$CB?$AA?$CI?$AAp?$AAu?$AA_?$AAw?$AA?5?$AA?$DN?$AA?$DN?$AA?5?$AA4?$AA?5?$AA?$CG?$AA?$CG?$AA?5@
	call	DWORD PTR __imp___wassert
	add	esp, 12					; 0000000cH
	cmp	esi, esp
	call	__RTC_CheckEsp
$LN44@bipred_ave:

; 1192 :   assert(!(pu_w == 2 && pu_h == 8) && "Branch for 2x8 not yet implemented.");

	cmp	DWORD PTR _pu_w$[ebx], 2
	jne	SHORT $LN45@bipred_ave
	cmp	DWORD PTR _pu_h$[ebx], 8
	je	SHORT $LN46@bipred_ave
$LN45@bipred_ave:
	mov	eax, OFFSET ??_C@_0CE@ICBEPKHC@Branch?5for?52x8?5not?5yet?5implemen@
	test	eax, eax
	jne	SHORT $LN47@bipred_ave
$LN46@bipred_ave:
	mov	ecx, DWORD PTR ?__LINE__Var@?0??bipred_average_px_im_template_avx2@@9@9
	add	ecx, 8
	mov	esi, esp
	push	ecx
	push	OFFSET ??_C@_1JG@HCGLAOEM@?$AAF?$AA?3?$AA?2?$AAo?$AAp?$AAe?$AAn?$AA_?$AAc?$AAo?$AAd?$AAe?$AAc?$AA_?$AAl@
	push	OFFSET ??_C@_1IG@BCNOOMBC@?$AA?$CB?$AA?$CI?$AAp?$AAu?$AA_?$AAw?$AA?5?$AA?$DN?$AA?$DN?$AA?5?$AA2?$AA?5?$AA?$CG?$AA?$CG?$AA?5@
	call	DWORD PTR __imp___wassert
	add	esp, 12					; 0000000cH
	cmp	esi, esp
	call	__RTC_CheckEsp
$LN47@bipred_ave:

; 1193 : 
; 1194 :   if (has_pow2_width && area_mod_32 == 0) {

	movzx	eax, BYTE PTR _has_pow2_width$[ebp]
	test	eax, eax
	je	$LN20@bipred_ave
	movzx	eax, BYTE PTR _area_mod_32$[ebp]
	test	eax, eax
	jne	$LN20@bipred_ave

; 1195 :     for (int i = 0; i < pu_w * pu_h; i += 32) {

	mov	DWORD PTR _i$73[ebp], 0
	jmp	SHORT $LN4@bipred_ave
$LN2@bipred_ave:
	mov	eax, DWORD PTR _i$73[ebp]
	add	eax, 32					; 00000020H
	mov	DWORD PTR _i$73[ebp], eax
$LN4@bipred_ave:
	mov	eax, DWORD PTR _pu_w$[ebx]
	imul	eax, DWORD PTR _pu_h$[ebx]
	cmp	DWORD PTR _i$73[ebp], eax
	jae	$LN3@bipred_ave

; 1196 : 
; 1197 :       int y = i / pu_w;

	mov	eax, DWORD PTR _i$73[ebp]
	xor	edx, edx
	div	DWORD PTR _pu_w$[ebx]
	mov	DWORD PTR _y$72[ebp], eax

; 1198 :       int x = i % pu_w;

	mov	eax, DWORD PTR _i$73[ebp]
	xor	edx, edx
	div	DWORD PTR _pu_w$[ebx]
	mov	DWORD PTR _x$71[ebp], edx

; 1199 : 
; 1200 :       __m256i sample_px_a_16bit = _mm256_cvtepu8_epi16(_mm_loadu_si128((__m128i*)&px[i]));

	mov	eax, DWORD PTR _px$[ebx]
	add	eax, DWORD PTR _i$73[ebp]
	vmovdqu	xmm0, XMMWORD PTR [eax]
	vpmovzxbw ymm0, xmm0
	vmovdqu	YMMWORD PTR _sample_px_a_16bit$70[ebp], ymm0

; 1201 :       __m256i sample_px_b_16bit = _mm256_cvtepu8_epi16(_mm_loadu_si128((__m128i*)&px[i + 16]));

	mov	eax, DWORD PTR _i$73[ebp]
	mov	ecx, DWORD PTR _px$[ebx]
	vmovdqu	xmm0, XMMWORD PTR [ecx+eax+16]
	vpmovzxbw ymm0, xmm0
	vmovdqu	YMMWORD PTR _sample_px_b_16bit$69[ebp], ymm0

; 1202 :       sample_px_a_16bit         = _mm256_slli_epi16(sample_px_a_16bit, 14 - KVZ_BIT_DEPTH);

	vmovdqu	ymm0, YMMWORD PTR _sample_px_a_16bit$70[ebp]
	vpsllw	ymm0, ymm0, 6
	vmovdqu	YMMWORD PTR _sample_px_a_16bit$70[ebp], ymm0

; 1203 :       sample_px_b_16bit         = _mm256_slli_epi16(sample_px_b_16bit, 14 - KVZ_BIT_DEPTH);

	vmovdqu	ymm0, YMMWORD PTR _sample_px_b_16bit$69[ebp]
	vpsllw	ymm0, ymm0, 6
	vmovdqu	YMMWORD PTR _sample_px_b_16bit$69[ebp], ymm0

; 1204 :       __m256i sample_im_a_16bit = _mm256_loadu_si256((__m256i*)&im[i]);

	mov	eax, DWORD PTR _i$73[ebp]
	mov	ecx, DWORD PTR _im$[ebx]
	vmovdqu	ymm0, YMMWORD PTR [ecx+eax*2]
	vmovdqu	YMMWORD PTR _sample_im_a_16bit$68[ebp], ymm0

; 1205 :       __m256i sample_im_b_16bit = _mm256_loadu_si256((__m256i*)&im[i + 16]);

	mov	eax, DWORD PTR _i$73[ebp]
	mov	ecx, DWORD PTR _im$[ebx]
	vmovdqu	ymm0, YMMWORD PTR [ecx+eax*2+32]
	vmovdqu	YMMWORD PTR _sample_im_b_16bit$67[ebp], ymm0

; 1206 : 
; 1207 :       __m256i sample_px_im_a_lo = _mm256_unpacklo_epi16(sample_px_a_16bit, sample_im_a_16bit);

	vmovdqu	ymm0, YMMWORD PTR _sample_px_a_16bit$70[ebp]
	vpunpcklwd ymm0, ymm0, YMMWORD PTR _sample_im_a_16bit$68[ebp]
	vmovdqu	YMMWORD PTR _sample_px_im_a_lo$66[ebp], ymm0

; 1208 :       __m256i sample_px_im_a_hi = _mm256_unpackhi_epi16(sample_px_a_16bit, sample_im_a_16bit);

	vmovdqu	ymm0, YMMWORD PTR _sample_px_a_16bit$70[ebp]
	vpunpckhwd ymm0, ymm0, YMMWORD PTR _sample_im_a_16bit$68[ebp]
	vmovdqu	YMMWORD PTR _sample_px_im_a_hi$65[ebp], ymm0

; 1209 :       __m256i sample_px_im_b_lo = _mm256_unpacklo_epi16(sample_px_b_16bit, sample_im_b_16bit);

	vmovdqu	ymm0, YMMWORD PTR _sample_px_b_16bit$69[ebp]
	vpunpcklwd ymm0, ymm0, YMMWORD PTR _sample_im_b_16bit$67[ebp]
	vmovdqu	YMMWORD PTR _sample_px_im_b_lo$64[ebp], ymm0

; 1210 :       __m256i sample_px_im_b_hi = _mm256_unpackhi_epi16(sample_px_b_16bit, sample_im_b_16bit);

	vmovdqu	ymm0, YMMWORD PTR _sample_px_b_16bit$69[ebp]
	vpunpckhwd ymm0, ymm0, YMMWORD PTR _sample_im_b_16bit$67[ebp]
	vmovdqu	YMMWORD PTR _sample_px_im_b_hi$63[ebp], ymm0

; 1211 : 
; 1212 :       __m256i all_ones  = _mm256_set1_epi16(1);

	vmovdqu	ymm0, YMMWORD PTR __ymm@0001000100010001000100010001000100010001000100010001000100010001
	vmovdqu	YMMWORD PTR _all_ones$62[ebp], ymm0

; 1213 :       __m256i avg_a_lo = _mm256_madd_epi16(sample_px_im_a_lo, all_ones);

	vmovdqu	ymm0, YMMWORD PTR _sample_px_im_a_lo$66[ebp]
	vpmaddwd ymm0, ymm0, YMMWORD PTR _all_ones$62[ebp]
	vmovdqu	YMMWORD PTR _avg_a_lo$61[ebp], ymm0

; 1214 :       __m256i avg_a_hi = _mm256_madd_epi16(sample_px_im_a_hi, all_ones);

	vmovdqu	ymm0, YMMWORD PTR _sample_px_im_a_hi$65[ebp]
	vpmaddwd ymm0, ymm0, YMMWORD PTR _all_ones$62[ebp]
	vmovdqu	YMMWORD PTR _avg_a_hi$60[ebp], ymm0

; 1215 :       __m256i avg_b_lo = _mm256_madd_epi16(sample_px_im_b_lo, all_ones);

	vmovdqu	ymm0, YMMWORD PTR _sample_px_im_b_lo$64[ebp]
	vpmaddwd ymm0, ymm0, YMMWORD PTR _all_ones$62[ebp]
	vmovdqu	YMMWORD PTR _avg_b_lo$59[ebp], ymm0

; 1216 :       __m256i avg_b_hi = _mm256_madd_epi16(sample_px_im_b_hi, all_ones);

	vmovdqu	ymm0, YMMWORD PTR _sample_px_im_b_hi$63[ebp]
	vpmaddwd ymm0, ymm0, YMMWORD PTR _all_ones$62[ebp]
	vmovdqu	YMMWORD PTR _avg_b_hi$58[ebp], ymm0

; 1217 : 
; 1218 :       avg_a_lo = _mm256_add_epi32(avg_a_lo, offset);

	vmovdqu	ymm0, YMMWORD PTR _avg_a_lo$61[ebp]
	vpaddd	ymm0, ymm0, YMMWORD PTR _offset$[ebp]
	vmovdqu	YMMWORD PTR _avg_a_lo$61[ebp], ymm0

; 1219 :       avg_a_hi = _mm256_add_epi32(avg_a_hi, offset);

	vmovdqu	ymm0, YMMWORD PTR _avg_a_hi$60[ebp]
	vpaddd	ymm0, ymm0, YMMWORD PTR _offset$[ebp]
	vmovdqu	YMMWORD PTR _avg_a_hi$60[ebp], ymm0

; 1220 :       avg_b_lo = _mm256_add_epi32(avg_b_lo, offset);

	vmovdqu	ymm0, YMMWORD PTR _avg_b_lo$59[ebp]
	vpaddd	ymm0, ymm0, YMMWORD PTR _offset$[ebp]
	vmovdqu	YMMWORD PTR _avg_b_lo$59[ebp], ymm0

; 1221 :       avg_b_hi = _mm256_add_epi32(avg_b_hi, offset);

	vmovdqu	ymm0, YMMWORD PTR _avg_b_hi$58[ebp]
	vpaddd	ymm0, ymm0, YMMWORD PTR _offset$[ebp]
	vmovdqu	YMMWORD PTR _avg_b_hi$58[ebp], ymm0

; 1222 : 
; 1223 :       avg_a_lo = _mm256_srai_epi32(avg_a_lo, shift);

	vmovdqu	ymm0, YMMWORD PTR _avg_a_lo$61[ebp]
	vmovd	xmm1, DWORD PTR _shift$[ebp]
	vpsrad	ymm0, ymm0, xmm1
	vmovdqu	YMMWORD PTR _avg_a_lo$61[ebp], ymm0

; 1224 :       avg_a_hi = _mm256_srai_epi32(avg_a_hi, shift);

	vmovdqu	ymm0, YMMWORD PTR _avg_a_hi$60[ebp]
	vmovd	xmm1, DWORD PTR _shift$[ebp]
	vpsrad	ymm0, ymm0, xmm1
	vmovdqu	YMMWORD PTR _avg_a_hi$60[ebp], ymm0

; 1225 :       avg_b_lo = _mm256_srai_epi32(avg_b_lo, shift);

	vmovdqu	ymm0, YMMWORD PTR _avg_b_lo$59[ebp]
	vmovd	xmm1, DWORD PTR _shift$[ebp]
	vpsrad	ymm0, ymm0, xmm1
	vmovdqu	YMMWORD PTR _avg_b_lo$59[ebp], ymm0

; 1226 :       avg_b_hi = _mm256_srai_epi32(avg_b_hi, shift);

	vmovdqu	ymm0, YMMWORD PTR _avg_b_hi$58[ebp]
	vmovd	xmm1, DWORD PTR _shift$[ebp]
	vpsrad	ymm0, ymm0, xmm1
	vmovdqu	YMMWORD PTR _avg_b_hi$58[ebp], ymm0

; 1227 : 
; 1228 :       __m256i avg_01  = _mm256_packus_epi32(avg_a_lo, avg_a_hi);

	vmovdqu	ymm0, YMMWORD PTR _avg_a_lo$61[ebp]
	vpackusdw ymm0, ymm0, YMMWORD PTR _avg_a_hi$60[ebp]
	vmovdqu	YMMWORD PTR _avg_01$57[ebp], ymm0

; 1229 :       __m256i avg_23  = _mm256_packus_epi32(avg_b_lo, avg_b_hi);

	vmovdqu	ymm0, YMMWORD PTR _avg_b_lo$59[ebp]
	vpackusdw ymm0, ymm0, YMMWORD PTR _avg_b_hi$58[ebp]
	vmovdqu	YMMWORD PTR _avg_23$56[ebp], ymm0

; 1230 :       __m256i avg0213 = _mm256_packus_epi16(avg_01, avg_23);

	vmovdqu	ymm0, YMMWORD PTR _avg_01$57[ebp]
	vpackuswb ymm0, ymm0, YMMWORD PTR _avg_23$56[ebp]
	vmovdqu	YMMWORD PTR _avg0213$55[ebp], ymm0

; 1231 :       __m256i avg     = _mm256_permute4x64_epi64(avg0213, _MM_SHUFFLE(3, 1, 2, 0));

	vpermq	ymm0, YMMWORD PTR _avg0213$55[ebp], 216	; 000000d8H
	vmovdqu	YMMWORD PTR _avg$54[ebp], ymm0

; 1232 : 
; 1233 :       switch (pu_w) {

	mov	eax, DWORD PTR _pu_w$[ebx]
	mov	DWORD PTR tv227[ebp], eax
	mov	ecx, DWORD PTR tv227[ebp]
	sub	ecx, 4
	mov	DWORD PTR tv227[ebp], ecx
	cmp	DWORD PTR tv227[ebp], 60		; 0000003cH
	ja	$LN26@bipred_ave
	mov	edx, DWORD PTR tv227[ebp]
	movzx	eax, BYTE PTR $LN51@bipred_ave[edx]
	jmp	DWORD PTR $LN52@bipred_ave[eax*4]
$LN22@bipred_ave:

; 1234 :         case  4: scatter_ymm_4x8_8bit( &dst[y * dst_stride + x], avg, dst_stride); break;

	mov	eax, DWORD PTR _dst_stride$[ebx]
	push	eax
	vmovdqu	ymm0, YMMWORD PTR _avg$54[ebp]
	mov	ecx, DWORD PTR _y$72[ebp]
	imul	ecx, DWORD PTR _dst_stride$[ebx]
	add	ecx, DWORD PTR _x$71[ebp]
	add	ecx, DWORD PTR _dst$[ebx]
	push	ecx
	call	_scatter_ymm_4x8_8bit
	add	esp, 8
	jmp	$LN5@bipred_ave
$LN23@bipred_ave:

; 1235 :         case  8: scatter_ymm_8x4_8bit( &dst[y * dst_stride + x], avg, dst_stride); break;

	mov	eax, DWORD PTR _dst_stride$[ebx]
	push	eax
	vmovdqu	ymm0, YMMWORD PTR _avg$54[ebp]
	mov	ecx, DWORD PTR _y$72[ebp]
	imul	ecx, DWORD PTR _dst_stride$[ebx]
	add	ecx, DWORD PTR _x$71[ebp]
	add	ecx, DWORD PTR _dst$[ebx]
	push	ecx
	call	_scatter_ymm_8x4_8bit
	add	esp, 8
	jmp	SHORT $LN5@bipred_ave
$LN24@bipred_ave:

; 1236 :         case 16: scatter_ymm_16x2_8bit(&dst[y * dst_stride + x], avg, dst_stride); break;

	mov	eax, DWORD PTR _dst_stride$[ebx]
	push	eax
	vmovdqu	ymm0, YMMWORD PTR _avg$54[ebp]
	mov	ecx, DWORD PTR _y$72[ebp]
	imul	ecx, DWORD PTR _dst_stride$[ebx]
	add	ecx, DWORD PTR _x$71[ebp]
	add	ecx, DWORD PTR _dst$[ebx]
	push	ecx
	call	_scatter_ymm_16x2_8bit
	add	esp, 8
	jmp	SHORT $LN5@bipred_ave
$LN25@bipred_ave:

; 1237 :         case 32: // Same as case 64
; 1238 :         case 64: _mm256_storeu_si256((__m256i*)&dst[y * dst_stride + x], avg); break;

	vmovdqu	ymm0, YMMWORD PTR _avg$54[ebp]
	mov	eax, DWORD PTR _y$72[ebp]
	imul	eax, DWORD PTR _dst_stride$[ebx]
	add	eax, DWORD PTR _x$71[ebp]
	add	eax, DWORD PTR _dst$[ebx]
	vmovdqu	YMMWORD PTR [eax], ymm0
	jmp	SHORT $LN5@bipred_ave
$LN26@bipred_ave:

; 1239 :         default:
; 1240 :           assert(0 && "Unexpected block width.");

	xor	eax, eax
	jne	SHORT $LN5@bipred_ave
	mov	ecx, DWORD PTR ?__LINE__Var@?0??bipred_average_px_im_template_avx2@@9@9
	add	ecx, 56					; 00000038H
	mov	esi, esp
	push	ecx
	push	OFFSET ??_C@_1JG@HCGLAOEM@?$AAF?$AA?3?$AA?2?$AAo?$AAp?$AAe?$AAn?$AA_?$AAc?$AAo?$AAd?$AAe?$AAc?$AA_?$AAl@
	push	OFFSET ??_C@_1DO@PGNEGAJ@?$AA0?$AA?5?$AA?$CG?$AA?$CG?$AA?5?$AA?$CC?$AAU?$AAn?$AAe?$AAx?$AAp?$AAe?$AAc?$AAt?$AAe@
	call	DWORD PTR __imp___wassert
	add	esp, 12					; 0000000cH
	cmp	esi, esp
	call	__RTC_CheckEsp
$LN5@bipred_ave:

; 1241 :           break;
; 1242 :       }
; 1243 :     }

	jmp	$LN2@bipred_ave
$LN3@bipred_ave:

; 1244 :   } else if (area_mod_32 == 0) {

	jmp	$LN1@bipred_ave
$LN20@bipred_ave:
	movzx	eax, BYTE PTR _area_mod_32$[ebp]
	test	eax, eax
	jne	$LN27@bipred_ave

; 1245 :     for (int i = 0; i < pu_w * pu_h; i += 24) {

	mov	DWORD PTR _i$53[ebp], 0
	jmp	SHORT $LN9@bipred_ave
$LN7@bipred_ave:
	mov	eax, DWORD PTR _i$53[ebp]
	add	eax, 24					; 00000018H
	mov	DWORD PTR _i$53[ebp], eax
$LN9@bipred_ave:
	mov	eax, DWORD PTR _pu_w$[ebx]
	imul	eax, DWORD PTR _pu_h$[ebx]
	cmp	DWORD PTR _i$53[ebp], eax
	jae	$LN8@bipred_ave

; 1246 : 
; 1247 :       int y = i / pu_w;

	mov	eax, DWORD PTR _i$53[ebp]
	xor	edx, edx
	div	DWORD PTR _pu_w$[ebx]
	mov	DWORD PTR _y$52[ebp], eax

; 1248 :       int x = i % pu_w;

	mov	eax, DWORD PTR _i$53[ebp]
	xor	edx, edx
	div	DWORD PTR _pu_w$[ebx]
	mov	DWORD PTR _x$51[ebp], edx

; 1249 : 
; 1250 :       // Last 64 bits of the 256 / 32 bits of the 128 are not used to simplify the loop
; 1251 :       __m256i mask              = _mm256_setr_epi64x(-1, -1, -1, 0);

	vmovdqu	ymm0, YMMWORD PTR __ymm@0000000000000000ffffffffffffffffffffffffffffffffffffffffffffffff
	vmovdqu	YMMWORD PTR _mask$50[ebp], ymm0

; 1252 :       __m128i sample_px_a_8bit  = _mm_loadu_si128((__m128i*)&px[i]);

	mov	eax, DWORD PTR _px$[ebx]
	add	eax, DWORD PTR _i$53[ebp]
	vmovdqu	xmm0, XMMWORD PTR [eax]
	vmovdqa	XMMWORD PTR _sample_px_a_8bit$49[ebp], xmm0

; 1253 :       __m128i sample_px_b_8bit  = _mm_loadl_epi64((__m128i*)&px[i + 16]);

	mov	eax, DWORD PTR _px$[ebx]
	add	eax, DWORD PTR _i$53[ebp]
	vmovq	xmm0, QWORD PTR [eax+16]
	vmovdqa	XMMWORD PTR _sample_px_b_8bit$48[ebp], xmm0

; 1254 :       __m256i sample_px_a_16bit = _mm256_cvtepu8_epi16(sample_px_a_8bit);

	vpmovzxbw ymm0, XMMWORD PTR _sample_px_a_8bit$49[ebp]
	vmovdqu	YMMWORD PTR _sample_px_a_16bit$47[ebp], ymm0

; 1255 :       __m256i sample_px_b_16bit = _mm256_cvtepu8_epi16(sample_px_b_8bit);

	vpmovzxbw ymm0, XMMWORD PTR _sample_px_b_8bit$48[ebp]
	vmovdqu	YMMWORD PTR _sample_px_b_16bit$46[ebp], ymm0

; 1256 :       sample_px_a_16bit         = _mm256_slli_epi16(sample_px_a_16bit, 14 - KVZ_BIT_DEPTH);

	vmovdqu	ymm0, YMMWORD PTR _sample_px_a_16bit$47[ebp]
	vpsllw	ymm0, ymm0, 6
	vmovdqu	YMMWORD PTR _sample_px_a_16bit$47[ebp], ymm0

; 1257 :       sample_px_b_16bit         = _mm256_slli_epi16(sample_px_b_16bit, 14 - KVZ_BIT_DEPTH);

	vmovdqu	ymm0, YMMWORD PTR _sample_px_b_16bit$46[ebp]
	vpsllw	ymm0, ymm0, 6
	vmovdqu	YMMWORD PTR _sample_px_b_16bit$46[ebp], ymm0

; 1258 :       __m256i sample_im_a_16bit = _mm256_loadu_si256((__m256i*)&im[i]);

	mov	eax, DWORD PTR _i$53[ebp]
	mov	ecx, DWORD PTR _im$[ebx]
	vmovdqu	ymm0, YMMWORD PTR [ecx+eax*2]
	vmovdqu	YMMWORD PTR _sample_im_a_16bit$45[ebp], ymm0

; 1259 :       __m256i sample_im_b_16bit = _mm256_castsi128_si256(_mm_loadu_si128((__m128i*)&im[i + 16]));

	mov	eax, DWORD PTR _i$53[ebp]
	mov	ecx, DWORD PTR _im$[ebx]
	vmovdqu	xmm0, XMMWORD PTR [ecx+eax*2+32]
	vmovdqu	YMMWORD PTR _sample_im_b_16bit$44[ebp], ymm0

; 1260 : 
; 1261 :       __m256i sample_px_im_a_lo = _mm256_unpacklo_epi16(sample_px_a_16bit, sample_im_a_16bit);

	vmovdqu	ymm0, YMMWORD PTR _sample_px_a_16bit$47[ebp]
	vpunpcklwd ymm0, ymm0, YMMWORD PTR _sample_im_a_16bit$45[ebp]
	vmovdqu	YMMWORD PTR _sample_px_im_a_lo$43[ebp], ymm0

; 1262 :       __m256i sample_px_im_a_hi = _mm256_unpackhi_epi16(sample_px_a_16bit, sample_im_a_16bit);

	vmovdqu	ymm0, YMMWORD PTR _sample_px_a_16bit$47[ebp]
	vpunpckhwd ymm0, ymm0, YMMWORD PTR _sample_im_a_16bit$45[ebp]
	vmovdqu	YMMWORD PTR _sample_px_im_a_hi$42[ebp], ymm0

; 1263 :       __m256i sample_px_im_b_lo = _mm256_unpacklo_epi16(sample_px_b_16bit, sample_im_b_16bit);

	vmovdqu	ymm0, YMMWORD PTR _sample_px_b_16bit$46[ebp]
	vpunpcklwd ymm0, ymm0, YMMWORD PTR _sample_im_b_16bit$44[ebp]
	vmovdqu	YMMWORD PTR _sample_px_im_b_lo$41[ebp], ymm0

; 1264 :       __m256i sample_px_im_b_hi = _mm256_unpackhi_epi16(sample_px_b_16bit, sample_im_b_16bit);

	vmovdqu	ymm0, YMMWORD PTR _sample_px_b_16bit$46[ebp]
	vpunpckhwd ymm0, ymm0, YMMWORD PTR _sample_im_b_16bit$44[ebp]
	vmovdqu	YMMWORD PTR _sample_px_im_b_hi$40[ebp], ymm0

; 1265 : 
; 1266 :       __m256i all_ones = _mm256_set1_epi16(1);

	vmovdqu	ymm0, YMMWORD PTR __ymm@0001000100010001000100010001000100010001000100010001000100010001
	vmovdqu	YMMWORD PTR _all_ones$39[ebp], ymm0

; 1267 :       __m256i avg_a_lo = _mm256_madd_epi16(sample_px_im_a_lo, all_ones);

	vmovdqu	ymm0, YMMWORD PTR _sample_px_im_a_lo$43[ebp]
	vpmaddwd ymm0, ymm0, YMMWORD PTR _all_ones$39[ebp]
	vmovdqu	YMMWORD PTR _avg_a_lo$38[ebp], ymm0

; 1268 :       __m256i avg_a_hi = _mm256_madd_epi16(sample_px_im_a_hi, all_ones);

	vmovdqu	ymm0, YMMWORD PTR _sample_px_im_a_hi$42[ebp]
	vpmaddwd ymm0, ymm0, YMMWORD PTR _all_ones$39[ebp]
	vmovdqu	YMMWORD PTR _avg_a_hi$37[ebp], ymm0

; 1269 :       __m256i avg_b_lo = _mm256_madd_epi16(sample_px_im_b_lo, all_ones);

	vmovdqu	ymm0, YMMWORD PTR _sample_px_im_b_lo$41[ebp]
	vpmaddwd ymm0, ymm0, YMMWORD PTR _all_ones$39[ebp]
	vmovdqu	YMMWORD PTR _avg_b_lo$36[ebp], ymm0

; 1270 :       __m256i avg_b_hi = _mm256_madd_epi16(sample_px_im_b_hi, all_ones);

	vmovdqu	ymm0, YMMWORD PTR _sample_px_im_b_hi$40[ebp]
	vpmaddwd ymm0, ymm0, YMMWORD PTR _all_ones$39[ebp]
	vmovdqu	YMMWORD PTR _avg_b_hi$35[ebp], ymm0

; 1271 : 
; 1272 :       avg_a_lo = _mm256_add_epi32(avg_a_lo, offset);

	vmovdqu	ymm0, YMMWORD PTR _avg_a_lo$38[ebp]
	vpaddd	ymm0, ymm0, YMMWORD PTR _offset$[ebp]
	vmovdqu	YMMWORD PTR _avg_a_lo$38[ebp], ymm0

; 1273 :       avg_a_hi = _mm256_add_epi32(avg_a_hi, offset);

	vmovdqu	ymm0, YMMWORD PTR _avg_a_hi$37[ebp]
	vpaddd	ymm0, ymm0, YMMWORD PTR _offset$[ebp]
	vmovdqu	YMMWORD PTR _avg_a_hi$37[ebp], ymm0

; 1274 :       avg_b_lo = _mm256_add_epi32(avg_b_lo, offset);

	vmovdqu	ymm0, YMMWORD PTR _avg_b_lo$36[ebp]
	vpaddd	ymm0, ymm0, YMMWORD PTR _offset$[ebp]
	vmovdqu	YMMWORD PTR _avg_b_lo$36[ebp], ymm0

; 1275 :       avg_b_hi = _mm256_add_epi32(avg_b_hi, offset);

	vmovdqu	ymm0, YMMWORD PTR _avg_b_hi$35[ebp]
	vpaddd	ymm0, ymm0, YMMWORD PTR _offset$[ebp]
	vmovdqu	YMMWORD PTR _avg_b_hi$35[ebp], ymm0

; 1276 : 
; 1277 :       avg_a_lo = _mm256_srai_epi32(avg_a_lo, shift);

	vmovdqu	ymm0, YMMWORD PTR _avg_a_lo$38[ebp]
	vmovd	xmm1, DWORD PTR _shift$[ebp]
	vpsrad	ymm0, ymm0, xmm1
	vmovdqu	YMMWORD PTR _avg_a_lo$38[ebp], ymm0

; 1278 :       avg_a_hi = _mm256_srai_epi32(avg_a_hi, shift);

	vmovdqu	ymm0, YMMWORD PTR _avg_a_hi$37[ebp]
	vmovd	xmm1, DWORD PTR _shift$[ebp]
	vpsrad	ymm0, ymm0, xmm1
	vmovdqu	YMMWORD PTR _avg_a_hi$37[ebp], ymm0

; 1279 :       avg_b_lo = _mm256_srai_epi32(avg_b_lo, shift);

	vmovdqu	ymm0, YMMWORD PTR _avg_b_lo$36[ebp]
	vmovd	xmm1, DWORD PTR _shift$[ebp]
	vpsrad	ymm0, ymm0, xmm1
	vmovdqu	YMMWORD PTR _avg_b_lo$36[ebp], ymm0

; 1280 :       avg_b_hi = _mm256_srai_epi32(avg_b_hi, shift);

	vmovdqu	ymm0, YMMWORD PTR _avg_b_hi$35[ebp]
	vmovd	xmm1, DWORD PTR _shift$[ebp]
	vpsrad	ymm0, ymm0, xmm1
	vmovdqu	YMMWORD PTR _avg_b_hi$35[ebp], ymm0

; 1281 : 
; 1282 :       __m256i avg_01  = _mm256_packus_epi32(avg_a_lo, avg_a_hi);

	vmovdqu	ymm0, YMMWORD PTR _avg_a_lo$38[ebp]
	vpackusdw ymm0, ymm0, YMMWORD PTR _avg_a_hi$37[ebp]
	vmovdqu	YMMWORD PTR _avg_01$34[ebp], ymm0

; 1283 :       __m256i avg_23  = _mm256_packus_epi32(avg_b_lo, avg_b_hi);

	vmovdqu	ymm0, YMMWORD PTR _avg_b_lo$36[ebp]
	vpackusdw ymm0, ymm0, YMMWORD PTR _avg_b_hi$35[ebp]
	vmovdqu	YMMWORD PTR _avg_23$33[ebp], ymm0

; 1284 :       __m256i avg0213 = _mm256_packus_epi16(avg_01, avg_23);

	vmovdqu	ymm0, YMMWORD PTR _avg_01$34[ebp]
	vpackuswb ymm0, ymm0, YMMWORD PTR _avg_23$33[ebp]
	vmovdqu	YMMWORD PTR _avg0213$32[ebp], ymm0

; 1285 :       __m256i avg     = _mm256_permute4x64_epi64(avg0213, _MM_SHUFFLE(3, 1, 2, 0));

	vpermq	ymm0, YMMWORD PTR _avg0213$32[ebp], 216	; 000000d8H
	vmovdqu	YMMWORD PTR _avg$31[ebp], ymm0

; 1286 : 
; 1287 :       switch (pu_w) {

	mov	eax, DWORD PTR _pu_w$[ebx]
	mov	DWORD PTR tv401[ebp], eax
	cmp	DWORD PTR tv401[ebp], 12		; 0000000cH
	je	SHORT $LN29@bipred_ave
	cmp	DWORD PTR tv401[ebp], 24		; 00000018H
	je	SHORT $LN30@bipred_ave
	cmp	DWORD PTR tv401[ebp], 48		; 00000030H
	je	SHORT $LN30@bipred_ave
	jmp	SHORT $LN31@bipred_ave
$LN29@bipred_ave:

; 1288 :         case 12: scatter_ymm_12x2_8bit(&dst[y * dst_stride + x], avg, dst_stride); break;

	mov	eax, DWORD PTR _dst_stride$[ebx]
	push	eax
	vmovdqu	ymm0, YMMWORD PTR _avg$31[ebp]
	mov	ecx, DWORD PTR _y$52[ebp]
	imul	ecx, DWORD PTR _dst_stride$[ebx]
	add	ecx, DWORD PTR _x$51[ebp]
	add	ecx, DWORD PTR _dst$[ebx]
	push	ecx
	call	_scatter_ymm_12x2_8bit
	add	esp, 8
	jmp	SHORT $LN10@bipred_ave
$LN30@bipred_ave:

; 1289 :         case 24: // Same as case 48
; 1290 :         case 48: _mm256_maskstore_epi64((long long*)&dst[y * dst_stride + x], mask, avg); break;

	vmovdqu	ymm0, YMMWORD PTR _avg$31[ebp]
	vmovdqu	ymm1, YMMWORD PTR _mask$50[ebp]
	mov	eax, DWORD PTR _y$52[ebp]
	imul	eax, DWORD PTR _dst_stride$[ebx]
	add	eax, DWORD PTR _x$51[ebp]
	add	eax, DWORD PTR _dst$[ebx]
	vpmaskmovq YMMWORD PTR [eax], ymm1, ymm0
	jmp	SHORT $LN10@bipred_ave
$LN31@bipred_ave:

; 1291 :         default:
; 1292 :           assert(0 && "Unexpected block width.");

	xor	eax, eax
	jne	SHORT $LN10@bipred_ave
	mov	ecx, DWORD PTR ?__LINE__Var@?0??bipred_average_px_im_template_avx2@@9@9
	add	ecx, 108				; 0000006cH
	mov	esi, esp
	push	ecx
	push	OFFSET ??_C@_1JG@HCGLAOEM@?$AAF?$AA?3?$AA?2?$AAo?$AAp?$AAe?$AAn?$AA_?$AAc?$AAo?$AAd?$AAe?$AAc?$AA_?$AAl@
	push	OFFSET ??_C@_1DO@PGNEGAJ@?$AA0?$AA?5?$AA?$CG?$AA?$CG?$AA?5?$AA?$CC?$AAU?$AAn?$AAe?$AAx?$AAp?$AAe?$AAc?$AAt?$AAe@
	call	DWORD PTR __imp___wassert
	add	esp, 12					; 0000000cH
	cmp	esi, esp
	call	__RTC_CheckEsp
$LN10@bipred_ave:

; 1293 :           break;
; 1294 :       }
; 1295 :     }

	jmp	$LN7@bipred_ave
$LN8@bipred_ave:

; 1296 :   } else {

	jmp	$LN1@bipred_ave
$LN27@bipred_ave:

; 1297 :     // 8x2, 8x6, 6x8 blocks (and maybe 2x8 in the future)
; 1298 :     switch (pu_w) {

	mov	eax, DWORD PTR _pu_w$[ebx]
	mov	DWORD PTR tv425[ebp], eax
	cmp	DWORD PTR tv425[ebp], 6
	je	$LN33@bipred_ave
	cmp	DWORD PTR tv425[ebp], 8
	je	SHORT $LN32@bipred_ave
	jmp	$LN34@bipred_ave
$LN32@bipred_ave:

; 1299 :       case 8: // 8x2, 8x6
; 1300 :         for (int i = 0; i < pu_w * pu_h; i += 16) {

	mov	DWORD PTR _i$30[ebp], 0
	jmp	SHORT $LN16@bipred_ave
$LN14@bipred_ave:
	mov	eax, DWORD PTR _i$30[ebp]
	add	eax, 16					; 00000010H
	mov	DWORD PTR _i$30[ebp], eax
$LN16@bipred_ave:
	mov	eax, DWORD PTR _pu_w$[ebx]
	imul	eax, DWORD PTR _pu_h$[ebx]
	cmp	DWORD PTR _i$30[ebp], eax
	jae	$LN15@bipred_ave

; 1301 : 
; 1302 :           int y = i / pu_w;

	mov	eax, DWORD PTR _i$30[ebp]
	xor	edx, edx
	div	DWORD PTR _pu_w$[ebx]
	mov	DWORD PTR _y$29[ebp], eax

; 1303 : 
; 1304 :           __m128i sample_px_8bit  = _mm_loadu_si128((__m128i*)&px[i]);

	mov	eax, DWORD PTR _px$[ebx]
	add	eax, DWORD PTR _i$30[ebp]
	vmovdqu	xmm0, XMMWORD PTR [eax]
	vmovdqa	XMMWORD PTR _sample_px_8bit$28[ebp], xmm0

; 1305 :           __m256i sample_px_16bit = _mm256_cvtepu8_epi16(sample_px_8bit);

	vpmovzxbw ymm0, XMMWORD PTR _sample_px_8bit$28[ebp]
	vmovdqu	YMMWORD PTR _sample_px_16bit$27[ebp], ymm0

; 1306 :           sample_px_16bit         = _mm256_slli_epi16(sample_px_16bit, 14 - KVZ_BIT_DEPTH);

	vmovdqu	ymm0, YMMWORD PTR _sample_px_16bit$27[ebp]
	vpsllw	ymm0, ymm0, 6
	vmovdqu	YMMWORD PTR _sample_px_16bit$27[ebp], ymm0

; 1307 :           __m256i sample_im_16bit = _mm256_loadu_si256((__m256i*)&im[i]);

	mov	eax, DWORD PTR _i$30[ebp]
	mov	ecx, DWORD PTR _im$[ebx]
	vmovdqu	ymm0, YMMWORD PTR [ecx+eax*2]
	vmovdqu	YMMWORD PTR _sample_im_16bit$26[ebp], ymm0

; 1308 : 
; 1309 :           __m256i sample_px_im_lo = _mm256_unpacklo_epi16(sample_px_16bit, sample_im_16bit);

	vmovdqu	ymm0, YMMWORD PTR _sample_px_16bit$27[ebp]
	vpunpcklwd ymm0, ymm0, YMMWORD PTR _sample_im_16bit$26[ebp]
	vmovdqu	YMMWORD PTR _sample_px_im_lo$25[ebp], ymm0

; 1310 :           __m256i sample_px_im_hi = _mm256_unpackhi_epi16(sample_px_16bit, sample_im_16bit);

	vmovdqu	ymm0, YMMWORD PTR _sample_px_16bit$27[ebp]
	vpunpckhwd ymm0, ymm0, YMMWORD PTR _sample_im_16bit$26[ebp]
	vmovdqu	YMMWORD PTR _sample_px_im_hi$24[ebp], ymm0

; 1311 : 
; 1312 :           __m256i all_ones = _mm256_set1_epi16(1);

	vmovdqu	ymm0, YMMWORD PTR __ymm@0001000100010001000100010001000100010001000100010001000100010001
	vmovdqu	YMMWORD PTR _all_ones$23[ebp], ymm0

; 1313 :           __m256i avg_lo   = _mm256_madd_epi16(sample_px_im_lo, all_ones);

	vmovdqu	ymm0, YMMWORD PTR _sample_px_im_lo$25[ebp]
	vpmaddwd ymm0, ymm0, YMMWORD PTR _all_ones$23[ebp]
	vmovdqu	YMMWORD PTR _avg_lo$22[ebp], ymm0

; 1314 :           __m256i avg_hi   = _mm256_madd_epi16(sample_px_im_hi, all_ones);

	vmovdqu	ymm0, YMMWORD PTR _sample_px_im_hi$24[ebp]
	vpmaddwd ymm0, ymm0, YMMWORD PTR _all_ones$23[ebp]
	vmovdqu	YMMWORD PTR _avg_hi$21[ebp], ymm0

; 1315 : 
; 1316 :           avg_lo = _mm256_add_epi32(avg_lo, offset);

	vmovdqu	ymm0, YMMWORD PTR _avg_lo$22[ebp]
	vpaddd	ymm0, ymm0, YMMWORD PTR _offset$[ebp]
	vmovdqu	YMMWORD PTR _avg_lo$22[ebp], ymm0

; 1317 :           avg_hi = _mm256_add_epi32(avg_hi, offset);

	vmovdqu	ymm0, YMMWORD PTR _avg_hi$21[ebp]
	vpaddd	ymm0, ymm0, YMMWORD PTR _offset$[ebp]
	vmovdqu	YMMWORD PTR _avg_hi$21[ebp], ymm0

; 1318 : 
; 1319 :           avg_lo = _mm256_srai_epi32(avg_lo, shift);

	vmovdqu	ymm0, YMMWORD PTR _avg_lo$22[ebp]
	vmovd	xmm1, DWORD PTR _shift$[ebp]
	vpsrad	ymm0, ymm0, xmm1
	vmovdqu	YMMWORD PTR _avg_lo$22[ebp], ymm0

; 1320 :           avg_hi = _mm256_srai_epi32(avg_hi, shift);

	vmovdqu	ymm0, YMMWORD PTR _avg_hi$21[ebp]
	vmovd	xmm1, DWORD PTR _shift$[ebp]
	vpsrad	ymm0, ymm0, xmm1
	vmovdqu	YMMWORD PTR _avg_hi$21[ebp], ymm0

; 1321 : 
; 1322 :           __m256i avg256 = _mm256_packus_epi32(avg_lo, avg_hi);

	vmovdqu	ymm0, YMMWORD PTR _avg_lo$22[ebp]
	vpackusdw ymm0, ymm0, YMMWORD PTR _avg_hi$21[ebp]
	vmovdqu	YMMWORD PTR _avg256$20[ebp], ymm0

; 1323 :           avg256         = _mm256_packus_epi16(avg256, avg256);

	vmovdqu	ymm0, YMMWORD PTR _avg256$20[ebp]
	vpackuswb ymm0, ymm0, YMMWORD PTR _avg256$20[ebp]
	vmovdqu	YMMWORD PTR _avg256$20[ebp], ymm0

; 1324 :           avg256         = _mm256_permute4x64_epi64(avg256, _MM_SHUFFLE(3, 1, 2, 0));

	vpermq	ymm0, YMMWORD PTR _avg256$20[ebp], 216	; 000000d8H
	vmovdqu	YMMWORD PTR _avg256$20[ebp], ymm0

; 1325 :           __m128i avg    = _mm256_castsi256_si128(avg256);

	vmovdqu	xmm0, XMMWORD PTR _avg256$20[ebp]
	vmovdqa	XMMWORD PTR _avg$19[ebp], xmm0

; 1326 : 
; 1327 :           _mm_storel_epi64((__m128i*)&dst[y * dst_stride], avg);

	vmovdqa	xmm0, XMMWORD PTR _avg$19[ebp]
	mov	eax, DWORD PTR _y$29[ebp]
	imul	eax, DWORD PTR _dst_stride$[ebx]
	add	eax, DWORD PTR _dst$[ebx]
	vmovq	QWORD PTR [eax], xmm0

; 1328 :           _mm_storeh_pd((double*)&dst[(y + 1) * dst_stride], _mm_castsi128_pd(avg));

	vmovdqa	xmm0, XMMWORD PTR _avg$19[ebp]
	mov	eax, DWORD PTR _y$29[ebp]
	add	eax, 1
	imul	eax, DWORD PTR _dst_stride$[ebx]
	add	eax, DWORD PTR _dst$[ebx]
	vmovhpd	QWORD PTR [eax], xmm0

; 1329 :         }

	jmp	$LN14@bipred_ave
$LN15@bipred_ave:

; 1330 :         break;

	jmp	$LN1@bipred_ave
$LN33@bipred_ave:

; 1331 :       case 6: // 6x8
; 1332 :         for (int i = 0; i < pu_w * pu_h; i += 12) {

	mov	DWORD PTR _i$18[ebp], 0
	jmp	SHORT $LN19@bipred_ave
$LN17@bipred_ave:
	mov	eax, DWORD PTR _i$18[ebp]
	add	eax, 12					; 0000000cH
	mov	DWORD PTR _i$18[ebp], eax
$LN19@bipred_ave:
	mov	eax, DWORD PTR _pu_w$[ebx]
	imul	eax, DWORD PTR _pu_h$[ebx]
	cmp	DWORD PTR _i$18[ebp], eax
	jae	$LN18@bipred_ave

; 1333 : 
; 1334 :           int y = i / pu_w;

	mov	eax, DWORD PTR _i$18[ebp]
	xor	edx, edx
	div	DWORD PTR _pu_w$[ebx]
	mov	DWORD PTR _y$17[ebp], eax

; 1335 : 
; 1336 :           __m128i mask128         = _mm_setr_epi32(-1, -1, -1, 0);

	vmovdqa	xmm0, XMMWORD PTR __xmm@00000000ffffffffffffffffffffffff
	vmovdqa	XMMWORD PTR _mask128$16[ebp], xmm0

; 1337 :           __m128i sample_px_8bit  = _mm_maskload_epi32((const int*)(&px[i]), mask128);

	vmovdqa	xmm0, XMMWORD PTR _mask128$16[ebp]
	mov	eax, DWORD PTR _px$[ebx]
	add	eax, DWORD PTR _i$18[ebp]
	vpmaskmovd xmm0, xmm0, XMMWORD PTR [eax]
	vmovdqa	XMMWORD PTR _sample_px_8bit$15[ebp], xmm0

; 1338 : 
; 1339 :           __m256i mask            = _mm256_setr_epi64x(-1, -1, -1, 0);

	vmovdqu	ymm0, YMMWORD PTR __ymm@0000000000000000ffffffffffffffffffffffffffffffffffffffffffffffff
	vmovdqu	YMMWORD PTR _mask$14[ebp], ymm0

; 1340 :           __m256i sample_px_16bit = _mm256_cvtepu8_epi16(sample_px_8bit);

	vpmovzxbw ymm0, XMMWORD PTR _sample_px_8bit$15[ebp]
	vmovdqu	YMMWORD PTR _sample_px_16bit$13[ebp], ymm0

; 1341 :           sample_px_16bit         = _mm256_slli_epi16(sample_px_16bit, 14 - KVZ_BIT_DEPTH);

	vmovdqu	ymm0, YMMWORD PTR _sample_px_16bit$13[ebp]
	vpsllw	ymm0, ymm0, 6
	vmovdqu	YMMWORD PTR _sample_px_16bit$13[ebp], ymm0

; 1342 :           __m256i sample_im_16bit = _mm256_maskload_epi64((const long long*)(&im[i]), mask);

	vmovdqu	ymm0, YMMWORD PTR _mask$14[ebp]
	mov	eax, DWORD PTR _i$18[ebp]
	mov	ecx, DWORD PTR _im$[ebx]
	vpmaskmovq ymm0, ymm0, YMMWORD PTR [ecx+eax*2]
	vmovdqu	YMMWORD PTR _sample_im_16bit$12[ebp], ymm0

; 1343 : 
; 1344 :           __m256i sample_px_im_lo = _mm256_unpacklo_epi16(sample_px_16bit, sample_im_16bit);

	vmovdqu	ymm0, YMMWORD PTR _sample_px_16bit$13[ebp]
	vpunpcklwd ymm0, ymm0, YMMWORD PTR _sample_im_16bit$12[ebp]
	vmovdqu	YMMWORD PTR _sample_px_im_lo$11[ebp], ymm0

; 1345 :           __m256i sample_px_im_hi = _mm256_unpackhi_epi16(sample_px_16bit, sample_im_16bit);

	vmovdqu	ymm0, YMMWORD PTR _sample_px_16bit$13[ebp]
	vpunpckhwd ymm0, ymm0, YMMWORD PTR _sample_im_16bit$12[ebp]
	vmovdqu	YMMWORD PTR _sample_px_im_hi$10[ebp], ymm0

; 1346 : 
; 1347 :           __m256i all_ones = _mm256_set1_epi16(1);

	vmovdqu	ymm0, YMMWORD PTR __ymm@0001000100010001000100010001000100010001000100010001000100010001
	vmovdqu	YMMWORD PTR _all_ones$9[ebp], ymm0

; 1348 :           __m256i avg_lo   = _mm256_madd_epi16(sample_px_im_lo, all_ones);

	vmovdqu	ymm0, YMMWORD PTR _sample_px_im_lo$11[ebp]
	vpmaddwd ymm0, ymm0, YMMWORD PTR _all_ones$9[ebp]
	vmovdqu	YMMWORD PTR _avg_lo$8[ebp], ymm0

; 1349 :           __m256i avg_hi   = _mm256_madd_epi16(sample_px_im_hi, all_ones);

	vmovdqu	ymm0, YMMWORD PTR _sample_px_im_hi$10[ebp]
	vpmaddwd ymm0, ymm0, YMMWORD PTR _all_ones$9[ebp]
	vmovdqu	YMMWORD PTR _avg_hi$7[ebp], ymm0

; 1350 : 
; 1351 :           avg_lo = _mm256_add_epi32(avg_lo, offset);

	vmovdqu	ymm0, YMMWORD PTR _avg_lo$8[ebp]
	vpaddd	ymm0, ymm0, YMMWORD PTR _offset$[ebp]
	vmovdqu	YMMWORD PTR _avg_lo$8[ebp], ymm0

; 1352 :           avg_hi = _mm256_add_epi32(avg_hi, offset);

	vmovdqu	ymm0, YMMWORD PTR _avg_hi$7[ebp]
	vpaddd	ymm0, ymm0, YMMWORD PTR _offset$[ebp]
	vmovdqu	YMMWORD PTR _avg_hi$7[ebp], ymm0

; 1353 : 
; 1354 :           avg_lo = _mm256_srai_epi32(avg_lo, shift);

	vmovdqu	ymm0, YMMWORD PTR _avg_lo$8[ebp]
	vmovd	xmm1, DWORD PTR _shift$[ebp]
	vpsrad	ymm0, ymm0, xmm1
	vmovdqu	YMMWORD PTR _avg_lo$8[ebp], ymm0

; 1355 :           avg_hi = _mm256_srai_epi32(avg_hi, shift);

	vmovdqu	ymm0, YMMWORD PTR _avg_hi$7[ebp]
	vmovd	xmm1, DWORD PTR _shift$[ebp]
	vpsrad	ymm0, ymm0, xmm1
	vmovdqu	YMMWORD PTR _avg_hi$7[ebp], ymm0

; 1356 : 
; 1357 :           __m256i avg256 = _mm256_packus_epi32(avg_lo, avg_hi);

	vmovdqu	ymm0, YMMWORD PTR _avg_lo$8[ebp]
	vpackusdw ymm0, ymm0, YMMWORD PTR _avg_hi$7[ebp]
	vmovdqu	YMMWORD PTR _avg256$6[ebp], ymm0

; 1358 :           avg256         = _mm256_packus_epi16(avg256, avg256);

	vmovdqu	ymm0, YMMWORD PTR _avg256$6[ebp]
	vpackuswb ymm0, ymm0, YMMWORD PTR _avg256$6[ebp]
	vmovdqu	YMMWORD PTR _avg256$6[ebp], ymm0

; 1359 :           avg256         = _mm256_permute4x64_epi64(avg256, _MM_SHUFFLE(3, 1, 2, 0));

	vpermq	ymm0, YMMWORD PTR _avg256$6[ebp], 216	; 000000d8H
	vmovdqu	YMMWORD PTR _avg256$6[ebp], ymm0

; 1360 :           __m128i avg    = _mm256_castsi256_si128(avg256);

	vmovdqu	xmm0, XMMWORD PTR _avg256$6[ebp]
	vmovdqa	XMMWORD PTR _avg$5[ebp], xmm0

; 1361 : 
; 1362 :           uint32_t elements_0123 = _mm_cvtsi128_si32(avg);

	vmovdqa	xmm0, XMMWORD PTR _avg$5[ebp]
	vmovd	eax, xmm0
	mov	DWORD PTR _elements_0123$4[ebp], eax

; 1363 :           uint16_t elements_45   = _mm_extract_epi16(avg, 2);

	vmovdqa	xmm0, XMMWORD PTR _avg$5[ebp]
	vpextrw	eax, xmm0, 2
	mov	WORD PTR _elements_45$3[ebp], ax

; 1364 :           uint16_t elements_67   = _mm_extract_epi16(avg, 3);

	vmovdqa	xmm0, XMMWORD PTR _avg$5[ebp]
	vpextrw	eax, xmm0, 3
	mov	WORD PTR _elements_67$2[ebp], ax

; 1365 :           uint32_t elements_89ab = _mm_extract_epi32(avg, 2);

	vmovdqa	xmm0, XMMWORD PTR _avg$5[ebp]
	vpextrd	eax, xmm0, 2
	mov	DWORD PTR _elements_89ab$1[ebp], eax

; 1366 :           *(uint32_t*)&dst[(y + 0) * dst_stride + 0] = elements_0123;

	mov	eax, DWORD PTR _y$17[ebp]
	imul	eax, DWORD PTR _dst_stride$[ebx]
	mov	ecx, DWORD PTR _dst$[ebx]
	mov	edx, DWORD PTR _elements_0123$4[ebp]
	mov	DWORD PTR [ecx+eax], edx

; 1367 :           *(uint16_t*)&dst[(y + 0) * dst_stride + 4] = elements_45;

	mov	eax, DWORD PTR _y$17[ebp]
	imul	eax, DWORD PTR _dst_stride$[ebx]
	mov	ecx, DWORD PTR _dst$[ebx]
	mov	dx, WORD PTR _elements_45$3[ebp]
	mov	WORD PTR [ecx+eax+4], dx

; 1368 :           *(uint16_t*)&dst[(y + 1) * dst_stride + 0] = elements_67;

	mov	eax, DWORD PTR _y$17[ebp]
	add	eax, 1
	imul	eax, DWORD PTR _dst_stride$[ebx]
	mov	ecx, DWORD PTR _dst$[ebx]
	mov	dx, WORD PTR _elements_67$2[ebp]
	mov	WORD PTR [ecx+eax], dx

; 1369 :           *(uint32_t*)&dst[(y + 1) * dst_stride + 2] = elements_89ab;

	mov	eax, DWORD PTR _y$17[ebp]
	add	eax, 1
	imul	eax, DWORD PTR _dst_stride$[ebx]
	mov	ecx, DWORD PTR _dst$[ebx]
	mov	edx, DWORD PTR _elements_89ab$1[ebp]
	mov	DWORD PTR [ecx+eax+2], edx

; 1370 :         }

	jmp	$LN17@bipred_ave
$LN18@bipred_ave:

; 1371 :         break;

	jmp	SHORT $LN1@bipred_ave
$LN34@bipred_ave:

; 1372 :       default:
; 1373 :         assert(0 && "Unexpected block width.");

	xor	eax, eax
	jne	SHORT $LN1@bipred_ave
	mov	ecx, DWORD PTR ?__LINE__Var@?0??bipred_average_px_im_template_avx2@@9@9
	add	ecx, 189				; 000000bdH
	mov	esi, esp
	push	ecx
	push	OFFSET ??_C@_1JG@HCGLAOEM@?$AAF?$AA?3?$AA?2?$AAo?$AAp?$AAe?$AAn?$AA_?$AAc?$AAo?$AAd?$AAe?$AAc?$AA_?$AAl@
	push	OFFSET ??_C@_1DO@PGNEGAJ@?$AA0?$AA?5?$AA?$CG?$AA?$CG?$AA?5?$AA?$CC?$AAU?$AAn?$AAe?$AAx?$AAp?$AAe?$AAc?$AAt?$AAe@
	call	DWORD PTR __imp___wassert
	add	esp, 12					; 0000000cH
	cmp	esi, esp
	call	__RTC_CheckEsp
$LN1@bipred_ave:

; 1374 :         break;
; 1375 :     }
; 1376 :   }
; 1377 : }

	pop	edi
	pop	esi
	mov	esp, ebp
	pop	ebp
	mov	esp, ebx
	pop	ebx
	ret	0
$LN52@bipred_ave:
	DD	$LN22@bipred_ave
	DD	$LN23@bipred_ave
	DD	$LN24@bipred_ave
	DD	$LN25@bipred_ave
	DD	$LN26@bipred_ave
$LN51@bipred_ave:
	DB	0
	DB	4
	DB	4
	DB	4
	DB	1
	DB	4
	DB	4
	DB	4
	DB	4
	DB	4
	DB	4
	DB	4
	DB	2
	DB	4
	DB	4
	DB	4
	DB	4
	DB	4
	DB	4
	DB	4
	DB	4
	DB	4
	DB	4
	DB	4
	DB	4
	DB	4
	DB	4
	DB	4
	DB	3
	DB	4
	DB	4
	DB	4
	DB	4
	DB	4
	DB	4
	DB	4
	DB	4
	DB	4
	DB	4
	DB	4
	DB	4
	DB	4
	DB	4
	DB	4
	DB	4
	DB	4
	DB	4
	DB	4
	DB	4
	DB	4
	DB	4
	DB	4
	DB	4
	DB	4
	DB	4
	DB	4
	DB	4
	DB	4
	DB	4
	DB	4
	DB	3
_bipred_average_px_im_template_avx2 ENDP
_TEXT	ENDS
; Function compile flags: /Odtp /RTCsu /ZI
; File F:\open_codec_learn_2021\kvazaar-master\src\strategies\avx2\picture-avx2.c
;	COMDAT _bipred_average_im_im_avx2
_TEXT	SEGMENT
tv67 = -292						; size = 4
_rounded$1 = -92					; size = 4
_sample_L1$2 = -80					; size = 2
_sample_L0$3 = -68					; size = 2
_x$4 = -56						; size = 4
_y$5 = -44						; size = 4
_i$6 = -32						; size = 4
_offset$7 = -20						; size = 4
_shift$8 = -8						; size = 4
_dst$ = 8						; size = 4
_im_L0$ = 12						; size = 4
_im_L1$ = 16						; size = 4
_pu_w$ = 20						; size = 4
_pu_h$ = 24						; size = 4
_dst_stride$ = 28					; size = 4
_bipred_average_im_im_avx2 PROC				; COMDAT

; 1144 : {

	push	ebp
	mov	ebp, esp
	sub	esp, 292				; 00000124H
	push	ebx
	push	esi
	push	edi
	lea	edi, DWORD PTR [ebp-292]
	mov	ecx, 73					; 00000049H
	mov	eax, -858993460				; ccccccccH
	rep stosd
	mov	ecx, OFFSET __5DE43F84_picture-avx2@c
	call	@__CheckForDebuggerJustMyCode@4

; 1145 :   // Use scalar code for yet unoptimized block sizes (4x4, 2x8)
; 1146 :   if (!(pu_w == 4 && pu_h == 4) && pu_w > 2) {

	cmp	DWORD PTR _pu_w$[ebp], 4
	jne	SHORT $LN9@bipred_ave
	cmp	DWORD PTR _pu_h$[ebp], 4
	je	$LN7@bipred_ave
$LN9@bipred_ave:
	cmp	DWORD PTR _pu_w$[ebp], 2
	jbe	$LN7@bipred_ave

; 1147 :     switch (pu_w) {

	mov	eax, DWORD PTR _pu_w$[ebp]
	mov	DWORD PTR tv67[ebp], eax
	mov	ecx, DWORD PTR tv67[ebp]
	sub	ecx, 4
	mov	DWORD PTR tv67[ebp], ecx
	cmp	DWORD PTR tv67[ebp], 60			; 0000003cH
	ja	$LN19@bipred_ave
	mov	edx, DWORD PTR tv67[ebp]
	movzx	eax, BYTE PTR $LN22@bipred_ave[edx]
	jmp	DWORD PTR $LN23@bipred_ave[eax*4]
$LN10@bipred_ave:

; 1148 :       case  4: bipred_average_im_im_template_avx2(dst, im_L0, im_L1,  4, pu_h, dst_stride); break;

	mov	eax, DWORD PTR _dst_stride$[ebp]
	push	eax
	mov	ecx, DWORD PTR _pu_h$[ebp]
	push	ecx
	push	4
	mov	edx, DWORD PTR _im_L1$[ebp]
	push	edx
	mov	eax, DWORD PTR _im_L0$[ebp]
	push	eax
	mov	ecx, DWORD PTR _dst$[ebp]
	push	ecx
	call	_bipred_average_im_im_template_avx2
	add	esp, 24					; 00000018H
	jmp	$LN2@bipred_ave
$LN11@bipred_ave:

; 1149 :       case  8: bipred_average_im_im_template_avx2(dst, im_L0, im_L1,  8, pu_h, dst_stride); break;

	mov	eax, DWORD PTR _dst_stride$[ebp]
	push	eax
	mov	ecx, DWORD PTR _pu_h$[ebp]
	push	ecx
	push	8
	mov	edx, DWORD PTR _im_L1$[ebp]
	push	edx
	mov	eax, DWORD PTR _im_L0$[ebp]
	push	eax
	mov	ecx, DWORD PTR _dst$[ebp]
	push	ecx
	call	_bipred_average_im_im_template_avx2
	add	esp, 24					; 00000018H
	jmp	$LN2@bipred_ave
$LN12@bipred_ave:

; 1150 :       case 16: bipred_average_im_im_template_avx2(dst, im_L0, im_L1, 16, pu_h, dst_stride); break;

	mov	eax, DWORD PTR _dst_stride$[ebp]
	push	eax
	mov	ecx, DWORD PTR _pu_h$[ebp]
	push	ecx
	push	16					; 00000010H
	mov	edx, DWORD PTR _im_L1$[ebp]
	push	edx
	mov	eax, DWORD PTR _im_L0$[ebp]
	push	eax
	mov	ecx, DWORD PTR _dst$[ebp]
	push	ecx
	call	_bipred_average_im_im_template_avx2
	add	esp, 24					; 00000018H
	jmp	$LN2@bipred_ave
$LN13@bipred_ave:

; 1151 :       case 32: bipred_average_im_im_template_avx2(dst, im_L0, im_L1, 32, pu_h, dst_stride); break;

	mov	eax, DWORD PTR _dst_stride$[ebp]
	push	eax
	mov	ecx, DWORD PTR _pu_h$[ebp]
	push	ecx
	push	32					; 00000020H
	mov	edx, DWORD PTR _im_L1$[ebp]
	push	edx
	mov	eax, DWORD PTR _im_L0$[ebp]
	push	eax
	mov	ecx, DWORD PTR _dst$[ebp]
	push	ecx
	call	_bipred_average_im_im_template_avx2
	add	esp, 24					; 00000018H
	jmp	$LN2@bipred_ave
$LN14@bipred_ave:

; 1152 :       case 64: bipred_average_im_im_template_avx2(dst, im_L0, im_L1, 64, pu_h, dst_stride); break;

	mov	eax, DWORD PTR _dst_stride$[ebp]
	push	eax
	mov	ecx, DWORD PTR _pu_h$[ebp]
	push	ecx
	push	64					; 00000040H
	mov	edx, DWORD PTR _im_L1$[ebp]
	push	edx
	mov	eax, DWORD PTR _im_L0$[ebp]
	push	eax
	mov	ecx, DWORD PTR _dst$[ebp]
	push	ecx
	call	_bipred_average_im_im_template_avx2
	add	esp, 24					; 00000018H
	jmp	$LN2@bipred_ave
$LN15@bipred_ave:

; 1153 : 
; 1154 :       case  6: bipred_average_im_im_template_avx2(dst, im_L0, im_L1,  6, pu_h, dst_stride); break;

	mov	eax, DWORD PTR _dst_stride$[ebp]
	push	eax
	mov	ecx, DWORD PTR _pu_h$[ebp]
	push	ecx
	push	6
	mov	edx, DWORD PTR _im_L1$[ebp]
	push	edx
	mov	eax, DWORD PTR _im_L0$[ebp]
	push	eax
	mov	ecx, DWORD PTR _dst$[ebp]
	push	ecx
	call	_bipred_average_im_im_template_avx2
	add	esp, 24					; 00000018H
	jmp	$LN2@bipred_ave
$LN16@bipred_ave:

; 1155 :       case 12: bipred_average_im_im_template_avx2(dst, im_L0, im_L1, 12, pu_h, dst_stride); break;

	mov	eax, DWORD PTR _dst_stride$[ebp]
	push	eax
	mov	ecx, DWORD PTR _pu_h$[ebp]
	push	ecx
	push	12					; 0000000cH
	mov	edx, DWORD PTR _im_L1$[ebp]
	push	edx
	mov	eax, DWORD PTR _im_L0$[ebp]
	push	eax
	mov	ecx, DWORD PTR _dst$[ebp]
	push	ecx
	call	_bipred_average_im_im_template_avx2
	add	esp, 24					; 00000018H
	jmp	SHORT $LN2@bipred_ave
$LN17@bipred_ave:

; 1156 :       case 24: bipred_average_im_im_template_avx2(dst, im_L0, im_L1, 24, pu_h, dst_stride); break;

	mov	eax, DWORD PTR _dst_stride$[ebp]
	push	eax
	mov	ecx, DWORD PTR _pu_h$[ebp]
	push	ecx
	push	24					; 00000018H
	mov	edx, DWORD PTR _im_L1$[ebp]
	push	edx
	mov	eax, DWORD PTR _im_L0$[ebp]
	push	eax
	mov	ecx, DWORD PTR _dst$[ebp]
	push	ecx
	call	_bipred_average_im_im_template_avx2
	add	esp, 24					; 00000018H
	jmp	SHORT $LN2@bipred_ave
$LN18@bipred_ave:

; 1157 :       case 48: bipred_average_im_im_template_avx2(dst, im_L0, im_L1, 48, pu_h, dst_stride); break;

	mov	eax, DWORD PTR _dst_stride$[ebp]
	push	eax
	mov	ecx, DWORD PTR _pu_h$[ebp]
	push	ecx
	push	48					; 00000030H
	mov	edx, DWORD PTR _im_L1$[ebp]
	push	edx
	mov	eax, DWORD PTR _im_L0$[ebp]
	push	eax
	mov	ecx, DWORD PTR _dst$[ebp]
	push	ecx
	call	_bipred_average_im_im_template_avx2
	add	esp, 24					; 00000018H
	jmp	SHORT $LN2@bipred_ave
$LN19@bipred_ave:

; 1158 :       default:
; 1159 :         assert(0 && "Unexpected block width.");

	xor	eax, eax
	jne	SHORT $LN2@bipred_ave
	mov	ecx, DWORD PTR ?__LINE__Var@?0??bipred_average_im_im_avx2@@9@9
	add	ecx, 15					; 0000000fH
	mov	esi, esp
	push	ecx
	push	OFFSET ??_C@_1JG@HCGLAOEM@?$AAF?$AA?3?$AA?2?$AAo?$AAp?$AAe?$AAn?$AA_?$AAc?$AAo?$AAd?$AAe?$AAc?$AA_?$AAl@
	push	OFFSET ??_C@_1DO@PGNEGAJ@?$AA0?$AA?5?$AA?$CG?$AA?$CG?$AA?5?$AA?$CC?$AAU?$AAn?$AAe?$AAx?$AAp?$AAe?$AAc?$AAt?$AAe@
	call	DWORD PTR __imp___wassert
	add	esp, 12					; 0000000cH
	cmp	esi, esp
	call	__RTC_CheckEsp
$LN2@bipred_ave:

; 1160 :         break;
; 1161 :     }
; 1162 :   } else {

	jmp	$LN1@bipred_ave
$LN7@bipred_ave:

; 1163 :     int32_t shift = 15 - KVZ_BIT_DEPTH; // TODO: defines

	mov	DWORD PTR _shift$8[ebp], 7

; 1164 :     int32_t offset = 1 << (shift - 1);

	mov	eax, DWORD PTR _shift$8[ebp]
	sub	eax, 1
	mov	ecx, 1
	shlx	edx, ecx, eax
	mov	DWORD PTR _offset$7[ebp], edx

; 1165 : 
; 1166 :     for (int i = 0; i < pu_w * pu_h; ++i)

	mov	DWORD PTR _i$6[ebp], 0
	jmp	SHORT $LN6@bipred_ave
$LN4@bipred_ave:
	mov	eax, DWORD PTR _i$6[ebp]
	add	eax, 1
	mov	DWORD PTR _i$6[ebp], eax
$LN6@bipred_ave:
	mov	eax, DWORD PTR _pu_w$[ebp]
	imul	eax, DWORD PTR _pu_h$[ebp]
	cmp	DWORD PTR _i$6[ebp], eax
	jae	SHORT $LN1@bipred_ave

; 1167 :     {
; 1168 :       int y = i / pu_w;

	mov	eax, DWORD PTR _i$6[ebp]
	xor	edx, edx
	div	DWORD PTR _pu_w$[ebp]
	mov	DWORD PTR _y$5[ebp], eax

; 1169 :       int x = i % pu_w;

	mov	eax, DWORD PTR _i$6[ebp]
	xor	edx, edx
	div	DWORD PTR _pu_w$[ebp]
	mov	DWORD PTR _x$4[ebp], edx

; 1170 :       int16_t sample_L0 = im_L0[i];

	mov	eax, DWORD PTR _i$6[ebp]
	mov	ecx, DWORD PTR _im_L0$[ebp]
	mov	dx, WORD PTR [ecx+eax*2]
	mov	WORD PTR _sample_L0$3[ebp], dx

; 1171 :       int16_t sample_L1 = im_L1[i];

	mov	eax, DWORD PTR _i$6[ebp]
	mov	ecx, DWORD PTR _im_L1$[ebp]
	mov	dx, WORD PTR [ecx+eax*2]
	mov	WORD PTR _sample_L1$2[ebp], dx

; 1172 :       int32_t rounded = (sample_L0 + sample_L1 + offset) >> shift;

	movsx	eax, WORD PTR _sample_L0$3[ebp]
	movsx	ecx, WORD PTR _sample_L1$2[ebp]
	add	eax, DWORD PTR _offset$7[ebp]
	add	ecx, eax
	mov	edx, DWORD PTR _shift$8[ebp]
	sarx	eax, ecx, edx
	mov	DWORD PTR _rounded$1[ebp], eax

; 1173 :       dst[y * dst_stride + x] = kvz_fast_clip_32bit_to_pixel(rounded);

	mov	eax, DWORD PTR _rounded$1[ebp]
	push	eax
	call	_kvz_fast_clip_32bit_to_pixel
	add	esp, 4
	mov	ecx, DWORD PTR _y$5[ebp]
	imul	ecx, DWORD PTR _dst_stride$[ebp]
	add	ecx, DWORD PTR _x$4[ebp]
	mov	edx, DWORD PTR _dst$[ebp]
	mov	BYTE PTR [edx+ecx], al

; 1174 :     }

	jmp	SHORT $LN4@bipred_ave
$LN1@bipred_ave:

; 1175 :   }
; 1176 : }

	pop	edi
	pop	esi
	pop	ebx
	add	esp, 292				; 00000124H
	cmp	ebp, esp
	call	__RTC_CheckEsp
	mov	esp, ebp
	pop	ebp
	ret	0
$LN23@bipred_ave:
	DD	$LN10@bipred_ave
	DD	$LN15@bipred_ave
	DD	$LN11@bipred_ave
	DD	$LN16@bipred_ave
	DD	$LN12@bipred_ave
	DD	$LN17@bipred_ave
	DD	$LN13@bipred_ave
	DD	$LN18@bipred_ave
	DD	$LN14@bipred_ave
	DD	$LN19@bipred_ave
$LN22@bipred_ave:
	DB	0
	DB	9
	DB	1
	DB	9
	DB	2
	DB	9
	DB	9
	DB	9
	DB	3
	DB	9
	DB	9
	DB	9
	DB	4
	DB	9
	DB	9
	DB	9
	DB	9
	DB	9
	DB	9
	DB	9
	DB	5
	DB	9
	DB	9
	DB	9
	DB	9
	DB	9
	DB	9
	DB	9
	DB	6
	DB	9
	DB	9
	DB	9
	DB	9
	DB	9
	DB	9
	DB	9
	DB	9
	DB	9
	DB	9
	DB	9
	DB	9
	DB	9
	DB	9
	DB	9
	DB	7
	DB	9
	DB	9
	DB	9
	DB	9
	DB	9
	DB	9
	DB	9
	DB	9
	DB	9
	DB	9
	DB	9
	DB	9
	DB	9
	DB	9
	DB	9
	DB	8
_bipred_average_im_im_avx2 ENDP
_TEXT	ENDS
; Function compile flags: /Odtp /RTCsu /ZI
; File F:\open_codec_learn_2021\kvazaar-master\src\strategies\avx2\picture-avx2.c
;	COMDAT _bipred_average_im_im_template_avx2
_TEXT	SEGMENT
tv73 = -5148						; size = 4
tv407 = -5144						; size = 4
tv383 = -5144						; size = 4
tv217 = -5144						; size = 4
tv78 = -5144						; size = 4
tv71 = -5144						; size = 4
_elements_89ab$1 = -3600				; size = 4
_elements_67$2 = -3588					; size = 2
_elements_45$3 = -3576					; size = 2
_elements_0123$4 = -3564				; size = 4
_avg$5 = -3552						; size = 16
_avg256$6 = -3520					; size = 32
_avg_a_hi$7 = -3456					; size = 32
_avg_a_lo$8 = -3392					; size = 32
_all_ones$9 = -3328					; size = 32
_sample_L0_L1_hi$10 = -3264				; size = 32
_sample_L0_L1_lo$11 = -3200				; size = 32
_sample_L1_16bit$12 = -3136				; size = 32
_sample_L0_16bit$13 = -3072				; size = 32
_mask$14 = -3008					; size = 32
_y$15 = -2968						; size = 4
_i$16 = -2956						; size = 4
_avg$17 = -2944						; size = 16
_avg256$18 = -2912					; size = 32
_avg_hi$19 = -2848					; size = 32
_avg_lo$20 = -2784					; size = 32
_all_ones$21 = -2720					; size = 32
_sample_L0_L1_hi$22 = -2656				; size = 32
_sample_L0_L1_lo$23 = -2592				; size = 32
_sample_L1_16bit$24 = -2528				; size = 32
_sample_L0_16bit$25 = -2464				; size = 32
_y$26 = -2424						; size = 4
_i$27 = -2412						; size = 4
_avg$28 = -2400						; size = 32
_avg0213$29 = -2336					; size = 32
_avg_23$30 = -2272					; size = 32
_avg_01$31 = -2208					; size = 32
_avg_b_hi$32 = -2144					; size = 32
_avg_b_lo$33 = -2080					; size = 32
_avg_a_hi$34 = -2016					; size = 32
_avg_a_lo$35 = -1952					; size = 32
_all_ones$36 = -1888					; size = 32
_sample_L0_L1_b_hi$37 = -1824				; size = 32
_sample_L0_L1_b_lo$38 = -1760				; size = 32
_sample_L0_L1_a_hi$39 = -1696				; size = 32
_sample_L0_L1_a_lo$40 = -1632				; size = 32
_sample_L1_b_16bit$41 = -1568				; size = 32
_sample_L0_b_16bit$42 = -1504				; size = 32
_sample_L1_a_16bit$43 = -1440				; size = 32
_sample_L0_a_16bit$44 = -1376				; size = 32
_mask$45 = -1312					; size = 32
_x$46 = -1252						; size = 4
_y$47 = -1240						; size = 4
_i$48 = -1228						; size = 4
_avg$49 = -1216						; size = 32
_avg0213$50 = -1152					; size = 32
_avg_23$51 = -1088					; size = 32
_avg_01$52 = -1024					; size = 32
_avg_b_hi$53 = -960					; size = 32
_avg_b_lo$54 = -896					; size = 32
_avg_a_hi$55 = -832					; size = 32
_avg_a_lo$56 = -768					; size = 32
_all_ones$57 = -704					; size = 32
_sample_L0_L1_b_hi$58 = -640				; size = 32
_sample_L0_L1_b_lo$59 = -576				; size = 32
_sample_L0_L1_a_hi$60 = -512				; size = 32
_sample_L0_L1_a_lo$61 = -448				; size = 32
_sample_L1_b_16bit$62 = -384				; size = 32
_sample_L0_b_16bit$63 = -320				; size = 32
_sample_L1_a_16bit$64 = -256				; size = 32
_sample_L0_a_16bit$65 = -192				; size = 32
_x$66 = -124						; size = 4
_y$67 = -112						; size = 4
_i$68 = -100						; size = 4
_area_mod_32$ = -85					; size = 1
_has_pow2_width$ = -73					; size = 1
_offset$ = -64						; size = 32
_scalar_offset$ = -20					; size = 4
_shift$ = -8						; size = 4
_dst$ = 8						; size = 4
_im_L0$ = 12						; size = 4
_im_L1$ = 16						; size = 4
_pu_w$ = 20						; size = 4
_pu_h$ = 24						; size = 4
_dst_stride$ = 28					; size = 4
_bipred_average_im_im_template_avx2 PROC		; COMDAT

; 956  : {

	push	ebx
	mov	ebx, esp
	sub	esp, 8
	and	esp, -32				; ffffffe0H
	add	esp, 4
	push	ebp
	mov	ebp, DWORD PTR [ebx+4]
	mov	DWORD PTR [esp+4], ebp
	mov	ebp, esp
	mov	eax, 5176				; 00001438H
	call	__chkstk
	push	esi
	push	edi
	lea	edi, DWORD PTR [ebp-5176]
	mov	ecx, 1294				; 0000050eH
	mov	eax, -858993460				; ccccccccH
	rep stosd
	mov	ecx, OFFSET __5DE43F84_picture-avx2@c
	call	@__CheckForDebuggerJustMyCode@4

; 957  :   int32_t shift = 15 - KVZ_BIT_DEPTH; // TODO: defines

	mov	DWORD PTR _shift$[ebp], 7

; 958  :   int32_t scalar_offset = 1 << (shift - 1);

	mov	eax, DWORD PTR _shift$[ebp]
	sub	eax, 1
	mov	ecx, 1
	shlx	edx, ecx, eax
	mov	DWORD PTR _scalar_offset$[ebp], edx

; 959  :   __m256i offset = _mm256_set1_epi32(scalar_offset);

	vmovd	xmm0, DWORD PTR _scalar_offset$[ebp]
	vpbroadcastd ymm0, xmm0
	vmovdqu	YMMWORD PTR _offset$[ebp], ymm0

; 960  : 
; 961  :   bool has_pow2_width = _mm_popcnt_u32(pu_w) == 1;

	popcnt	eax, DWORD PTR _pu_w$[ebx]
	cmp	eax, 1
	jne	SHORT $LN36@bipred_ave
	mov	DWORD PTR tv71[ebp], 1
	jmp	SHORT $LN37@bipred_ave
$LN36@bipred_ave:
	mov	DWORD PTR tv71[ebp], 0
$LN37@bipred_ave:
	cmp	DWORD PTR tv71[ebp], 0
	jne	SHORT $LN38@bipred_ave
	mov	DWORD PTR tv73[ebp], 0
	jmp	SHORT $LN39@bipred_ave
$LN38@bipred_ave:
	mov	DWORD PTR tv73[ebp], 1
$LN39@bipred_ave:
	mov	cl, BYTE PTR tv73[ebp]
	mov	BYTE PTR _has_pow2_width$[ebp], cl

; 962  :   bool area_mod_32 = (pu_w * pu_h) % 32;

	mov	eax, DWORD PTR _pu_w$[ebx]
	imul	eax, DWORD PTR _pu_h$[ebx]
	xor	edx, edx
	mov	ecx, 32					; 00000020H
	div	ecx
	test	edx, edx
	jne	SHORT $LN40@bipred_ave
	mov	DWORD PTR tv78[ebp], 0
	jmp	SHORT $LN41@bipred_ave
$LN40@bipred_ave:
	mov	DWORD PTR tv78[ebp], 1
$LN41@bipred_ave:
	mov	dl, BYTE PTR tv78[ebp]
	mov	BYTE PTR _area_mod_32$[ebp], dl

; 963  :   assert(!(pu_w == 4 && pu_h == 4) && "Branch for 4x4 not yet implemented.");

	cmp	DWORD PTR _pu_w$[ebx], 4
	jne	SHORT $LN42@bipred_ave
	cmp	DWORD PTR _pu_h$[ebx], 4
	je	SHORT $LN43@bipred_ave
$LN42@bipred_ave:
	mov	eax, OFFSET ??_C@_0CE@OJCKHEGB@Branch?5for?54x4?5not?5yet?5implemen@
	test	eax, eax
	jne	SHORT $LN44@bipred_ave
$LN43@bipred_ave:
	mov	ecx, DWORD PTR ?__LINE__Var@?0??bipred_average_im_im_template_avx2@@9@9
	add	ecx, 7
	mov	esi, esp
	push	ecx
	push	OFFSET ??_C@_1JG@HCGLAOEM@?$AAF?$AA?3?$AA?2?$AAo?$AAp?$AAe?$AAn?$AA_?$AAc?$AAo?$AAd?$AAe?$AAc?$AA_?$AAl@
	push	OFFSET ??_C@_1IG@PFICKALD@?$AA?$CB?$AA?$CI?$AAp?$AAu?$AA_?$AAw?$AA?5?$AA?$DN?$AA?$DN?$AA?5?$AA4?$AA?5?$AA?$CG?$AA?$CG?$AA?5@
	call	DWORD PTR __imp___wassert
	add	esp, 12					; 0000000cH
	cmp	esi, esp
	call	__RTC_CheckEsp
$LN44@bipred_ave:

; 964  :   assert(!(pu_w == 2 && pu_h == 8) && "Branch for 2x8 not yet implemented.");

	cmp	DWORD PTR _pu_w$[ebx], 2
	jne	SHORT $LN45@bipred_ave
	cmp	DWORD PTR _pu_h$[ebx], 8
	je	SHORT $LN46@bipred_ave
$LN45@bipred_ave:
	mov	eax, OFFSET ??_C@_0CE@ICBEPKHC@Branch?5for?52x8?5not?5yet?5implemen@
	test	eax, eax
	jne	SHORT $LN47@bipred_ave
$LN46@bipred_ave:
	mov	ecx, DWORD PTR ?__LINE__Var@?0??bipred_average_im_im_template_avx2@@9@9
	add	ecx, 8
	mov	esi, esp
	push	ecx
	push	OFFSET ??_C@_1JG@HCGLAOEM@?$AAF?$AA?3?$AA?2?$AAo?$AAp?$AAe?$AAn?$AA_?$AAc?$AAo?$AAd?$AAe?$AAc?$AA_?$AAl@
	push	OFFSET ??_C@_1IG@BCNOOMBC@?$AA?$CB?$AA?$CI?$AAp?$AAu?$AA_?$AAw?$AA?5?$AA?$DN?$AA?$DN?$AA?5?$AA2?$AA?5?$AA?$CG?$AA?$CG?$AA?5@
	call	DWORD PTR __imp___wassert
	add	esp, 12					; 0000000cH
	cmp	esi, esp
	call	__RTC_CheckEsp
$LN47@bipred_ave:

; 965  : 
; 966  :   if (has_pow2_width && area_mod_32 == 0) {

	movzx	eax, BYTE PTR _has_pow2_width$[ebp]
	test	eax, eax
	je	$LN20@bipred_ave
	movzx	eax, BYTE PTR _area_mod_32$[ebp]
	test	eax, eax
	jne	$LN20@bipred_ave

; 967  :     for (int i = 0; i < pu_w * pu_h; i += 32) {

	mov	DWORD PTR _i$68[ebp], 0
	jmp	SHORT $LN4@bipred_ave
$LN2@bipred_ave:
	mov	eax, DWORD PTR _i$68[ebp]
	add	eax, 32					; 00000020H
	mov	DWORD PTR _i$68[ebp], eax
$LN4@bipred_ave:
	mov	eax, DWORD PTR _pu_w$[ebx]
	imul	eax, DWORD PTR _pu_h$[ebx]
	cmp	DWORD PTR _i$68[ebp], eax
	jae	$LN3@bipred_ave

; 968  :       int y = i / pu_w;

	mov	eax, DWORD PTR _i$68[ebp]
	xor	edx, edx
	div	DWORD PTR _pu_w$[ebx]
	mov	DWORD PTR _y$67[ebp], eax

; 969  :       int x = i % pu_w;

	mov	eax, DWORD PTR _i$68[ebp]
	xor	edx, edx
	div	DWORD PTR _pu_w$[ebx]
	mov	DWORD PTR _x$66[ebp], edx

; 970  : 
; 971  :       __m256i sample_L0_a_16bit = _mm256_loadu_si256((__m256i*)&im_L0[i]);

	mov	eax, DWORD PTR _i$68[ebp]
	mov	ecx, DWORD PTR _im_L0$[ebx]
	vmovdqu	ymm0, YMMWORD PTR [ecx+eax*2]
	vmovdqu	YMMWORD PTR _sample_L0_a_16bit$65[ebp], ymm0

; 972  :       __m256i sample_L1_a_16bit = _mm256_loadu_si256((__m256i*)&im_L1[i]);

	mov	eax, DWORD PTR _i$68[ebp]
	mov	ecx, DWORD PTR _im_L1$[ebx]
	vmovdqu	ymm0, YMMWORD PTR [ecx+eax*2]
	vmovdqu	YMMWORD PTR _sample_L1_a_16bit$64[ebp], ymm0

; 973  :       __m256i sample_L0_b_16bit = _mm256_loadu_si256((__m256i*)&im_L0[i + 16]);

	mov	eax, DWORD PTR _i$68[ebp]
	mov	ecx, DWORD PTR _im_L0$[ebx]
	vmovdqu	ymm0, YMMWORD PTR [ecx+eax*2+32]
	vmovdqu	YMMWORD PTR _sample_L0_b_16bit$63[ebp], ymm0

; 974  :       __m256i sample_L1_b_16bit = _mm256_loadu_si256((__m256i*)&im_L1[i + 16]);

	mov	eax, DWORD PTR _i$68[ebp]
	mov	ecx, DWORD PTR _im_L1$[ebx]
	vmovdqu	ymm0, YMMWORD PTR [ecx+eax*2+32]
	vmovdqu	YMMWORD PTR _sample_L1_b_16bit$62[ebp], ymm0

; 975  : 
; 976  :       __m256i sample_L0_L1_a_lo = _mm256_unpacklo_epi16(sample_L0_a_16bit, sample_L1_a_16bit);

	vmovdqu	ymm0, YMMWORD PTR _sample_L0_a_16bit$65[ebp]
	vpunpcklwd ymm0, ymm0, YMMWORD PTR _sample_L1_a_16bit$64[ebp]
	vmovdqu	YMMWORD PTR _sample_L0_L1_a_lo$61[ebp], ymm0

; 977  :       __m256i sample_L0_L1_a_hi = _mm256_unpackhi_epi16(sample_L0_a_16bit, sample_L1_a_16bit);

	vmovdqu	ymm0, YMMWORD PTR _sample_L0_a_16bit$65[ebp]
	vpunpckhwd ymm0, ymm0, YMMWORD PTR _sample_L1_a_16bit$64[ebp]
	vmovdqu	YMMWORD PTR _sample_L0_L1_a_hi$60[ebp], ymm0

; 978  :       __m256i sample_L0_L1_b_lo = _mm256_unpacklo_epi16(sample_L0_b_16bit, sample_L1_b_16bit);

	vmovdqu	ymm0, YMMWORD PTR _sample_L0_b_16bit$63[ebp]
	vpunpcklwd ymm0, ymm0, YMMWORD PTR _sample_L1_b_16bit$62[ebp]
	vmovdqu	YMMWORD PTR _sample_L0_L1_b_lo$59[ebp], ymm0

; 979  :       __m256i sample_L0_L1_b_hi = _mm256_unpackhi_epi16(sample_L0_b_16bit, sample_L1_b_16bit);

	vmovdqu	ymm0, YMMWORD PTR _sample_L0_b_16bit$63[ebp]
	vpunpckhwd ymm0, ymm0, YMMWORD PTR _sample_L1_b_16bit$62[ebp]
	vmovdqu	YMMWORD PTR _sample_L0_L1_b_hi$58[ebp], ymm0

; 980  : 
; 981  :       __m256i all_ones = _mm256_set1_epi16(1);

	vmovdqu	ymm0, YMMWORD PTR __ymm@0001000100010001000100010001000100010001000100010001000100010001
	vmovdqu	YMMWORD PTR _all_ones$57[ebp], ymm0

; 982  :       __m256i avg_a_lo = _mm256_madd_epi16(sample_L0_L1_a_lo, all_ones);

	vmovdqu	ymm0, YMMWORD PTR _sample_L0_L1_a_lo$61[ebp]
	vpmaddwd ymm0, ymm0, YMMWORD PTR _all_ones$57[ebp]
	vmovdqu	YMMWORD PTR _avg_a_lo$56[ebp], ymm0

; 983  :       __m256i avg_a_hi = _mm256_madd_epi16(sample_L0_L1_a_hi, all_ones);

	vmovdqu	ymm0, YMMWORD PTR _sample_L0_L1_a_hi$60[ebp]
	vpmaddwd ymm0, ymm0, YMMWORD PTR _all_ones$57[ebp]
	vmovdqu	YMMWORD PTR _avg_a_hi$55[ebp], ymm0

; 984  :       __m256i avg_b_lo = _mm256_madd_epi16(sample_L0_L1_b_lo, all_ones);

	vmovdqu	ymm0, YMMWORD PTR _sample_L0_L1_b_lo$59[ebp]
	vpmaddwd ymm0, ymm0, YMMWORD PTR _all_ones$57[ebp]
	vmovdqu	YMMWORD PTR _avg_b_lo$54[ebp], ymm0

; 985  :       __m256i avg_b_hi = _mm256_madd_epi16(sample_L0_L1_b_hi, all_ones);

	vmovdqu	ymm0, YMMWORD PTR _sample_L0_L1_b_hi$58[ebp]
	vpmaddwd ymm0, ymm0, YMMWORD PTR _all_ones$57[ebp]
	vmovdqu	YMMWORD PTR _avg_b_hi$53[ebp], ymm0

; 986  : 
; 987  :       avg_a_lo = _mm256_add_epi32(avg_a_lo, offset);

	vmovdqu	ymm0, YMMWORD PTR _avg_a_lo$56[ebp]
	vpaddd	ymm0, ymm0, YMMWORD PTR _offset$[ebp]
	vmovdqu	YMMWORD PTR _avg_a_lo$56[ebp], ymm0

; 988  :       avg_a_hi = _mm256_add_epi32(avg_a_hi, offset);

	vmovdqu	ymm0, YMMWORD PTR _avg_a_hi$55[ebp]
	vpaddd	ymm0, ymm0, YMMWORD PTR _offset$[ebp]
	vmovdqu	YMMWORD PTR _avg_a_hi$55[ebp], ymm0

; 989  :       avg_b_lo = _mm256_add_epi32(avg_b_lo, offset);

	vmovdqu	ymm0, YMMWORD PTR _avg_b_lo$54[ebp]
	vpaddd	ymm0, ymm0, YMMWORD PTR _offset$[ebp]
	vmovdqu	YMMWORD PTR _avg_b_lo$54[ebp], ymm0

; 990  :       avg_b_hi = _mm256_add_epi32(avg_b_hi, offset);

	vmovdqu	ymm0, YMMWORD PTR _avg_b_hi$53[ebp]
	vpaddd	ymm0, ymm0, YMMWORD PTR _offset$[ebp]
	vmovdqu	YMMWORD PTR _avg_b_hi$53[ebp], ymm0

; 991  : 
; 992  :       avg_a_lo = _mm256_srai_epi32(avg_a_lo, shift);

	vmovdqu	ymm0, YMMWORD PTR _avg_a_lo$56[ebp]
	vmovd	xmm1, DWORD PTR _shift$[ebp]
	vpsrad	ymm0, ymm0, xmm1
	vmovdqu	YMMWORD PTR _avg_a_lo$56[ebp], ymm0

; 993  :       avg_a_hi = _mm256_srai_epi32(avg_a_hi, shift);

	vmovdqu	ymm0, YMMWORD PTR _avg_a_hi$55[ebp]
	vmovd	xmm1, DWORD PTR _shift$[ebp]
	vpsrad	ymm0, ymm0, xmm1
	vmovdqu	YMMWORD PTR _avg_a_hi$55[ebp], ymm0

; 994  :       avg_b_lo = _mm256_srai_epi32(avg_b_lo, shift);

	vmovdqu	ymm0, YMMWORD PTR _avg_b_lo$54[ebp]
	vmovd	xmm1, DWORD PTR _shift$[ebp]
	vpsrad	ymm0, ymm0, xmm1
	vmovdqu	YMMWORD PTR _avg_b_lo$54[ebp], ymm0

; 995  :       avg_b_hi = _mm256_srai_epi32(avg_b_hi, shift);

	vmovdqu	ymm0, YMMWORD PTR _avg_b_hi$53[ebp]
	vmovd	xmm1, DWORD PTR _shift$[ebp]
	vpsrad	ymm0, ymm0, xmm1
	vmovdqu	YMMWORD PTR _avg_b_hi$53[ebp], ymm0

; 996  : 
; 997  :       __m256i avg_01  = _mm256_packus_epi32(avg_a_lo, avg_a_hi);

	vmovdqu	ymm0, YMMWORD PTR _avg_a_lo$56[ebp]
	vpackusdw ymm0, ymm0, YMMWORD PTR _avg_a_hi$55[ebp]
	vmovdqu	YMMWORD PTR _avg_01$52[ebp], ymm0

; 998  :       __m256i avg_23  = _mm256_packus_epi32(avg_b_lo, avg_b_hi);

	vmovdqu	ymm0, YMMWORD PTR _avg_b_lo$54[ebp]
	vpackusdw ymm0, ymm0, YMMWORD PTR _avg_b_hi$53[ebp]
	vmovdqu	YMMWORD PTR _avg_23$51[ebp], ymm0

; 999  :       __m256i avg0213 = _mm256_packus_epi16(avg_01, avg_23);

	vmovdqu	ymm0, YMMWORD PTR _avg_01$52[ebp]
	vpackuswb ymm0, ymm0, YMMWORD PTR _avg_23$51[ebp]
	vmovdqu	YMMWORD PTR _avg0213$50[ebp], ymm0

; 1000 :       __m256i avg     = _mm256_permute4x64_epi64(avg0213, _MM_SHUFFLE(3, 1, 2, 0));

	vpermq	ymm0, YMMWORD PTR _avg0213$50[ebp], 216	; 000000d8H
	vmovdqu	YMMWORD PTR _avg$49[ebp], ymm0

; 1001 : 
; 1002 :       switch (pu_w) {

	mov	eax, DWORD PTR _pu_w$[ebx]
	mov	DWORD PTR tv217[ebp], eax
	mov	ecx, DWORD PTR tv217[ebp]
	sub	ecx, 4
	mov	DWORD PTR tv217[ebp], ecx
	cmp	DWORD PTR tv217[ebp], 60		; 0000003cH
	ja	$LN26@bipred_ave
	mov	edx, DWORD PTR tv217[ebp]
	movzx	eax, BYTE PTR $LN51@bipred_ave[edx]
	jmp	DWORD PTR $LN52@bipred_ave[eax*4]
$LN22@bipred_ave:

; 1003 :         case  4: scatter_ymm_4x8_8bit( &dst[y * dst_stride + x], avg, dst_stride); break;

	mov	eax, DWORD PTR _dst_stride$[ebx]
	push	eax
	vmovdqu	ymm0, YMMWORD PTR _avg$49[ebp]
	mov	ecx, DWORD PTR _y$67[ebp]
	imul	ecx, DWORD PTR _dst_stride$[ebx]
	add	ecx, DWORD PTR _x$66[ebp]
	add	ecx, DWORD PTR _dst$[ebx]
	push	ecx
	call	_scatter_ymm_4x8_8bit
	add	esp, 8
	jmp	$LN5@bipred_ave
$LN23@bipred_ave:

; 1004 :         case  8: scatter_ymm_8x4_8bit( &dst[y * dst_stride + x], avg, dst_stride); break;

	mov	eax, DWORD PTR _dst_stride$[ebx]
	push	eax
	vmovdqu	ymm0, YMMWORD PTR _avg$49[ebp]
	mov	ecx, DWORD PTR _y$67[ebp]
	imul	ecx, DWORD PTR _dst_stride$[ebx]
	add	ecx, DWORD PTR _x$66[ebp]
	add	ecx, DWORD PTR _dst$[ebx]
	push	ecx
	call	_scatter_ymm_8x4_8bit
	add	esp, 8
	jmp	SHORT $LN5@bipred_ave
$LN24@bipred_ave:

; 1005 :         case 16: scatter_ymm_16x2_8bit(&dst[y * dst_stride + x], avg, dst_stride); break;

	mov	eax, DWORD PTR _dst_stride$[ebx]
	push	eax
	vmovdqu	ymm0, YMMWORD PTR _avg$49[ebp]
	mov	ecx, DWORD PTR _y$67[ebp]
	imul	ecx, DWORD PTR _dst_stride$[ebx]
	add	ecx, DWORD PTR _x$66[ebp]
	add	ecx, DWORD PTR _dst$[ebx]
	push	ecx
	call	_scatter_ymm_16x2_8bit
	add	esp, 8
	jmp	SHORT $LN5@bipred_ave
$LN25@bipred_ave:

; 1006 :         case 32: // Same as case 64
; 1007 :         case 64: _mm256_storeu_si256((__m256i*)&dst[y * dst_stride + x], avg); break;

	vmovdqu	ymm0, YMMWORD PTR _avg$49[ebp]
	mov	eax, DWORD PTR _y$67[ebp]
	imul	eax, DWORD PTR _dst_stride$[ebx]
	add	eax, DWORD PTR _x$66[ebp]
	add	eax, DWORD PTR _dst$[ebx]
	vmovdqu	YMMWORD PTR [eax], ymm0
	jmp	SHORT $LN5@bipred_ave
$LN26@bipred_ave:

; 1008 :         default:
; 1009 :           assert(0 && "Unexpected block width.");

	xor	eax, eax
	jne	SHORT $LN5@bipred_ave
	mov	ecx, DWORD PTR ?__LINE__Var@?0??bipred_average_im_im_template_avx2@@9@9
	add	ecx, 53					; 00000035H
	mov	esi, esp
	push	ecx
	push	OFFSET ??_C@_1JG@HCGLAOEM@?$AAF?$AA?3?$AA?2?$AAo?$AAp?$AAe?$AAn?$AA_?$AAc?$AAo?$AAd?$AAe?$AAc?$AA_?$AAl@
	push	OFFSET ??_C@_1DO@PGNEGAJ@?$AA0?$AA?5?$AA?$CG?$AA?$CG?$AA?5?$AA?$CC?$AAU?$AAn?$AAe?$AAx?$AAp?$AAe?$AAc?$AAt?$AAe@
	call	DWORD PTR __imp___wassert
	add	esp, 12					; 0000000cH
	cmp	esi, esp
	call	__RTC_CheckEsp
$LN5@bipred_ave:

; 1010 :           break;
; 1011 :       }
; 1012 :     }

	jmp	$LN2@bipred_ave
$LN3@bipred_ave:

; 1013 :   } else if (area_mod_32 == 0) {

	jmp	$LN1@bipred_ave
$LN20@bipred_ave:
	movzx	eax, BYTE PTR _area_mod_32$[ebp]
	test	eax, eax
	jne	$LN27@bipred_ave

; 1014 :     for (int i = 0; i < pu_w * pu_h; i += 24) {

	mov	DWORD PTR _i$48[ebp], 0
	jmp	SHORT $LN9@bipred_ave
$LN7@bipred_ave:
	mov	eax, DWORD PTR _i$48[ebp]
	add	eax, 24					; 00000018H
	mov	DWORD PTR _i$48[ebp], eax
$LN9@bipred_ave:
	mov	eax, DWORD PTR _pu_w$[ebx]
	imul	eax, DWORD PTR _pu_h$[ebx]
	cmp	DWORD PTR _i$48[ebp], eax
	jae	$LN8@bipred_ave

; 1015 : 
; 1016 :       int y = i / pu_w;

	mov	eax, DWORD PTR _i$48[ebp]
	xor	edx, edx
	div	DWORD PTR _pu_w$[ebx]
	mov	DWORD PTR _y$47[ebp], eax

; 1017 :       int x = i % pu_w;

	mov	eax, DWORD PTR _i$48[ebp]
	xor	edx, edx
	div	DWORD PTR _pu_w$[ebx]
	mov	DWORD PTR _x$46[ebp], edx

; 1018 : 
; 1019 :       // Last 64 bits of the 256 are not used to simplify the loop
; 1020 :       __m256i mask              = _mm256_setr_epi64x(-1, -1, -1, 0);

	vmovdqu	ymm0, YMMWORD PTR __ymm@0000000000000000ffffffffffffffffffffffffffffffffffffffffffffffff
	vmovdqu	YMMWORD PTR _mask$45[ebp], ymm0

; 1021 :       __m256i sample_L0_a_16bit = _mm256_loadu_si256((__m256i*)&im_L0[i]);

	mov	eax, DWORD PTR _i$48[ebp]
	mov	ecx, DWORD PTR _im_L0$[ebx]
	vmovdqu	ymm0, YMMWORD PTR [ecx+eax*2]
	vmovdqu	YMMWORD PTR _sample_L0_a_16bit$44[ebp], ymm0

; 1022 :       __m256i sample_L1_a_16bit = _mm256_loadu_si256((__m256i*)&im_L1[i]);

	mov	eax, DWORD PTR _i$48[ebp]
	mov	ecx, DWORD PTR _im_L1$[ebx]
	vmovdqu	ymm0, YMMWORD PTR [ecx+eax*2]
	vmovdqu	YMMWORD PTR _sample_L1_a_16bit$43[ebp], ymm0

; 1023 :       __m256i sample_L0_b_16bit = _mm256_castsi128_si256(_mm_loadu_si128((__m128i*)&im_L0[i + 16]));

	mov	eax, DWORD PTR _i$48[ebp]
	mov	ecx, DWORD PTR _im_L0$[ebx]
	vmovdqu	xmm0, XMMWORD PTR [ecx+eax*2+32]
	vmovdqu	YMMWORD PTR _sample_L0_b_16bit$42[ebp], ymm0

; 1024 :       __m256i sample_L1_b_16bit = _mm256_castsi128_si256(_mm_loadu_si128((__m128i*)&im_L1[i + 16]));

	mov	eax, DWORD PTR _i$48[ebp]
	mov	ecx, DWORD PTR _im_L1$[ebx]
	vmovdqu	xmm0, XMMWORD PTR [ecx+eax*2+32]
	vmovdqu	YMMWORD PTR _sample_L1_b_16bit$41[ebp], ymm0

; 1025 : 
; 1026 :       __m256i sample_L0_L1_a_lo = _mm256_unpacklo_epi16(sample_L0_a_16bit, sample_L1_a_16bit);

	vmovdqu	ymm0, YMMWORD PTR _sample_L0_a_16bit$44[ebp]
	vpunpcklwd ymm0, ymm0, YMMWORD PTR _sample_L1_a_16bit$43[ebp]
	vmovdqu	YMMWORD PTR _sample_L0_L1_a_lo$40[ebp], ymm0

; 1027 :       __m256i sample_L0_L1_a_hi = _mm256_unpackhi_epi16(sample_L0_a_16bit, sample_L1_a_16bit);

	vmovdqu	ymm0, YMMWORD PTR _sample_L0_a_16bit$44[ebp]
	vpunpckhwd ymm0, ymm0, YMMWORD PTR _sample_L1_a_16bit$43[ebp]
	vmovdqu	YMMWORD PTR _sample_L0_L1_a_hi$39[ebp], ymm0

; 1028 :       __m256i sample_L0_L1_b_lo = _mm256_unpacklo_epi16(sample_L0_b_16bit, sample_L1_b_16bit);

	vmovdqu	ymm0, YMMWORD PTR _sample_L0_b_16bit$42[ebp]
	vpunpcklwd ymm0, ymm0, YMMWORD PTR _sample_L1_b_16bit$41[ebp]
	vmovdqu	YMMWORD PTR _sample_L0_L1_b_lo$38[ebp], ymm0

; 1029 :       __m256i sample_L0_L1_b_hi = _mm256_unpackhi_epi16(sample_L0_b_16bit, sample_L1_b_16bit);

	vmovdqu	ymm0, YMMWORD PTR _sample_L0_b_16bit$42[ebp]
	vpunpckhwd ymm0, ymm0, YMMWORD PTR _sample_L1_b_16bit$41[ebp]
	vmovdqu	YMMWORD PTR _sample_L0_L1_b_hi$37[ebp], ymm0

; 1030 : 
; 1031 :       __m256i all_ones = _mm256_set1_epi16(1);

	vmovdqu	ymm0, YMMWORD PTR __ymm@0001000100010001000100010001000100010001000100010001000100010001
	vmovdqu	YMMWORD PTR _all_ones$36[ebp], ymm0

; 1032 :       __m256i avg_a_lo = _mm256_madd_epi16(sample_L0_L1_a_lo, all_ones);

	vmovdqu	ymm0, YMMWORD PTR _sample_L0_L1_a_lo$40[ebp]
	vpmaddwd ymm0, ymm0, YMMWORD PTR _all_ones$36[ebp]
	vmovdqu	YMMWORD PTR _avg_a_lo$35[ebp], ymm0

; 1033 :       __m256i avg_a_hi = _mm256_madd_epi16(sample_L0_L1_a_hi, all_ones);

	vmovdqu	ymm0, YMMWORD PTR _sample_L0_L1_a_hi$39[ebp]
	vpmaddwd ymm0, ymm0, YMMWORD PTR _all_ones$36[ebp]
	vmovdqu	YMMWORD PTR _avg_a_hi$34[ebp], ymm0

; 1034 :       __m256i avg_b_lo = _mm256_madd_epi16(sample_L0_L1_b_lo, all_ones);

	vmovdqu	ymm0, YMMWORD PTR _sample_L0_L1_b_lo$38[ebp]
	vpmaddwd ymm0, ymm0, YMMWORD PTR _all_ones$36[ebp]
	vmovdqu	YMMWORD PTR _avg_b_lo$33[ebp], ymm0

; 1035 :       __m256i avg_b_hi = _mm256_madd_epi16(sample_L0_L1_b_hi, all_ones);

	vmovdqu	ymm0, YMMWORD PTR _sample_L0_L1_b_hi$37[ebp]
	vpmaddwd ymm0, ymm0, YMMWORD PTR _all_ones$36[ebp]
	vmovdqu	YMMWORD PTR _avg_b_hi$32[ebp], ymm0

; 1036 : 
; 1037 :       avg_a_lo = _mm256_add_epi32(avg_a_lo, offset);

	vmovdqu	ymm0, YMMWORD PTR _avg_a_lo$35[ebp]
	vpaddd	ymm0, ymm0, YMMWORD PTR _offset$[ebp]
	vmovdqu	YMMWORD PTR _avg_a_lo$35[ebp], ymm0

; 1038 :       avg_a_hi = _mm256_add_epi32(avg_a_hi, offset);

	vmovdqu	ymm0, YMMWORD PTR _avg_a_hi$34[ebp]
	vpaddd	ymm0, ymm0, YMMWORD PTR _offset$[ebp]
	vmovdqu	YMMWORD PTR _avg_a_hi$34[ebp], ymm0

; 1039 :       avg_b_lo = _mm256_add_epi32(avg_b_lo, offset);

	vmovdqu	ymm0, YMMWORD PTR _avg_b_lo$33[ebp]
	vpaddd	ymm0, ymm0, YMMWORD PTR _offset$[ebp]
	vmovdqu	YMMWORD PTR _avg_b_lo$33[ebp], ymm0

; 1040 :       avg_b_hi = _mm256_add_epi32(avg_b_hi, offset);

	vmovdqu	ymm0, YMMWORD PTR _avg_b_hi$32[ebp]
	vpaddd	ymm0, ymm0, YMMWORD PTR _offset$[ebp]
	vmovdqu	YMMWORD PTR _avg_b_hi$32[ebp], ymm0

; 1041 : 
; 1042 :       avg_a_lo = _mm256_srai_epi32(avg_a_lo, shift);

	vmovdqu	ymm0, YMMWORD PTR _avg_a_lo$35[ebp]
	vmovd	xmm1, DWORD PTR _shift$[ebp]
	vpsrad	ymm0, ymm0, xmm1
	vmovdqu	YMMWORD PTR _avg_a_lo$35[ebp], ymm0

; 1043 :       avg_a_hi = _mm256_srai_epi32(avg_a_hi, shift);

	vmovdqu	ymm0, YMMWORD PTR _avg_a_hi$34[ebp]
	vmovd	xmm1, DWORD PTR _shift$[ebp]
	vpsrad	ymm0, ymm0, xmm1
	vmovdqu	YMMWORD PTR _avg_a_hi$34[ebp], ymm0

; 1044 :       avg_b_lo = _mm256_srai_epi32(avg_b_lo, shift);

	vmovdqu	ymm0, YMMWORD PTR _avg_b_lo$33[ebp]
	vmovd	xmm1, DWORD PTR _shift$[ebp]
	vpsrad	ymm0, ymm0, xmm1
	vmovdqu	YMMWORD PTR _avg_b_lo$33[ebp], ymm0

; 1045 :       avg_b_hi = _mm256_srai_epi32(avg_b_hi, shift);

	vmovdqu	ymm0, YMMWORD PTR _avg_b_hi$32[ebp]
	vmovd	xmm1, DWORD PTR _shift$[ebp]
	vpsrad	ymm0, ymm0, xmm1
	vmovdqu	YMMWORD PTR _avg_b_hi$32[ebp], ymm0

; 1046 : 
; 1047 :       __m256i avg_01  = _mm256_packus_epi32(avg_a_lo, avg_a_hi);

	vmovdqu	ymm0, YMMWORD PTR _avg_a_lo$35[ebp]
	vpackusdw ymm0, ymm0, YMMWORD PTR _avg_a_hi$34[ebp]
	vmovdqu	YMMWORD PTR _avg_01$31[ebp], ymm0

; 1048 :       __m256i avg_23  = _mm256_packus_epi32(avg_b_lo, avg_b_hi);

	vmovdqu	ymm0, YMMWORD PTR _avg_b_lo$33[ebp]
	vpackusdw ymm0, ymm0, YMMWORD PTR _avg_b_hi$32[ebp]
	vmovdqu	YMMWORD PTR _avg_23$30[ebp], ymm0

; 1049 :       __m256i avg0213 = _mm256_packus_epi16(avg_01, avg_23);

	vmovdqu	ymm0, YMMWORD PTR _avg_01$31[ebp]
	vpackuswb ymm0, ymm0, YMMWORD PTR _avg_23$30[ebp]
	vmovdqu	YMMWORD PTR _avg0213$29[ebp], ymm0

; 1050 :       __m256i avg     = _mm256_permute4x64_epi64(avg0213, _MM_SHUFFLE(3, 1, 2, 0));

	vpermq	ymm0, YMMWORD PTR _avg0213$29[ebp], 216	; 000000d8H
	vmovdqu	YMMWORD PTR _avg$28[ebp], ymm0

; 1051 : 
; 1052 :       switch (pu_w) {

	mov	eax, DWORD PTR _pu_w$[ebx]
	mov	DWORD PTR tv383[ebp], eax
	cmp	DWORD PTR tv383[ebp], 12		; 0000000cH
	je	SHORT $LN29@bipred_ave
	cmp	DWORD PTR tv383[ebp], 24		; 00000018H
	je	SHORT $LN30@bipred_ave
	cmp	DWORD PTR tv383[ebp], 48		; 00000030H
	je	SHORT $LN30@bipred_ave
	jmp	SHORT $LN31@bipred_ave
$LN29@bipred_ave:

; 1053 :         case 12: scatter_ymm_12x2_8bit(&dst[y * dst_stride + x], avg, dst_stride); break;

	mov	eax, DWORD PTR _dst_stride$[ebx]
	push	eax
	vmovdqu	ymm0, YMMWORD PTR _avg$28[ebp]
	mov	ecx, DWORD PTR _y$47[ebp]
	imul	ecx, DWORD PTR _dst_stride$[ebx]
	add	ecx, DWORD PTR _x$46[ebp]
	add	ecx, DWORD PTR _dst$[ebx]
	push	ecx
	call	_scatter_ymm_12x2_8bit
	add	esp, 8
	jmp	SHORT $LN10@bipred_ave
$LN30@bipred_ave:

; 1054 :         case 24: // Same as case 48
; 1055 :         case 48: _mm256_maskstore_epi64((long long*)&dst[y * dst_stride + x], mask, avg); break;

	vmovdqu	ymm0, YMMWORD PTR _avg$28[ebp]
	vmovdqu	ymm1, YMMWORD PTR _mask$45[ebp]
	mov	eax, DWORD PTR _y$47[ebp]
	imul	eax, DWORD PTR _dst_stride$[ebx]
	add	eax, DWORD PTR _x$46[ebp]
	add	eax, DWORD PTR _dst$[ebx]
	vpmaskmovq YMMWORD PTR [eax], ymm1, ymm0
	jmp	SHORT $LN10@bipred_ave
$LN31@bipred_ave:

; 1056 :         default:
; 1057 :           assert(0 && "Unexpected block width.");

	xor	eax, eax
	jne	SHORT $LN10@bipred_ave
	mov	ecx, DWORD PTR ?__LINE__Var@?0??bipred_average_im_im_template_avx2@@9@9
	add	ecx, 101				; 00000065H
	mov	esi, esp
	push	ecx
	push	OFFSET ??_C@_1JG@HCGLAOEM@?$AAF?$AA?3?$AA?2?$AAo?$AAp?$AAe?$AAn?$AA_?$AAc?$AAo?$AAd?$AAe?$AAc?$AA_?$AAl@
	push	OFFSET ??_C@_1DO@PGNEGAJ@?$AA0?$AA?5?$AA?$CG?$AA?$CG?$AA?5?$AA?$CC?$AAU?$AAn?$AAe?$AAx?$AAp?$AAe?$AAc?$AAt?$AAe@
	call	DWORD PTR __imp___wassert
	add	esp, 12					; 0000000cH
	cmp	esi, esp
	call	__RTC_CheckEsp
$LN10@bipred_ave:

; 1058 :           break;
; 1059 :       }
; 1060 :     }

	jmp	$LN7@bipred_ave
$LN8@bipred_ave:

; 1061 :   } else {

	jmp	$LN1@bipred_ave
$LN27@bipred_ave:

; 1062 :     // 8x2, 8x6, 6x8 blocks (and maybe 2x8 in the future)
; 1063 :     switch (pu_w) {

	mov	eax, DWORD PTR _pu_w$[ebx]
	mov	DWORD PTR tv407[ebp], eax
	cmp	DWORD PTR tv407[ebp], 6
	je	$LN33@bipred_ave
	cmp	DWORD PTR tv407[ebp], 8
	je	SHORT $LN32@bipred_ave
	jmp	$LN34@bipred_ave
$LN32@bipred_ave:

; 1064 :       case 8: // 8x2, 8x6
; 1065 :         for (int i = 0; i < pu_w * pu_h; i += 16) {

	mov	DWORD PTR _i$27[ebp], 0
	jmp	SHORT $LN16@bipred_ave
$LN14@bipred_ave:
	mov	eax, DWORD PTR _i$27[ebp]
	add	eax, 16					; 00000010H
	mov	DWORD PTR _i$27[ebp], eax
$LN16@bipred_ave:
	mov	eax, DWORD PTR _pu_w$[ebx]
	imul	eax, DWORD PTR _pu_h$[ebx]
	cmp	DWORD PTR _i$27[ebp], eax
	jae	$LN15@bipred_ave

; 1066 : 
; 1067 :           int y = i / pu_w;

	mov	eax, DWORD PTR _i$27[ebp]
	xor	edx, edx
	div	DWORD PTR _pu_w$[ebx]
	mov	DWORD PTR _y$26[ebp], eax

; 1068 : 
; 1069 :           __m256i sample_L0_16bit = _mm256_loadu_si256((__m256i*)&im_L0[i]);

	mov	eax, DWORD PTR _i$27[ebp]
	mov	ecx, DWORD PTR _im_L0$[ebx]
	vmovdqu	ymm0, YMMWORD PTR [ecx+eax*2]
	vmovdqu	YMMWORD PTR _sample_L0_16bit$25[ebp], ymm0

; 1070 :           __m256i sample_L1_16bit = _mm256_loadu_si256((__m256i*)&im_L1[i]);

	mov	eax, DWORD PTR _i$27[ebp]
	mov	ecx, DWORD PTR _im_L1$[ebx]
	vmovdqu	ymm0, YMMWORD PTR [ecx+eax*2]
	vmovdqu	YMMWORD PTR _sample_L1_16bit$24[ebp], ymm0

; 1071 : 
; 1072 :           __m256i sample_L0_L1_lo = _mm256_unpacklo_epi16(sample_L0_16bit, sample_L1_16bit);

	vmovdqu	ymm0, YMMWORD PTR _sample_L0_16bit$25[ebp]
	vpunpcklwd ymm0, ymm0, YMMWORD PTR _sample_L1_16bit$24[ebp]
	vmovdqu	YMMWORD PTR _sample_L0_L1_lo$23[ebp], ymm0

; 1073 :           __m256i sample_L0_L1_hi = _mm256_unpackhi_epi16(sample_L0_16bit, sample_L1_16bit);

	vmovdqu	ymm0, YMMWORD PTR _sample_L0_16bit$25[ebp]
	vpunpckhwd ymm0, ymm0, YMMWORD PTR _sample_L1_16bit$24[ebp]
	vmovdqu	YMMWORD PTR _sample_L0_L1_hi$22[ebp], ymm0

; 1074 : 
; 1075 :           __m256i all_ones = _mm256_set1_epi16(1);

	vmovdqu	ymm0, YMMWORD PTR __ymm@0001000100010001000100010001000100010001000100010001000100010001
	vmovdqu	YMMWORD PTR _all_ones$21[ebp], ymm0

; 1076 :           __m256i avg_lo   = _mm256_madd_epi16(sample_L0_L1_lo, all_ones);

	vmovdqu	ymm0, YMMWORD PTR _sample_L0_L1_lo$23[ebp]
	vpmaddwd ymm0, ymm0, YMMWORD PTR _all_ones$21[ebp]
	vmovdqu	YMMWORD PTR _avg_lo$20[ebp], ymm0

; 1077 :           __m256i avg_hi   = _mm256_madd_epi16(sample_L0_L1_hi, all_ones);

	vmovdqu	ymm0, YMMWORD PTR _sample_L0_L1_hi$22[ebp]
	vpmaddwd ymm0, ymm0, YMMWORD PTR _all_ones$21[ebp]
	vmovdqu	YMMWORD PTR _avg_hi$19[ebp], ymm0

; 1078 : 
; 1079 :           avg_lo = _mm256_add_epi32(avg_lo, offset);

	vmovdqu	ymm0, YMMWORD PTR _avg_lo$20[ebp]
	vpaddd	ymm0, ymm0, YMMWORD PTR _offset$[ebp]
	vmovdqu	YMMWORD PTR _avg_lo$20[ebp], ymm0

; 1080 :           avg_hi = _mm256_add_epi32(avg_hi, offset);

	vmovdqu	ymm0, YMMWORD PTR _avg_hi$19[ebp]
	vpaddd	ymm0, ymm0, YMMWORD PTR _offset$[ebp]
	vmovdqu	YMMWORD PTR _avg_hi$19[ebp], ymm0

; 1081 : 
; 1082 :           avg_lo = _mm256_srai_epi32(avg_lo, shift);

	vmovdqu	ymm0, YMMWORD PTR _avg_lo$20[ebp]
	vmovd	xmm1, DWORD PTR _shift$[ebp]
	vpsrad	ymm0, ymm0, xmm1
	vmovdqu	YMMWORD PTR _avg_lo$20[ebp], ymm0

; 1083 :           avg_hi = _mm256_srai_epi32(avg_hi, shift);

	vmovdqu	ymm0, YMMWORD PTR _avg_hi$19[ebp]
	vmovd	xmm1, DWORD PTR _shift$[ebp]
	vpsrad	ymm0, ymm0, xmm1
	vmovdqu	YMMWORD PTR _avg_hi$19[ebp], ymm0

; 1084 : 
; 1085 :           __m256i avg256 = _mm256_packus_epi32(avg_lo, avg_hi);

	vmovdqu	ymm0, YMMWORD PTR _avg_lo$20[ebp]
	vpackusdw ymm0, ymm0, YMMWORD PTR _avg_hi$19[ebp]
	vmovdqu	YMMWORD PTR _avg256$18[ebp], ymm0

; 1086 :           avg256         = _mm256_packus_epi16(avg256, avg256);

	vmovdqu	ymm0, YMMWORD PTR _avg256$18[ebp]
	vpackuswb ymm0, ymm0, YMMWORD PTR _avg256$18[ebp]
	vmovdqu	YMMWORD PTR _avg256$18[ebp], ymm0

; 1087 :           avg256         = _mm256_permute4x64_epi64(avg256, _MM_SHUFFLE(3, 1, 2, 0));

	vpermq	ymm0, YMMWORD PTR _avg256$18[ebp], 216	; 000000d8H
	vmovdqu	YMMWORD PTR _avg256$18[ebp], ymm0

; 1088 :           __m128i avg    = _mm256_castsi256_si128(avg256);

	vmovdqu	xmm0, XMMWORD PTR _avg256$18[ebp]
	vmovdqa	XMMWORD PTR _avg$17[ebp], xmm0

; 1089 : 
; 1090 :           _mm_storel_epi64((__m128i*)&dst[y * dst_stride], avg);

	vmovdqa	xmm0, XMMWORD PTR _avg$17[ebp]
	mov	eax, DWORD PTR _y$26[ebp]
	imul	eax, DWORD PTR _dst_stride$[ebx]
	add	eax, DWORD PTR _dst$[ebx]
	vmovq	QWORD PTR [eax], xmm0

; 1091 :           _mm_storeh_pd((double*)&dst[(y + 1) * dst_stride], _mm_castsi128_pd(avg));

	vmovdqa	xmm0, XMMWORD PTR _avg$17[ebp]
	mov	eax, DWORD PTR _y$26[ebp]
	add	eax, 1
	imul	eax, DWORD PTR _dst_stride$[ebx]
	add	eax, DWORD PTR _dst$[ebx]
	vmovhpd	QWORD PTR [eax], xmm0

; 1092 :         }

	jmp	$LN14@bipred_ave
$LN15@bipred_ave:

; 1093 :         break;

	jmp	$LN1@bipred_ave
$LN33@bipred_ave:

; 1094 :       case 6: // 6x8
; 1095 :         for (int i = 0; i < pu_w * pu_h; i += 12) {

	mov	DWORD PTR _i$16[ebp], 0
	jmp	SHORT $LN19@bipred_ave
$LN17@bipred_ave:
	mov	eax, DWORD PTR _i$16[ebp]
	add	eax, 12					; 0000000cH
	mov	DWORD PTR _i$16[ebp], eax
$LN19@bipred_ave:
	mov	eax, DWORD PTR _pu_w$[ebx]
	imul	eax, DWORD PTR _pu_h$[ebx]
	cmp	DWORD PTR _i$16[ebp], eax
	jae	$LN18@bipred_ave

; 1096 : 
; 1097 :           int y = i / pu_w;

	mov	eax, DWORD PTR _i$16[ebp]
	xor	edx, edx
	div	DWORD PTR _pu_w$[ebx]
	mov	DWORD PTR _y$15[ebp], eax

; 1098 : 
; 1099 :           __m256i mask            = _mm256_setr_epi64x(-1, -1, -1, 0);

	vmovdqu	ymm0, YMMWORD PTR __ymm@0000000000000000ffffffffffffffffffffffffffffffffffffffffffffffff
	vmovdqu	YMMWORD PTR _mask$14[ebp], ymm0

; 1100 :           __m256i sample_L0_16bit = _mm256_maskload_epi64((const long long*)(&im_L0[i]), mask);

	vmovdqu	ymm0, YMMWORD PTR _mask$14[ebp]
	mov	eax, DWORD PTR _i$16[ebp]
	mov	ecx, DWORD PTR _im_L0$[ebx]
	vpmaskmovq ymm0, ymm0, YMMWORD PTR [ecx+eax*2]
	vmovdqu	YMMWORD PTR _sample_L0_16bit$13[ebp], ymm0

; 1101 :           __m256i sample_L1_16bit = _mm256_maskload_epi64((const long long*)(&im_L1[i]), mask);

	vmovdqu	ymm0, YMMWORD PTR _mask$14[ebp]
	mov	eax, DWORD PTR _i$16[ebp]
	mov	ecx, DWORD PTR _im_L1$[ebx]
	vpmaskmovq ymm0, ymm0, YMMWORD PTR [ecx+eax*2]
	vmovdqu	YMMWORD PTR _sample_L1_16bit$12[ebp], ymm0

; 1102 : 
; 1103 :           __m256i sample_L0_L1_lo = _mm256_unpacklo_epi16(sample_L0_16bit, sample_L1_16bit);

	vmovdqu	ymm0, YMMWORD PTR _sample_L0_16bit$13[ebp]
	vpunpcklwd ymm0, ymm0, YMMWORD PTR _sample_L1_16bit$12[ebp]
	vmovdqu	YMMWORD PTR _sample_L0_L1_lo$11[ebp], ymm0

; 1104 :           __m256i sample_L0_L1_hi = _mm256_unpackhi_epi16(sample_L0_16bit, sample_L1_16bit);

	vmovdqu	ymm0, YMMWORD PTR _sample_L0_16bit$13[ebp]
	vpunpckhwd ymm0, ymm0, YMMWORD PTR _sample_L1_16bit$12[ebp]
	vmovdqu	YMMWORD PTR _sample_L0_L1_hi$10[ebp], ymm0

; 1105 : 
; 1106 :           __m256i all_ones = _mm256_set1_epi16(1);

	vmovdqu	ymm0, YMMWORD PTR __ymm@0001000100010001000100010001000100010001000100010001000100010001
	vmovdqu	YMMWORD PTR _all_ones$9[ebp], ymm0

; 1107 :           __m256i avg_a_lo = _mm256_madd_epi16(sample_L0_L1_lo, all_ones);

	vmovdqu	ymm0, YMMWORD PTR _sample_L0_L1_lo$11[ebp]
	vpmaddwd ymm0, ymm0, YMMWORD PTR _all_ones$9[ebp]
	vmovdqu	YMMWORD PTR _avg_a_lo$8[ebp], ymm0

; 1108 :           __m256i avg_a_hi = _mm256_madd_epi16(sample_L0_L1_hi, all_ones);

	vmovdqu	ymm0, YMMWORD PTR _sample_L0_L1_hi$10[ebp]
	vpmaddwd ymm0, ymm0, YMMWORD PTR _all_ones$9[ebp]
	vmovdqu	YMMWORD PTR _avg_a_hi$7[ebp], ymm0

; 1109 : 
; 1110 :           avg_a_lo = _mm256_add_epi32(avg_a_lo, offset);

	vmovdqu	ymm0, YMMWORD PTR _avg_a_lo$8[ebp]
	vpaddd	ymm0, ymm0, YMMWORD PTR _offset$[ebp]
	vmovdqu	YMMWORD PTR _avg_a_lo$8[ebp], ymm0

; 1111 :           avg_a_hi = _mm256_add_epi32(avg_a_hi, offset);

	vmovdqu	ymm0, YMMWORD PTR _avg_a_hi$7[ebp]
	vpaddd	ymm0, ymm0, YMMWORD PTR _offset$[ebp]
	vmovdqu	YMMWORD PTR _avg_a_hi$7[ebp], ymm0

; 1112 : 
; 1113 :           avg_a_lo = _mm256_srai_epi32(avg_a_lo, shift);

	vmovdqu	ymm0, YMMWORD PTR _avg_a_lo$8[ebp]
	vmovd	xmm1, DWORD PTR _shift$[ebp]
	vpsrad	ymm0, ymm0, xmm1
	vmovdqu	YMMWORD PTR _avg_a_lo$8[ebp], ymm0

; 1114 :           avg_a_hi = _mm256_srai_epi32(avg_a_hi, shift);

	vmovdqu	ymm0, YMMWORD PTR _avg_a_hi$7[ebp]
	vmovd	xmm1, DWORD PTR _shift$[ebp]
	vpsrad	ymm0, ymm0, xmm1
	vmovdqu	YMMWORD PTR _avg_a_hi$7[ebp], ymm0

; 1115 : 
; 1116 :           __m256i avg256 = _mm256_packus_epi32(avg_a_lo, avg_a_hi);

	vmovdqu	ymm0, YMMWORD PTR _avg_a_lo$8[ebp]
	vpackusdw ymm0, ymm0, YMMWORD PTR _avg_a_hi$7[ebp]
	vmovdqu	YMMWORD PTR _avg256$6[ebp], ymm0

; 1117 :           avg256         = _mm256_packus_epi16(avg256, avg256);

	vmovdqu	ymm0, YMMWORD PTR _avg256$6[ebp]
	vpackuswb ymm0, ymm0, YMMWORD PTR _avg256$6[ebp]
	vmovdqu	YMMWORD PTR _avg256$6[ebp], ymm0

; 1118 :           avg256         = _mm256_permute4x64_epi64(avg256, _MM_SHUFFLE(3, 1, 2, 0));

	vpermq	ymm0, YMMWORD PTR _avg256$6[ebp], 216	; 000000d8H
	vmovdqu	YMMWORD PTR _avg256$6[ebp], ymm0

; 1119 :           __m128i avg    = _mm256_castsi256_si128(avg256);

	vmovdqu	xmm0, XMMWORD PTR _avg256$6[ebp]
	vmovdqa	XMMWORD PTR _avg$5[ebp], xmm0

; 1120 : 
; 1121 :           uint32_t elements_0123 = _mm_cvtsi128_si32(avg);

	vmovdqa	xmm0, XMMWORD PTR _avg$5[ebp]
	vmovd	eax, xmm0
	mov	DWORD PTR _elements_0123$4[ebp], eax

; 1122 :           uint16_t elements_45   = _mm_extract_epi16(avg, 2);

	vmovdqa	xmm0, XMMWORD PTR _avg$5[ebp]
	vpextrw	eax, xmm0, 2
	mov	WORD PTR _elements_45$3[ebp], ax

; 1123 :           uint16_t elements_67   = _mm_extract_epi16(avg, 3);

	vmovdqa	xmm0, XMMWORD PTR _avg$5[ebp]
	vpextrw	eax, xmm0, 3
	mov	WORD PTR _elements_67$2[ebp], ax

; 1124 :           uint32_t elements_89ab = _mm_extract_epi32(avg, 2);

	vmovdqa	xmm0, XMMWORD PTR _avg$5[ebp]
	vpextrd	eax, xmm0, 2
	mov	DWORD PTR _elements_89ab$1[ebp], eax

; 1125 :           *(uint32_t*)&dst[(y + 0) * dst_stride + 0] = elements_0123;

	mov	eax, DWORD PTR _y$15[ebp]
	imul	eax, DWORD PTR _dst_stride$[ebx]
	mov	ecx, DWORD PTR _dst$[ebx]
	mov	edx, DWORD PTR _elements_0123$4[ebp]
	mov	DWORD PTR [ecx+eax], edx

; 1126 :           *(uint16_t*)&dst[(y + 0) * dst_stride + 4] = elements_45;

	mov	eax, DWORD PTR _y$15[ebp]
	imul	eax, DWORD PTR _dst_stride$[ebx]
	mov	ecx, DWORD PTR _dst$[ebx]
	mov	dx, WORD PTR _elements_45$3[ebp]
	mov	WORD PTR [ecx+eax+4], dx

; 1127 :           *(uint16_t*)&dst[(y + 1) * dst_stride + 0] = elements_67;

	mov	eax, DWORD PTR _y$15[ebp]
	add	eax, 1
	imul	eax, DWORD PTR _dst_stride$[ebx]
	mov	ecx, DWORD PTR _dst$[ebx]
	mov	dx, WORD PTR _elements_67$2[ebp]
	mov	WORD PTR [ecx+eax], dx

; 1128 :           *(uint32_t*)&dst[(y + 1) * dst_stride + 2] = elements_89ab;

	mov	eax, DWORD PTR _y$15[ebp]
	add	eax, 1
	imul	eax, DWORD PTR _dst_stride$[ebx]
	mov	ecx, DWORD PTR _dst$[ebx]
	mov	edx, DWORD PTR _elements_89ab$1[ebp]
	mov	DWORD PTR [ecx+eax+2], edx

; 1129 :         }

	jmp	$LN17@bipred_ave
$LN18@bipred_ave:

; 1130 :         break;

	jmp	SHORT $LN1@bipred_ave
$LN34@bipred_ave:

; 1131 :       default:
; 1132 :         assert(0 && "Unexpected block width.");

	xor	eax, eax
	jne	SHORT $LN1@bipred_ave
	mov	ecx, DWORD PTR ?__LINE__Var@?0??bipred_average_im_im_template_avx2@@9@9
	add	ecx, 176				; 000000b0H
	mov	esi, esp
	push	ecx
	push	OFFSET ??_C@_1JG@HCGLAOEM@?$AAF?$AA?3?$AA?2?$AAo?$AAp?$AAe?$AAn?$AA_?$AAc?$AAo?$AAd?$AAe?$AAc?$AA_?$AAl@
	push	OFFSET ??_C@_1DO@PGNEGAJ@?$AA0?$AA?5?$AA?$CG?$AA?$CG?$AA?5?$AA?$CC?$AAU?$AAn?$AAe?$AAx?$AAp?$AAe?$AAc?$AAt?$AAe@
	call	DWORD PTR __imp___wassert
	add	esp, 12					; 0000000cH
	cmp	esi, esp
	call	__RTC_CheckEsp
$LN1@bipred_ave:

; 1133 :         break;
; 1134 :     }
; 1135 :   }
; 1136 : }

	pop	edi
	pop	esi
	mov	esp, ebp
	pop	ebp
	mov	esp, ebx
	pop	ebx
	ret	0
	npad	3
$LN52@bipred_ave:
	DD	$LN22@bipred_ave
	DD	$LN23@bipred_ave
	DD	$LN24@bipred_ave
	DD	$LN25@bipred_ave
	DD	$LN26@bipred_ave
$LN51@bipred_ave:
	DB	0
	DB	4
	DB	4
	DB	4
	DB	1
	DB	4
	DB	4
	DB	4
	DB	4
	DB	4
	DB	4
	DB	4
	DB	2
	DB	4
	DB	4
	DB	4
	DB	4
	DB	4
	DB	4
	DB	4
	DB	4
	DB	4
	DB	4
	DB	4
	DB	4
	DB	4
	DB	4
	DB	4
	DB	3
	DB	4
	DB	4
	DB	4
	DB	4
	DB	4
	DB	4
	DB	4
	DB	4
	DB	4
	DB	4
	DB	4
	DB	4
	DB	4
	DB	4
	DB	4
	DB	4
	DB	4
	DB	4
	DB	4
	DB	4
	DB	4
	DB	4
	DB	4
	DB	4
	DB	4
	DB	4
	DB	4
	DB	4
	DB	4
	DB	4
	DB	4
	DB	3
_bipred_average_im_im_template_avx2 ENDP
_TEXT	ENDS
; Function compile flags: /Odtp /RTCsu /ZI
; File F:\open_codec_learn_2021\kvazaar-master\src\strategies\avx2\picture-avx2.c
;	COMDAT _bipred_average_px_px_avx2
_TEXT	SEGMENT
tv67 = -292						; size = 4
_rounded$1 = -92					; size = 4
_sample_L1$2 = -80					; size = 2
_sample_L0$3 = -68					; size = 2
_x$4 = -56						; size = 4
_y$5 = -44						; size = 4
_i$6 = -32						; size = 4
_offset$7 = -20						; size = 4
_shift$8 = -8						; size = 4
_dst$ = 8						; size = 4
_px_L0$ = 12						; size = 4
_px_L1$ = 16						; size = 4
_pu_w$ = 20						; size = 4
_pu_h$ = 24						; size = 4
_dst_stride$ = 28					; size = 4
_bipred_average_px_px_avx2 PROC				; COMDAT

; 916  : {

	push	ebp
	mov	ebp, esp
	sub	esp, 292				; 00000124H
	push	ebx
	push	esi
	push	edi
	lea	edi, DWORD PTR [ebp-292]
	mov	ecx, 73					; 00000049H
	mov	eax, -858993460				; ccccccccH
	rep stosd
	mov	ecx, OFFSET __5DE43F84_picture-avx2@c
	call	@__CheckForDebuggerJustMyCode@4

; 917  :   // Use scalar code for yet unoptimized block sizes (4x4, 2x8)
; 918  :   if (!(pu_w == 4 && pu_h == 4) && pu_w > 2) {

	cmp	DWORD PTR _pu_w$[ebp], 4
	jne	SHORT $LN9@bipred_ave
	cmp	DWORD PTR _pu_h$[ebp], 4
	je	$LN7@bipred_ave
$LN9@bipred_ave:
	cmp	DWORD PTR _pu_w$[ebp], 2
	jbe	$LN7@bipred_ave

; 919  :     switch (pu_w) {

	mov	eax, DWORD PTR _pu_w$[ebp]
	mov	DWORD PTR tv67[ebp], eax
	mov	ecx, DWORD PTR tv67[ebp]
	sub	ecx, 4
	mov	DWORD PTR tv67[ebp], ecx
	cmp	DWORD PTR tv67[ebp], 60			; 0000003cH
	ja	$LN19@bipred_ave
	mov	edx, DWORD PTR tv67[ebp]
	movzx	eax, BYTE PTR $LN22@bipred_ave[edx]
	jmp	DWORD PTR $LN23@bipred_ave[eax*4]
$LN10@bipred_ave:

; 920  :       case  4: bipred_average_px_px_template_avx2(dst, px_L0, px_L1,  4, pu_h, dst_stride); break;

	mov	eax, DWORD PTR _dst_stride$[ebp]
	push	eax
	mov	ecx, DWORD PTR _pu_h$[ebp]
	push	ecx
	push	4
	mov	edx, DWORD PTR _px_L1$[ebp]
	push	edx
	mov	eax, DWORD PTR _px_L0$[ebp]
	push	eax
	mov	ecx, DWORD PTR _dst$[ebp]
	push	ecx
	call	_bipred_average_px_px_template_avx2
	add	esp, 24					; 00000018H
	jmp	$LN2@bipred_ave
$LN11@bipred_ave:

; 921  :       case  8: bipred_average_px_px_template_avx2(dst, px_L0, px_L1,  8, pu_h, dst_stride); break;

	mov	eax, DWORD PTR _dst_stride$[ebp]
	push	eax
	mov	ecx, DWORD PTR _pu_h$[ebp]
	push	ecx
	push	8
	mov	edx, DWORD PTR _px_L1$[ebp]
	push	edx
	mov	eax, DWORD PTR _px_L0$[ebp]
	push	eax
	mov	ecx, DWORD PTR _dst$[ebp]
	push	ecx
	call	_bipred_average_px_px_template_avx2
	add	esp, 24					; 00000018H
	jmp	$LN2@bipred_ave
$LN12@bipred_ave:

; 922  :       case 16: bipred_average_px_px_template_avx2(dst, px_L0, px_L1, 16, pu_h, dst_stride); break;

	mov	eax, DWORD PTR _dst_stride$[ebp]
	push	eax
	mov	ecx, DWORD PTR _pu_h$[ebp]
	push	ecx
	push	16					; 00000010H
	mov	edx, DWORD PTR _px_L1$[ebp]
	push	edx
	mov	eax, DWORD PTR _px_L0$[ebp]
	push	eax
	mov	ecx, DWORD PTR _dst$[ebp]
	push	ecx
	call	_bipred_average_px_px_template_avx2
	add	esp, 24					; 00000018H
	jmp	$LN2@bipred_ave
$LN13@bipred_ave:

; 923  :       case 32: bipred_average_px_px_template_avx2(dst, px_L0, px_L1, 32, pu_h, dst_stride); break;

	mov	eax, DWORD PTR _dst_stride$[ebp]
	push	eax
	mov	ecx, DWORD PTR _pu_h$[ebp]
	push	ecx
	push	32					; 00000020H
	mov	edx, DWORD PTR _px_L1$[ebp]
	push	edx
	mov	eax, DWORD PTR _px_L0$[ebp]
	push	eax
	mov	ecx, DWORD PTR _dst$[ebp]
	push	ecx
	call	_bipred_average_px_px_template_avx2
	add	esp, 24					; 00000018H
	jmp	$LN2@bipred_ave
$LN14@bipred_ave:

; 924  :       case 64: bipred_average_px_px_template_avx2(dst, px_L0, px_L1, 64, pu_h, dst_stride); break;

	mov	eax, DWORD PTR _dst_stride$[ebp]
	push	eax
	mov	ecx, DWORD PTR _pu_h$[ebp]
	push	ecx
	push	64					; 00000040H
	mov	edx, DWORD PTR _px_L1$[ebp]
	push	edx
	mov	eax, DWORD PTR _px_L0$[ebp]
	push	eax
	mov	ecx, DWORD PTR _dst$[ebp]
	push	ecx
	call	_bipred_average_px_px_template_avx2
	add	esp, 24					; 00000018H
	jmp	$LN2@bipred_ave
$LN15@bipred_ave:

; 925  : 
; 926  :       case  6: bipred_average_px_px_template_avx2(dst, px_L0, px_L1,  6, pu_h, dst_stride); break;

	mov	eax, DWORD PTR _dst_stride$[ebp]
	push	eax
	mov	ecx, DWORD PTR _pu_h$[ebp]
	push	ecx
	push	6
	mov	edx, DWORD PTR _px_L1$[ebp]
	push	edx
	mov	eax, DWORD PTR _px_L0$[ebp]
	push	eax
	mov	ecx, DWORD PTR _dst$[ebp]
	push	ecx
	call	_bipred_average_px_px_template_avx2
	add	esp, 24					; 00000018H
	jmp	$LN2@bipred_ave
$LN16@bipred_ave:

; 927  :       case 12: bipred_average_px_px_template_avx2(dst, px_L0, px_L1, 12, pu_h, dst_stride); break;

	mov	eax, DWORD PTR _dst_stride$[ebp]
	push	eax
	mov	ecx, DWORD PTR _pu_h$[ebp]
	push	ecx
	push	12					; 0000000cH
	mov	edx, DWORD PTR _px_L1$[ebp]
	push	edx
	mov	eax, DWORD PTR _px_L0$[ebp]
	push	eax
	mov	ecx, DWORD PTR _dst$[ebp]
	push	ecx
	call	_bipred_average_px_px_template_avx2
	add	esp, 24					; 00000018H
	jmp	SHORT $LN2@bipred_ave
$LN17@bipred_ave:

; 928  :       case 24: bipred_average_px_px_template_avx2(dst, px_L0, px_L1, 24, pu_h, dst_stride); break;

	mov	eax, DWORD PTR _dst_stride$[ebp]
	push	eax
	mov	ecx, DWORD PTR _pu_h$[ebp]
	push	ecx
	push	24					; 00000018H
	mov	edx, DWORD PTR _px_L1$[ebp]
	push	edx
	mov	eax, DWORD PTR _px_L0$[ebp]
	push	eax
	mov	ecx, DWORD PTR _dst$[ebp]
	push	ecx
	call	_bipred_average_px_px_template_avx2
	add	esp, 24					; 00000018H
	jmp	SHORT $LN2@bipred_ave
$LN18@bipred_ave:

; 929  :       case 48: bipred_average_px_px_template_avx2(dst, px_L0, px_L1, 48, pu_h, dst_stride); break;

	mov	eax, DWORD PTR _dst_stride$[ebp]
	push	eax
	mov	ecx, DWORD PTR _pu_h$[ebp]
	push	ecx
	push	48					; 00000030H
	mov	edx, DWORD PTR _px_L1$[ebp]
	push	edx
	mov	eax, DWORD PTR _px_L0$[ebp]
	push	eax
	mov	ecx, DWORD PTR _dst$[ebp]
	push	ecx
	call	_bipred_average_px_px_template_avx2
	add	esp, 24					; 00000018H
	jmp	SHORT $LN2@bipred_ave
$LN19@bipred_ave:

; 930  :       default:
; 931  :         assert(0 && "Unexpected block width.");

	xor	eax, eax
	jne	SHORT $LN2@bipred_ave
	mov	ecx, DWORD PTR ?__LINE__Var@?0??bipred_average_px_px_avx2@@9@9
	add	ecx, 15					; 0000000fH
	mov	esi, esp
	push	ecx
	push	OFFSET ??_C@_1JG@HCGLAOEM@?$AAF?$AA?3?$AA?2?$AAo?$AAp?$AAe?$AAn?$AA_?$AAc?$AAo?$AAd?$AAe?$AAc?$AA_?$AAl@
	push	OFFSET ??_C@_1DO@PGNEGAJ@?$AA0?$AA?5?$AA?$CG?$AA?$CG?$AA?5?$AA?$CC?$AAU?$AAn?$AAe?$AAx?$AAp?$AAe?$AAc?$AAt?$AAe@
	call	DWORD PTR __imp___wassert
	add	esp, 12					; 0000000cH
	cmp	esi, esp
	call	__RTC_CheckEsp
$LN2@bipred_ave:

; 932  :         break;
; 933  :     }
; 934  :   } else {

	jmp	$LN1@bipred_ave
$LN7@bipred_ave:

; 935  :     int32_t shift = 15 - KVZ_BIT_DEPTH; // TODO: defines

	mov	DWORD PTR _shift$8[ebp], 7

; 936  :     int32_t offset = 1 << (shift - 1);

	mov	eax, DWORD PTR _shift$8[ebp]
	sub	eax, 1
	mov	ecx, 1
	shlx	edx, ecx, eax
	mov	DWORD PTR _offset$7[ebp], edx

; 937  : 
; 938  :     for (int i = 0; i < pu_w * pu_h; ++i)

	mov	DWORD PTR _i$6[ebp], 0
	jmp	SHORT $LN6@bipred_ave
$LN4@bipred_ave:
	mov	eax, DWORD PTR _i$6[ebp]
	add	eax, 1
	mov	DWORD PTR _i$6[ebp], eax
$LN6@bipred_ave:
	mov	eax, DWORD PTR _pu_w$[ebp]
	imul	eax, DWORD PTR _pu_h$[ebp]
	cmp	DWORD PTR _i$6[ebp], eax
	jae	SHORT $LN1@bipred_ave

; 939  :     {
; 940  :       int y = i / pu_w;

	mov	eax, DWORD PTR _i$6[ebp]
	xor	edx, edx
	div	DWORD PTR _pu_w$[ebp]
	mov	DWORD PTR _y$5[ebp], eax

; 941  :       int x = i % pu_w;

	mov	eax, DWORD PTR _i$6[ebp]
	xor	edx, edx
	div	DWORD PTR _pu_w$[ebp]
	mov	DWORD PTR _x$4[ebp], edx

; 942  :       int16_t sample_L0 = px_L0[i] << (14 - KVZ_BIT_DEPTH);

	mov	eax, DWORD PTR _px_L0$[ebp]
	add	eax, DWORD PTR _i$6[ebp]
	movzx	ecx, BYTE PTR [eax]
	shl	ecx, 6
	mov	WORD PTR _sample_L0$3[ebp], cx

; 943  :       int16_t sample_L1 = px_L1[i] << (14 - KVZ_BIT_DEPTH);

	mov	eax, DWORD PTR _px_L1$[ebp]
	add	eax, DWORD PTR _i$6[ebp]
	movzx	ecx, BYTE PTR [eax]
	shl	ecx, 6
	mov	WORD PTR _sample_L1$2[ebp], cx

; 944  :       int32_t rounded = (sample_L0 + sample_L1 + offset) >> shift;

	movsx	eax, WORD PTR _sample_L0$3[ebp]
	movsx	ecx, WORD PTR _sample_L1$2[ebp]
	add	eax, DWORD PTR _offset$7[ebp]
	add	ecx, eax
	mov	edx, DWORD PTR _shift$8[ebp]
	sarx	eax, ecx, edx
	mov	DWORD PTR _rounded$1[ebp], eax

; 945  :       dst[y * dst_stride + x] = kvz_fast_clip_32bit_to_pixel(rounded);

	mov	eax, DWORD PTR _rounded$1[ebp]
	push	eax
	call	_kvz_fast_clip_32bit_to_pixel
	add	esp, 4
	mov	ecx, DWORD PTR _y$5[ebp]
	imul	ecx, DWORD PTR _dst_stride$[ebp]
	add	ecx, DWORD PTR _x$4[ebp]
	mov	edx, DWORD PTR _dst$[ebp]
	mov	BYTE PTR [edx+ecx], al

; 946  :     }

	jmp	$LN4@bipred_ave
$LN1@bipred_ave:

; 947  :   }
; 948  : }

	pop	edi
	pop	esi
	pop	ebx
	add	esp, 292				; 00000124H
	cmp	ebp, esp
	call	__RTC_CheckEsp
	mov	esp, ebp
	pop	ebp
	ret	0
	npad	1
$LN23@bipred_ave:
	DD	$LN10@bipred_ave
	DD	$LN15@bipred_ave
	DD	$LN11@bipred_ave
	DD	$LN16@bipred_ave
	DD	$LN12@bipred_ave
	DD	$LN17@bipred_ave
	DD	$LN13@bipred_ave
	DD	$LN18@bipred_ave
	DD	$LN14@bipred_ave
	DD	$LN19@bipred_ave
$LN22@bipred_ave:
	DB	0
	DB	9
	DB	1
	DB	9
	DB	2
	DB	9
	DB	9
	DB	9
	DB	3
	DB	9
	DB	9
	DB	9
	DB	4
	DB	9
	DB	9
	DB	9
	DB	9
	DB	9
	DB	9
	DB	9
	DB	5
	DB	9
	DB	9
	DB	9
	DB	9
	DB	9
	DB	9
	DB	9
	DB	6
	DB	9
	DB	9
	DB	9
	DB	9
	DB	9
	DB	9
	DB	9
	DB	9
	DB	9
	DB	9
	DB	9
	DB	9
	DB	9
	DB	9
	DB	9
	DB	7
	DB	9
	DB	9
	DB	9
	DB	9
	DB	9
	DB	9
	DB	9
	DB	9
	DB	9
	DB	9
	DB	9
	DB	9
	DB	9
	DB	9
	DB	9
	DB	8
_bipred_average_px_px_avx2 ENDP
_TEXT	ENDS
; Function compile flags: /Odtp /RTCsu /ZI
; File F:\open_codec_learn_2021\kvazaar-master\src\strategies\avx2\picture-avx2.c
;	COMDAT _bipred_average_px_px_template_avx2
_TEXT	SEGMENT
tv69 = -1228						; size = 4
tv229 = -1224						; size = 4
tv205 = -1224						; size = 4
tv144 = -1224						; size = 4
tv74 = -1224						; size = 4
tv67 = -1224						; size = 4
_elements_89ab$1 = -832					; size = 4
_elements_67$2 = -820					; size = 2
_elements_45$3 = -808					; size = 2
_elements_0123$4 = -796					; size = 4
_avg$5 = -784						; size = 16
_sample_L1$6 = -752					; size = 16
_sample_L0$7 = -720					; size = 16
_mask$8 = -688						; size = 16
_y$9 = -656						; size = 4
_i$10 = -644						; size = 4
_y$11 = -632						; size = 4
_i$12 = -620						; size = 4
_avg$13 = -608						; size = 16
_sample_L1$14 = -576					; size = 16
_sample_L0$15 = -544					; size = 16
_avg$16 = -512						; size = 32
_sample_L1$17 = -448					; size = 32
_sample_L0$18 = -384					; size = 32
_mask$19 = -320						; size = 32
_x$20 = -260						; size = 4
_y$21 = -248						; size = 4
_i$22 = -236						; size = 4
_avg$23 = -224						; size = 32
_sample_L1$24 = -160					; size = 32
_sample_L0$25 = -96					; size = 32
_x$26 = -56						; size = 4
_y$27 = -44						; size = 4
_i$28 = -32						; size = 4
_area_mod_32$ = -17					; size = 1
_has_pow2_width$ = -5					; size = 1
_dst$ = 8						; size = 4
_px_L0$ = 12						; size = 4
_px_L1$ = 16						; size = 4
_pu_w$ = 20						; size = 4
_pu_h$ = 24						; size = 4
_dst_stride$ = 28					; size = 4
_bipred_average_px_px_template_avx2 PROC		; COMDAT

; 819  : {

	push	ebx
	mov	ebx, esp
	sub	esp, 8
	and	esp, -32				; ffffffe0H
	add	esp, 4
	push	ebp
	mov	ebp, DWORD PTR [ebx+4]
	mov	DWORD PTR [esp+4], ebp
	mov	ebp, esp
	sub	esp, 1240				; 000004d8H
	push	esi
	push	edi
	lea	edi, DWORD PTR [ebp-1240]
	mov	ecx, 310				; 00000136H
	mov	eax, -858993460				; ccccccccH
	rep stosd
	mov	ecx, OFFSET __5DE43F84_picture-avx2@c
	call	@__CheckForDebuggerJustMyCode@4

; 820  :   bool has_pow2_width = _mm_popcnt_u32(pu_w) == 1;

	popcnt	eax, DWORD PTR _pu_w$[ebx]
	cmp	eax, 1
	jne	SHORT $LN36@bipred_ave
	mov	DWORD PTR tv67[ebp], 1
	jmp	SHORT $LN37@bipred_ave
$LN36@bipred_ave:
	mov	DWORD PTR tv67[ebp], 0
$LN37@bipred_ave:
	cmp	DWORD PTR tv67[ebp], 0
	jne	SHORT $LN38@bipred_ave
	mov	DWORD PTR tv69[ebp], 0
	jmp	SHORT $LN39@bipred_ave
$LN38@bipred_ave:
	mov	DWORD PTR tv69[ebp], 1
$LN39@bipred_ave:
	mov	cl, BYTE PTR tv69[ebp]
	mov	BYTE PTR _has_pow2_width$[ebp], cl

; 821  :   bool area_mod_32 = (pu_w * pu_h) % 32;

	mov	eax, DWORD PTR _pu_w$[ebx]
	imul	eax, DWORD PTR _pu_h$[ebx]
	xor	edx, edx
	mov	ecx, 32					; 00000020H
	div	ecx
	test	edx, edx
	jne	SHORT $LN40@bipred_ave
	mov	DWORD PTR tv74[ebp], 0
	jmp	SHORT $LN41@bipred_ave
$LN40@bipred_ave:
	mov	DWORD PTR tv74[ebp], 1
$LN41@bipred_ave:
	mov	dl, BYTE PTR tv74[ebp]
	mov	BYTE PTR _area_mod_32$[ebp], dl

; 822  :   assert(!(pu_w == 4 && pu_h == 4) && "Branch for 4x4 not yet implemented.");

	cmp	DWORD PTR _pu_w$[ebx], 4
	jne	SHORT $LN42@bipred_ave
	cmp	DWORD PTR _pu_h$[ebx], 4
	je	SHORT $LN43@bipred_ave
$LN42@bipred_ave:
	mov	eax, OFFSET ??_C@_0CE@OJCKHEGB@Branch?5for?54x4?5not?5yet?5implemen@
	test	eax, eax
	jne	SHORT $LN44@bipred_ave
$LN43@bipred_ave:
	mov	ecx, DWORD PTR ?__LINE__Var@?0??bipred_average_px_px_template_avx2@@9@9
	add	ecx, 3
	mov	esi, esp
	push	ecx
	push	OFFSET ??_C@_1JG@HCGLAOEM@?$AAF?$AA?3?$AA?2?$AAo?$AAp?$AAe?$AAn?$AA_?$AAc?$AAo?$AAd?$AAe?$AAc?$AA_?$AAl@
	push	OFFSET ??_C@_1IG@PFICKALD@?$AA?$CB?$AA?$CI?$AAp?$AAu?$AA_?$AAw?$AA?5?$AA?$DN?$AA?$DN?$AA?5?$AA4?$AA?5?$AA?$CG?$AA?$CG?$AA?5@
	call	DWORD PTR __imp___wassert
	add	esp, 12					; 0000000cH
	cmp	esi, esp
	call	__RTC_CheckEsp
$LN44@bipred_ave:

; 823  :   assert(!(pu_w == 2 && pu_h == 8) && "Branch for 2x8 not yet implemented.");

	cmp	DWORD PTR _pu_w$[ebx], 2
	jne	SHORT $LN45@bipred_ave
	cmp	DWORD PTR _pu_h$[ebx], 8
	je	SHORT $LN46@bipred_ave
$LN45@bipred_ave:
	mov	eax, OFFSET ??_C@_0CE@ICBEPKHC@Branch?5for?52x8?5not?5yet?5implemen@
	test	eax, eax
	jne	SHORT $LN47@bipred_ave
$LN46@bipred_ave:
	mov	ecx, DWORD PTR ?__LINE__Var@?0??bipred_average_px_px_template_avx2@@9@9
	add	ecx, 4
	mov	esi, esp
	push	ecx
	push	OFFSET ??_C@_1JG@HCGLAOEM@?$AAF?$AA?3?$AA?2?$AAo?$AAp?$AAe?$AAn?$AA_?$AAc?$AAo?$AAd?$AAe?$AAc?$AA_?$AAl@
	push	OFFSET ??_C@_1IG@BCNOOMBC@?$AA?$CB?$AA?$CI?$AAp?$AAu?$AA_?$AAw?$AA?5?$AA?$DN?$AA?$DN?$AA?5?$AA2?$AA?5?$AA?$CG?$AA?$CG?$AA?5@
	call	DWORD PTR __imp___wassert
	add	esp, 12					; 0000000cH
	cmp	esi, esp
	call	__RTC_CheckEsp
$LN47@bipred_ave:

; 824  : 
; 825  :   if (has_pow2_width && area_mod_32 == 0) {

	movzx	eax, BYTE PTR _has_pow2_width$[ebp]
	test	eax, eax
	je	$LN20@bipred_ave
	movzx	eax, BYTE PTR _area_mod_32$[ebp]
	test	eax, eax
	jne	$LN20@bipred_ave

; 826  :     for (int i = 0; i < pu_w * pu_h; i += 32) {

	mov	DWORD PTR _i$28[ebp], 0
	jmp	SHORT $LN4@bipred_ave
$LN2@bipred_ave:
	mov	eax, DWORD PTR _i$28[ebp]
	add	eax, 32					; 00000020H
	mov	DWORD PTR _i$28[ebp], eax
$LN4@bipred_ave:
	mov	eax, DWORD PTR _pu_w$[ebx]
	imul	eax, DWORD PTR _pu_h$[ebx]
	cmp	DWORD PTR _i$28[ebp], eax
	jae	$LN3@bipred_ave

; 827  : 
; 828  :       int y = i / pu_w;

	mov	eax, DWORD PTR _i$28[ebp]
	xor	edx, edx
	div	DWORD PTR _pu_w$[ebx]
	mov	DWORD PTR _y$27[ebp], eax

; 829  :       int x = i % pu_w;

	mov	eax, DWORD PTR _i$28[ebp]
	xor	edx, edx
	div	DWORD PTR _pu_w$[ebx]
	mov	DWORD PTR _x$26[ebp], edx

; 830  : 
; 831  :       __m256i sample_L0 = _mm256_loadu_si256((__m256i*)&px_L0[i]);

	mov	eax, DWORD PTR _px_L0$[ebx]
	add	eax, DWORD PTR _i$28[ebp]
	vmovdqu	ymm0, YMMWORD PTR [eax]
	vmovdqu	YMMWORD PTR _sample_L0$25[ebp], ymm0

; 832  :       __m256i sample_L1 = _mm256_loadu_si256((__m256i*)&px_L1[i]);

	mov	eax, DWORD PTR _px_L1$[ebx]
	add	eax, DWORD PTR _i$28[ebp]
	vmovdqu	ymm0, YMMWORD PTR [eax]
	vmovdqu	YMMWORD PTR _sample_L1$24[ebp], ymm0

; 833  :       __m256i avg       = _mm256_avg_epu8(sample_L0, sample_L1);

	vmovdqu	ymm0, YMMWORD PTR _sample_L0$25[ebp]
	vpavgb	ymm0, ymm0, YMMWORD PTR _sample_L1$24[ebp]
	vmovdqu	YMMWORD PTR _avg$23[ebp], ymm0

; 834  : 
; 835  :       switch (pu_w) {

	mov	eax, DWORD PTR _pu_w$[ebx]
	mov	DWORD PTR tv144[ebp], eax
	mov	ecx, DWORD PTR tv144[ebp]
	sub	ecx, 4
	mov	DWORD PTR tv144[ebp], ecx
	cmp	DWORD PTR tv144[ebp], 60		; 0000003cH
	ja	$LN26@bipred_ave
	mov	edx, DWORD PTR tv144[ebp]
	movzx	eax, BYTE PTR $LN51@bipred_ave[edx]
	jmp	DWORD PTR $LN52@bipred_ave[eax*4]
$LN22@bipred_ave:

; 836  :         case  4: scatter_ymm_4x8_8bit( &dst[y * dst_stride + x], avg, dst_stride); break;

	mov	eax, DWORD PTR _dst_stride$[ebx]
	push	eax
	vmovdqu	ymm0, YMMWORD PTR _avg$23[ebp]
	mov	ecx, DWORD PTR _y$27[ebp]
	imul	ecx, DWORD PTR _dst_stride$[ebx]
	add	ecx, DWORD PTR _x$26[ebp]
	add	ecx, DWORD PTR _dst$[ebx]
	push	ecx
	call	_scatter_ymm_4x8_8bit
	add	esp, 8
	jmp	$LN5@bipred_ave
$LN23@bipred_ave:

; 837  :         case  8: scatter_ymm_8x4_8bit( &dst[y * dst_stride + x], avg, dst_stride); break;

	mov	eax, DWORD PTR _dst_stride$[ebx]
	push	eax
	vmovdqu	ymm0, YMMWORD PTR _avg$23[ebp]
	mov	ecx, DWORD PTR _y$27[ebp]
	imul	ecx, DWORD PTR _dst_stride$[ebx]
	add	ecx, DWORD PTR _x$26[ebp]
	add	ecx, DWORD PTR _dst$[ebx]
	push	ecx
	call	_scatter_ymm_8x4_8bit
	add	esp, 8
	jmp	SHORT $LN5@bipred_ave
$LN24@bipred_ave:

; 838  :         case 16: scatter_ymm_16x2_8bit(&dst[y * dst_stride + x], avg, dst_stride); break;

	mov	eax, DWORD PTR _dst_stride$[ebx]
	push	eax
	vmovdqu	ymm0, YMMWORD PTR _avg$23[ebp]
	mov	ecx, DWORD PTR _y$27[ebp]
	imul	ecx, DWORD PTR _dst_stride$[ebx]
	add	ecx, DWORD PTR _x$26[ebp]
	add	ecx, DWORD PTR _dst$[ebx]
	push	ecx
	call	_scatter_ymm_16x2_8bit
	add	esp, 8
	jmp	SHORT $LN5@bipred_ave
$LN25@bipred_ave:

; 839  :         case 32: // Same as case 64
; 840  :         case 64: _mm256_storeu_si256((__m256i *)&dst[y * dst_stride + x], avg); break;

	vmovdqu	ymm0, YMMWORD PTR _avg$23[ebp]
	mov	eax, DWORD PTR _y$27[ebp]
	imul	eax, DWORD PTR _dst_stride$[ebx]
	add	eax, DWORD PTR _x$26[ebp]
	add	eax, DWORD PTR _dst$[ebx]
	vmovdqu	YMMWORD PTR [eax], ymm0
	jmp	SHORT $LN5@bipred_ave
$LN26@bipred_ave:

; 841  :         default:
; 842  :           assert(0 && "Unexpected block width.");

	xor	eax, eax
	jne	SHORT $LN5@bipred_ave
	mov	ecx, DWORD PTR ?__LINE__Var@?0??bipred_average_px_px_template_avx2@@9@9
	add	ecx, 23					; 00000017H
	mov	esi, esp
	push	ecx
	push	OFFSET ??_C@_1JG@HCGLAOEM@?$AAF?$AA?3?$AA?2?$AAo?$AAp?$AAe?$AAn?$AA_?$AAc?$AAo?$AAd?$AAe?$AAc?$AA_?$AAl@
	push	OFFSET ??_C@_1DO@PGNEGAJ@?$AA0?$AA?5?$AA?$CG?$AA?$CG?$AA?5?$AA?$CC?$AAU?$AAn?$AAe?$AAx?$AAp?$AAe?$AAc?$AAt?$AAe@
	call	DWORD PTR __imp___wassert
	add	esp, 12					; 0000000cH
	cmp	esi, esp
	call	__RTC_CheckEsp
$LN5@bipred_ave:

; 843  :           break;
; 844  :       }
; 845  :     }

	jmp	$LN2@bipred_ave
$LN3@bipred_ave:

; 846  :   } else if (area_mod_32 == 0) {

	jmp	$LN1@bipred_ave
$LN20@bipred_ave:
	movzx	eax, BYTE PTR _area_mod_32$[ebp]
	test	eax, eax
	jne	$LN27@bipred_ave

; 847  :     for (int i = 0; i < pu_w * pu_h; i += 24) {

	mov	DWORD PTR _i$22[ebp], 0
	jmp	SHORT $LN9@bipred_ave
$LN7@bipred_ave:
	mov	eax, DWORD PTR _i$22[ebp]
	add	eax, 24					; 00000018H
	mov	DWORD PTR _i$22[ebp], eax
$LN9@bipred_ave:
	mov	eax, DWORD PTR _pu_w$[ebx]
	imul	eax, DWORD PTR _pu_h$[ebx]
	cmp	DWORD PTR _i$22[ebp], eax
	jae	$LN8@bipred_ave

; 848  : 
; 849  :       int y = i / pu_w;

	mov	eax, DWORD PTR _i$22[ebp]
	xor	edx, edx
	div	DWORD PTR _pu_w$[ebx]
	mov	DWORD PTR _y$21[ebp], eax

; 850  :       int x = i % pu_w;

	mov	eax, DWORD PTR _i$22[ebp]
	xor	edx, edx
	div	DWORD PTR _pu_w$[ebx]
	mov	DWORD PTR _x$20[ebp], edx

; 851  : 
; 852  :       // Last 64 bits of the 256 are not used to simplify the loop
; 853  :       __m256i mask      = _mm256_setr_epi64x(-1, -1, -1, 0);

	vmovdqu	ymm0, YMMWORD PTR __ymm@0000000000000000ffffffffffffffffffffffffffffffffffffffffffffffff
	vmovdqu	YMMWORD PTR _mask$19[ebp], ymm0

; 854  :       __m256i sample_L0 = _mm256_maskload_epi64((const long long*)&px_L0[i], mask);

	vmovdqu	ymm0, YMMWORD PTR _mask$19[ebp]
	mov	eax, DWORD PTR _px_L0$[ebx]
	add	eax, DWORD PTR _i$22[ebp]
	vpmaskmovq ymm0, ymm0, YMMWORD PTR [eax]
	vmovdqu	YMMWORD PTR _sample_L0$18[ebp], ymm0

; 855  :       __m256i sample_L1 = _mm256_maskload_epi64((const long long*)&px_L1[i], mask);

	vmovdqu	ymm0, YMMWORD PTR _mask$19[ebp]
	mov	eax, DWORD PTR _px_L1$[ebx]
	add	eax, DWORD PTR _i$22[ebp]
	vpmaskmovq ymm0, ymm0, YMMWORD PTR [eax]
	vmovdqu	YMMWORD PTR _sample_L1$17[ebp], ymm0

; 856  :       __m256i avg       = _mm256_avg_epu8(sample_L0, sample_L1);

	vmovdqu	ymm0, YMMWORD PTR _sample_L0$18[ebp]
	vpavgb	ymm0, ymm0, YMMWORD PTR _sample_L1$17[ebp]
	vmovdqu	YMMWORD PTR _avg$16[ebp], ymm0

; 857  : 
; 858  :       switch (pu_w) {

	mov	eax, DWORD PTR _pu_w$[ebx]
	mov	DWORD PTR tv205[ebp], eax
	cmp	DWORD PTR tv205[ebp], 12		; 0000000cH
	je	SHORT $LN29@bipred_ave
	cmp	DWORD PTR tv205[ebp], 24		; 00000018H
	je	SHORT $LN30@bipred_ave
	cmp	DWORD PTR tv205[ebp], 48		; 00000030H
	je	SHORT $LN30@bipred_ave
	jmp	SHORT $LN31@bipred_ave
$LN29@bipred_ave:

; 859  :         case 12: scatter_ymm_12x2_8bit(&dst[y * dst_stride + x], avg, dst_stride); break;

	mov	eax, DWORD PTR _dst_stride$[ebx]
	push	eax
	vmovdqu	ymm0, YMMWORD PTR _avg$16[ebp]
	mov	ecx, DWORD PTR _y$21[ebp]
	imul	ecx, DWORD PTR _dst_stride$[ebx]
	add	ecx, DWORD PTR _x$20[ebp]
	add	ecx, DWORD PTR _dst$[ebx]
	push	ecx
	call	_scatter_ymm_12x2_8bit
	add	esp, 8
	jmp	SHORT $LN10@bipred_ave
$LN30@bipred_ave:

; 860  :         case 24: // Same as case 48
; 861  :         case 48: _mm256_maskstore_epi64((long long*)&dst[y * dst_stride + x], mask, avg); break;

	vmovdqu	ymm0, YMMWORD PTR _avg$16[ebp]
	vmovdqu	ymm1, YMMWORD PTR _mask$19[ebp]
	mov	eax, DWORD PTR _y$21[ebp]
	imul	eax, DWORD PTR _dst_stride$[ebx]
	add	eax, DWORD PTR _x$20[ebp]
	add	eax, DWORD PTR _dst$[ebx]
	vpmaskmovq YMMWORD PTR [eax], ymm1, ymm0
	jmp	SHORT $LN10@bipred_ave
$LN31@bipred_ave:

; 862  :         default:
; 863  :           assert(0 && "Unexpected block width.");

	xor	eax, eax
	jne	SHORT $LN10@bipred_ave
	mov	ecx, DWORD PTR ?__LINE__Var@?0??bipred_average_px_px_template_avx2@@9@9
	add	ecx, 44					; 0000002cH
	mov	esi, esp
	push	ecx
	push	OFFSET ??_C@_1JG@HCGLAOEM@?$AAF?$AA?3?$AA?2?$AAo?$AAp?$AAe?$AAn?$AA_?$AAc?$AAo?$AAd?$AAe?$AAc?$AA_?$AAl@
	push	OFFSET ??_C@_1DO@PGNEGAJ@?$AA0?$AA?5?$AA?$CG?$AA?$CG?$AA?5?$AA?$CC?$AAU?$AAn?$AAe?$AAx?$AAp?$AAe?$AAc?$AAt?$AAe@
	call	DWORD PTR __imp___wassert
	add	esp, 12					; 0000000cH
	cmp	esi, esp
	call	__RTC_CheckEsp
$LN10@bipred_ave:

; 864  :           break;
; 865  :       }
; 866  :     }

	jmp	$LN7@bipred_ave
$LN8@bipred_ave:

; 867  :   } else {

	jmp	$LN1@bipred_ave
$LN27@bipred_ave:

; 868  :     // 8x2, 8x6, 6x8 blocks (and maybe 2x8 in the future)
; 869  :     switch (pu_w) {

	mov	eax, DWORD PTR _pu_w$[ebx]
	mov	DWORD PTR tv229[ebp], eax
	cmp	DWORD PTR tv229[ebp], 6
	je	$LN33@bipred_ave
	cmp	DWORD PTR tv229[ebp], 8
	je	SHORT $LN32@bipred_ave
	jmp	$LN34@bipred_ave
$LN32@bipred_ave:

; 870  :       __m128i sample_L0, sample_L1, avg;
; 871  :       case 8: // 8x2, 8x6
; 872  :         for (int i = 0; i < pu_w * pu_h; i += 16) {

	mov	DWORD PTR _i$12[ebp], 0
	jmp	SHORT $LN16@bipred_ave
$LN14@bipred_ave:
	mov	eax, DWORD PTR _i$12[ebp]
	add	eax, 16					; 00000010H
	mov	DWORD PTR _i$12[ebp], eax
$LN16@bipred_ave:
	mov	eax, DWORD PTR _pu_w$[ebx]
	imul	eax, DWORD PTR _pu_h$[ebx]
	cmp	DWORD PTR _i$12[ebp], eax
	jae	$LN15@bipred_ave

; 873  : 
; 874  :           int y = i / pu_w;

	mov	eax, DWORD PTR _i$12[ebp]
	xor	edx, edx
	div	DWORD PTR _pu_w$[ebx]
	mov	DWORD PTR _y$11[ebp], eax

; 875  : 
; 876  :           sample_L0 = _mm_loadu_si128((__m128i*)&px_L0[i]);

	mov	eax, DWORD PTR _px_L0$[ebx]
	add	eax, DWORD PTR _i$12[ebp]
	vmovdqu	xmm0, XMMWORD PTR [eax]
	vmovdqa	XMMWORD PTR _sample_L0$15[ebp], xmm0

; 877  :           sample_L1 = _mm_loadu_si128((__m128i*)&px_L1[i]);

	mov	eax, DWORD PTR _px_L1$[ebx]
	add	eax, DWORD PTR _i$12[ebp]
	vmovdqu	xmm0, XMMWORD PTR [eax]
	vmovdqa	XMMWORD PTR _sample_L1$14[ebp], xmm0

; 878  :           avg       = _mm_avg_epu8(sample_L0, sample_L1);

	vmovdqa	xmm0, XMMWORD PTR _sample_L0$15[ebp]
	vpavgb	xmm0, xmm0, XMMWORD PTR _sample_L1$14[ebp]
	vmovdqa	XMMWORD PTR _avg$13[ebp], xmm0

; 879  :           _mm_storel_epi64((__m128i*)&dst[y * dst_stride], avg);

	vmovdqa	xmm0, XMMWORD PTR _avg$13[ebp]
	mov	eax, DWORD PTR _y$11[ebp]
	imul	eax, DWORD PTR _dst_stride$[ebx]
	add	eax, DWORD PTR _dst$[ebx]
	vmovq	QWORD PTR [eax], xmm0

; 880  :           _mm_storeh_pd((double*)&dst[(y + 1) * dst_stride], _mm_castsi128_pd(avg));

	vmovdqa	xmm0, XMMWORD PTR _avg$13[ebp]
	mov	eax, DWORD PTR _y$11[ebp]
	add	eax, 1
	imul	eax, DWORD PTR _dst_stride$[ebx]
	add	eax, DWORD PTR _dst$[ebx]
	vmovhpd	QWORD PTR [eax], xmm0

; 881  :         }

	jmp	$LN14@bipred_ave
$LN15@bipred_ave:

; 882  :         break;

	jmp	$LN1@bipred_ave
$LN33@bipred_ave:

; 883  :       case 6: // 6x8
; 884  :         for (int i = 0; i < pu_w * pu_h; i += 12) {

	mov	DWORD PTR _i$10[ebp], 0
	jmp	SHORT $LN19@bipred_ave
$LN17@bipred_ave:
	mov	eax, DWORD PTR _i$10[ebp]
	add	eax, 12					; 0000000cH
	mov	DWORD PTR _i$10[ebp], eax
$LN19@bipred_ave:
	mov	eax, DWORD PTR _pu_w$[ebx]
	imul	eax, DWORD PTR _pu_h$[ebx]
	cmp	DWORD PTR _i$10[ebp], eax
	jae	$LN18@bipred_ave

; 885  : 
; 886  :           int y = i / pu_w;

	mov	eax, DWORD PTR _i$10[ebp]
	xor	edx, edx
	div	DWORD PTR _pu_w$[ebx]
	mov	DWORD PTR _y$9[ebp], eax

; 887  : 
; 888  :           __m128i mask      = _mm_setr_epi32(-1, -1, -1, 0);

	vmovdqa	xmm0, XMMWORD PTR __xmm@00000000ffffffffffffffffffffffff
	vmovdqa	XMMWORD PTR _mask$8[ebp], xmm0

; 889  :           __m128i sample_L0 = _mm_maskload_epi32((const int*)(&px_L0[i]), mask);

	vmovdqa	xmm0, XMMWORD PTR _mask$8[ebp]
	mov	eax, DWORD PTR _px_L0$[ebx]
	add	eax, DWORD PTR _i$10[ebp]
	vpmaskmovd xmm0, xmm0, XMMWORD PTR [eax]
	vmovdqa	XMMWORD PTR _sample_L0$7[ebp], xmm0

; 890  :           __m128i sample_L1 = _mm_maskload_epi32((const int*)(&px_L1[i]), mask);

	vmovdqa	xmm0, XMMWORD PTR _mask$8[ebp]
	mov	eax, DWORD PTR _px_L1$[ebx]
	add	eax, DWORD PTR _i$10[ebp]
	vpmaskmovd xmm0, xmm0, XMMWORD PTR [eax]
	vmovdqa	XMMWORD PTR _sample_L1$6[ebp], xmm0

; 891  :           __m128i avg       = _mm_avg_epu8(sample_L0, sample_L1);

	vmovdqa	xmm0, XMMWORD PTR _sample_L0$7[ebp]
	vpavgb	xmm0, xmm0, XMMWORD PTR _sample_L1$6[ebp]
	vmovdqa	XMMWORD PTR _avg$5[ebp], xmm0

; 892  : 
; 893  :           uint32_t elements_0123 = _mm_cvtsi128_si32(avg);

	vmovdqa	xmm0, XMMWORD PTR _avg$5[ebp]
	vmovd	eax, xmm0
	mov	DWORD PTR _elements_0123$4[ebp], eax

; 894  :           uint16_t elements_45   = _mm_extract_epi16(avg, 2);

	vmovdqa	xmm0, XMMWORD PTR _avg$5[ebp]
	vpextrw	eax, xmm0, 2
	mov	WORD PTR _elements_45$3[ebp], ax

; 895  :           uint16_t elements_67   = _mm_extract_epi16(avg, 3);

	vmovdqa	xmm0, XMMWORD PTR _avg$5[ebp]
	vpextrw	eax, xmm0, 3
	mov	WORD PTR _elements_67$2[ebp], ax

; 896  :           uint32_t elements_89ab = _mm_extract_epi32(avg, 2);

	vmovdqa	xmm0, XMMWORD PTR _avg$5[ebp]
	vpextrd	eax, xmm0, 2
	mov	DWORD PTR _elements_89ab$1[ebp], eax

; 897  :           *(uint32_t*)&dst[(y + 0) * dst_stride + 0] = elements_0123;

	mov	eax, DWORD PTR _y$9[ebp]
	imul	eax, DWORD PTR _dst_stride$[ebx]
	mov	ecx, DWORD PTR _dst$[ebx]
	mov	edx, DWORD PTR _elements_0123$4[ebp]
	mov	DWORD PTR [ecx+eax], edx

; 898  :           *(uint16_t*)&dst[(y + 0) * dst_stride + 4] = elements_45;

	mov	eax, DWORD PTR _y$9[ebp]
	imul	eax, DWORD PTR _dst_stride$[ebx]
	mov	ecx, DWORD PTR _dst$[ebx]
	mov	dx, WORD PTR _elements_45$3[ebp]
	mov	WORD PTR [ecx+eax+4], dx

; 899  :           *(uint16_t*)&dst[(y + 1) * dst_stride + 0] = elements_67;

	mov	eax, DWORD PTR _y$9[ebp]
	add	eax, 1
	imul	eax, DWORD PTR _dst_stride$[ebx]
	mov	ecx, DWORD PTR _dst$[ebx]
	mov	dx, WORD PTR _elements_67$2[ebp]
	mov	WORD PTR [ecx+eax], dx

; 900  :           *(uint32_t*)&dst[(y + 1) * dst_stride + 2] = elements_89ab;

	mov	eax, DWORD PTR _y$9[ebp]
	add	eax, 1
	imul	eax, DWORD PTR _dst_stride$[ebx]
	mov	ecx, DWORD PTR _dst$[ebx]
	mov	edx, DWORD PTR _elements_89ab$1[ebp]
	mov	DWORD PTR [ecx+eax+2], edx

; 901  :         }

	jmp	$LN17@bipred_ave
$LN18@bipred_ave:

; 902  :         break;

	jmp	SHORT $LN1@bipred_ave
$LN34@bipred_ave:

; 903  :       default:
; 904  :         assert(0 && "Unexpected block width.");

	xor	eax, eax
	jne	SHORT $LN1@bipred_ave
	mov	ecx, DWORD PTR ?__LINE__Var@?0??bipred_average_px_px_template_avx2@@9@9
	add	ecx, 85					; 00000055H
	mov	esi, esp
	push	ecx
	push	OFFSET ??_C@_1JG@HCGLAOEM@?$AAF?$AA?3?$AA?2?$AAo?$AAp?$AAe?$AAn?$AA_?$AAc?$AAo?$AAd?$AAe?$AAc?$AA_?$AAl@
	push	OFFSET ??_C@_1DO@PGNEGAJ@?$AA0?$AA?5?$AA?$CG?$AA?$CG?$AA?5?$AA?$CC?$AAU?$AAn?$AAe?$AAx?$AAp?$AAe?$AAc?$AAt?$AAe@
	call	DWORD PTR __imp___wassert
	add	esp, 12					; 0000000cH
	cmp	esi, esp
	call	__RTC_CheckEsp
$LN1@bipred_ave:

; 905  :         break;
; 906  :     }
; 907  :   }
; 908  : }

	pop	edi
	pop	esi
	mov	esp, ebp
	pop	ebp
	mov	esp, ebx
	pop	ebx
	ret	0
	npad	3
$LN52@bipred_ave:
	DD	$LN22@bipred_ave
	DD	$LN23@bipred_ave
	DD	$LN24@bipred_ave
	DD	$LN25@bipred_ave
	DD	$LN26@bipred_ave
$LN51@bipred_ave:
	DB	0
	DB	4
	DB	4
	DB	4
	DB	1
	DB	4
	DB	4
	DB	4
	DB	4
	DB	4
	DB	4
	DB	4
	DB	2
	DB	4
	DB	4
	DB	4
	DB	4
	DB	4
	DB	4
	DB	4
	DB	4
	DB	4
	DB	4
	DB	4
	DB	4
	DB	4
	DB	4
	DB	4
	DB	3
	DB	4
	DB	4
	DB	4
	DB	4
	DB	4
	DB	4
	DB	4
	DB	4
	DB	4
	DB	4
	DB	4
	DB	4
	DB	4
	DB	4
	DB	4
	DB	4
	DB	4
	DB	4
	DB	4
	DB	4
	DB	4
	DB	4
	DB	4
	DB	4
	DB	4
	DB	4
	DB	4
	DB	4
	DB	4
	DB	4
	DB	4
	DB	3
_bipred_average_px_px_template_avx2 ENDP
_TEXT	ENDS
; Function compile flags: /Odtp /RTCsu /ZI
; File F:\open_codec_learn_2021\kvazaar-master\src\strategies\avx2\picture-avx2.c
;	COMDAT _scatter_ymm_12x2_8bit
_TEXT	SEGMENT
_mask_b$ = -192						; size = 32
_mask_a$ = -128						; size = 32
_ymm$ = -64						; size = 32
_dst$ = 8						; size = 4
_dst_stride$ = 12					; size = 4
_scatter_ymm_12x2_8bit PROC				; COMDAT
; _ymm$ = ymm0

; 806  : {

	push	ebx
	mov	ebx, esp
	sub	esp, 8
	and	esp, -32				; ffffffe0H
	add	esp, 4
	push	ebp
	mov	ebp, DWORD PTR [ebx+4]
	mov	DWORD PTR [esp+4], ebp
	mov	ebp, esp
	sub	esp, 408				; 00000198H
	push	esi
	push	edi
	lea	edi, DWORD PTR [ebp-408]
	mov	ecx, 102				; 00000066H
	mov	eax, -858993460				; ccccccccH
	rep stosd
	vmovups	YMMWORD PTR _ymm$[ebp], ymm0
	mov	ecx, OFFSET __5DE43F84_picture-avx2@c
	call	@__CheckForDebuggerJustMyCode@4

; 807  :   __m256i mask_a = _mm256_setr_epi32(-1, -1, -1, 0, 0, 0, 0, 0);

	vmovdqu	ymm0, YMMWORD PTR __ymm@0000000000000000000000000000000000000000ffffffffffffffffffffffff
	vmovdqu	YMMWORD PTR _mask_a$[ebp], ymm0

; 808  :   __m256i mask_b = _mm256_setr_epi32(0, 0, 0, -1, -1, -1, 0, 0);

	vmovdqu	ymm0, YMMWORD PTR __ymm@0000000000000000ffffffffffffffffffffffff000000000000000000000000
	vmovdqu	YMMWORD PTR _mask_b$[ebp], ymm0

; 809  :   _mm256_maskstore_epi32((int32_t*)dst, mask_a, ymm); dst += dst_stride - 3 * 4;

	vmovdqu	ymm0, YMMWORD PTR _ymm$[ebp]
	vmovdqu	ymm1, YMMWORD PTR _mask_a$[ebp]
	mov	eax, DWORD PTR _dst$[ebx]
	vpmaskmovd YMMWORD PTR [eax], ymm1, ymm0
	mov	eax, DWORD PTR _dst_stride$[ebx]
	mov	ecx, DWORD PTR _dst$[ebx]
	lea	edx, DWORD PTR [ecx+eax-12]
	mov	DWORD PTR _dst$[ebx], edx

; 810  :   _mm256_maskstore_epi32((int32_t*)dst, mask_b, ymm);

	vmovdqu	ymm0, YMMWORD PTR _ymm$[ebp]
	vmovdqu	ymm1, YMMWORD PTR _mask_b$[ebp]
	mov	eax, DWORD PTR _dst$[ebx]
	vpmaskmovd YMMWORD PTR [eax], ymm1, ymm0

; 811  : }

	pop	edi
	pop	esi
	mov	esp, ebp
	pop	ebp
	mov	esp, ebx
	pop	ebx
	ret	0
_scatter_ymm_12x2_8bit ENDP
_TEXT	ENDS
; Function compile flags: /Odtp /RTCsu /ZI
; File F:\open_codec_learn_2021\kvazaar-master\src\strategies\avx2\picture-avx2.c
;	COMDAT _scatter_ymm_16x2_8bit
_TEXT	SEGMENT
_ymm_hi$ = -128						; size = 16
_ymm_lo$ = -96						; size = 16
_ymm$ = -64						; size = 32
_dst$ = 8						; size = 4
_dst_stride$ = 12					; size = 4
_scatter_ymm_16x2_8bit PROC				; COMDAT
; _ymm$ = ymm0

; 798  : {

	push	ebx
	mov	ebx, esp
	sub	esp, 8
	and	esp, -32				; ffffffe0H
	add	esp, 4
	push	ebp
	mov	ebp, DWORD PTR [ebx+4]
	mov	DWORD PTR [esp+4], ebp
	mov	ebp, esp
	sub	esp, 344				; 00000158H
	push	esi
	push	edi
	lea	edi, DWORD PTR [ebp-344]
	mov	ecx, 86					; 00000056H
	mov	eax, -858993460				; ccccccccH
	rep stosd
	vmovups	YMMWORD PTR _ymm$[ebp], ymm0
	mov	ecx, OFFSET __5DE43F84_picture-avx2@c
	call	@__CheckForDebuggerJustMyCode@4

; 799  :   __m128i ymm_lo = _mm256_castsi256_si128(ymm);

	vmovdqu	xmm0, XMMWORD PTR _ymm$[ebp]
	vmovdqa	XMMWORD PTR _ymm_lo$[ebp], xmm0

; 800  :   __m128i ymm_hi = _mm256_extracti128_si256(ymm, 1);

	vmovdqu	ymm0, YMMWORD PTR _ymm$[ebp]
	vextracti128 xmm0, ymm0, 1
	vmovdqa	XMMWORD PTR _ymm_hi$[ebp], xmm0

; 801  :   _mm_storeu_si128((__m128i *)dst, ymm_lo); dst += dst_stride;

	vmovdqu	xmm0, XMMWORD PTR _ymm_lo$[ebp]
	mov	eax, DWORD PTR _dst$[ebx]
	vmovdqu	XMMWORD PTR [eax], xmm0
	mov	eax, DWORD PTR _dst$[ebx]
	add	eax, DWORD PTR _dst_stride$[ebx]
	mov	DWORD PTR _dst$[ebx], eax

; 802  :   _mm_storeu_si128((__m128i *)dst, ymm_hi);

	vmovdqu	xmm0, XMMWORD PTR _ymm_hi$[ebp]
	mov	eax, DWORD PTR _dst$[ebx]
	vmovdqu	XMMWORD PTR [eax], xmm0

; 803  : }

	pop	edi
	pop	esi
	mov	esp, ebp
	pop	ebp
	mov	esp, ebx
	pop	ebx
	ret	0
_scatter_ymm_16x2_8bit ENDP
_TEXT	ENDS
; Function compile flags: /Odtp /RTCsu /ZI
; File F:\open_codec_learn_2021\kvazaar-master\src\strategies\avx2\picture-avx2.c
;	COMDAT _scatter_ymm_8x4_8bit
_TEXT	SEGMENT
_ymm_hi$ = -192						; size = 16
_ymm_lo$ = -160						; size = 16
_ymm_as_m256d$ = -128					; size = 32
_ymm$ = -64						; size = 32
_dst$ = 8						; size = 4
_dst_stride$ = 12					; size = 4
_scatter_ymm_8x4_8bit PROC				; COMDAT
; _ymm$ = ymm0

; 787  : {

	push	ebx
	mov	ebx, esp
	sub	esp, 8
	and	esp, -32				; ffffffe0H
	add	esp, 4
	push	ebp
	mov	ebp, DWORD PTR [ebx+4]
	mov	DWORD PTR [esp+4], ebp
	mov	ebp, esp
	sub	esp, 408				; 00000198H
	push	esi
	push	edi
	lea	edi, DWORD PTR [ebp-408]
	mov	ecx, 102				; 00000066H
	mov	eax, -858993460				; ccccccccH
	rep stosd
	vmovups	YMMWORD PTR _ymm$[ebp], ymm0
	mov	ecx, OFFSET __5DE43F84_picture-avx2@c
	call	@__CheckForDebuggerJustMyCode@4

; 788  :   __m256d ymm_as_m256d = _mm256_castsi256_pd(ymm);

	vmovupd	ymm0, YMMWORD PTR _ymm$[ebp]
	vmovupd	YMMWORD PTR _ymm_as_m256d$[ebp], ymm0

; 789  :   __m128d ymm_lo = _mm256_castpd256_pd128(ymm_as_m256d);

	vmovupd	xmm0, XMMWORD PTR _ymm_as_m256d$[ebp]
	vmovaps	XMMWORD PTR _ymm_lo$[ebp], xmm0

; 790  :   __m128d ymm_hi = _mm256_extractf128_pd(ymm_as_m256d, 1);

	vmovupd	ymm0, YMMWORD PTR _ymm_as_m256d$[ebp]
	vextractf128 xmm0, ymm0, 1
	vmovaps	XMMWORD PTR _ymm_hi$[ebp], xmm0

; 791  :   _mm_storel_pd((double*)dst, ymm_lo); dst += dst_stride;

	vmovaps	xmm0, XMMWORD PTR _ymm_lo$[ebp]
	mov	eax, DWORD PTR _dst$[ebx]
	vmovlpd	QWORD PTR [eax], xmm0
	mov	eax, DWORD PTR _dst$[ebx]
	add	eax, DWORD PTR _dst_stride$[ebx]
	mov	DWORD PTR _dst$[ebx], eax

; 792  :   _mm_storeh_pd((double*)dst, ymm_lo); dst += dst_stride;

	vmovaps	xmm0, XMMWORD PTR _ymm_lo$[ebp]
	mov	eax, DWORD PTR _dst$[ebx]
	vmovhpd	QWORD PTR [eax], xmm0
	mov	eax, DWORD PTR _dst$[ebx]
	add	eax, DWORD PTR _dst_stride$[ebx]
	mov	DWORD PTR _dst$[ebx], eax

; 793  :   _mm_storel_pd((double*)dst, ymm_hi); dst += dst_stride;

	vmovaps	xmm0, XMMWORD PTR _ymm_hi$[ebp]
	mov	eax, DWORD PTR _dst$[ebx]
	vmovlpd	QWORD PTR [eax], xmm0
	mov	eax, DWORD PTR _dst$[ebx]
	add	eax, DWORD PTR _dst_stride$[ebx]
	mov	DWORD PTR _dst$[ebx], eax

; 794  :   _mm_storeh_pd((double*)dst, ymm_hi);

	vmovaps	xmm0, XMMWORD PTR _ymm_hi$[ebp]
	mov	eax, DWORD PTR _dst$[ebx]
	vmovhpd	QWORD PTR [eax], xmm0

; 795  : }

	pop	edi
	pop	esi
	mov	esp, ebp
	pop	ebp
	mov	esp, ebx
	pop	ebx
	ret	0
_scatter_ymm_8x4_8bit ENDP
_TEXT	ENDS
; Function compile flags: /Odtp /RTCsu /ZI
; File F:\open_codec_learn_2021\kvazaar-master\src\strategies\avx2\picture-avx2.c
;	COMDAT _scatter_ymm_4x8_8bit
_TEXT	SEGMENT
_ymm_hi$ = -128						; size = 16
_ymm_lo$ = -96						; size = 16
_ymm$ = -64						; size = 32
_dst$ = 8						; size = 4
_dst_stride$ = 12					; size = 4
_scatter_ymm_4x8_8bit PROC				; COMDAT
; _ymm$ = ymm0

; 773  : {

	push	ebx
	mov	ebx, esp
	sub	esp, 8
	and	esp, -32				; ffffffe0H
	add	esp, 4
	push	ebp
	mov	ebp, DWORD PTR [ebx+4]
	mov	DWORD PTR [esp+4], ebp
	mov	ebp, esp
	sub	esp, 344				; 00000158H
	push	esi
	push	edi
	lea	edi, DWORD PTR [ebp-344]
	mov	ecx, 86					; 00000056H
	mov	eax, -858993460				; ccccccccH
	rep stosd
	vmovups	YMMWORD PTR _ymm$[ebp], ymm0
	mov	ecx, OFFSET __5DE43F84_picture-avx2@c
	call	@__CheckForDebuggerJustMyCode@4

; 774  :   __m128i ymm_lo = _mm256_castsi256_si128(ymm);

	vmovdqu	xmm0, XMMWORD PTR _ymm$[ebp]
	vmovdqa	XMMWORD PTR _ymm_lo$[ebp], xmm0

; 775  :   __m128i ymm_hi = _mm256_extracti128_si256(ymm, 1);

	vmovdqu	ymm0, YMMWORD PTR _ymm$[ebp]
	vextracti128 xmm0, ymm0, 1
	vmovdqa	XMMWORD PTR _ymm_hi$[ebp], xmm0

; 776  :   *(uint32_t *)dst = _mm_cvtsi128_si32(ymm_lo); dst += dst_stride;

	vmovdqa	xmm0, XMMWORD PTR _ymm_lo$[ebp]
	vmovd	eax, xmm0
	mov	ecx, DWORD PTR _dst$[ebx]
	mov	DWORD PTR [ecx], eax
	mov	eax, DWORD PTR _dst$[ebx]
	add	eax, DWORD PTR _dst_stride$[ebx]
	mov	DWORD PTR _dst$[ebx], eax

; 777  :   *(uint32_t *)dst = _mm_extract_epi32(ymm_lo, 1); dst += dst_stride;

	vmovdqa	xmm0, XMMWORD PTR _ymm_lo$[ebp]
	vpextrd	eax, xmm0, 1
	mov	ecx, DWORD PTR _dst$[ebx]
	mov	DWORD PTR [ecx], eax
	mov	eax, DWORD PTR _dst$[ebx]
	add	eax, DWORD PTR _dst_stride$[ebx]
	mov	DWORD PTR _dst$[ebx], eax

; 778  :   *(uint32_t *)dst = _mm_extract_epi32(ymm_lo, 2); dst += dst_stride;

	vmovdqa	xmm0, XMMWORD PTR _ymm_lo$[ebp]
	vpextrd	eax, xmm0, 2
	mov	ecx, DWORD PTR _dst$[ebx]
	mov	DWORD PTR [ecx], eax
	mov	eax, DWORD PTR _dst$[ebx]
	add	eax, DWORD PTR _dst_stride$[ebx]
	mov	DWORD PTR _dst$[ebx], eax

; 779  :   *(uint32_t *)dst = _mm_extract_epi32(ymm_lo, 3); dst += dst_stride;

	vmovdqa	xmm0, XMMWORD PTR _ymm_lo$[ebp]
	vpextrd	eax, xmm0, 3
	mov	ecx, DWORD PTR _dst$[ebx]
	mov	DWORD PTR [ecx], eax
	mov	eax, DWORD PTR _dst$[ebx]
	add	eax, DWORD PTR _dst_stride$[ebx]
	mov	DWORD PTR _dst$[ebx], eax

; 780  :   *(uint32_t *)dst = _mm_cvtsi128_si32(ymm_hi); dst += dst_stride;

	vmovdqa	xmm0, XMMWORD PTR _ymm_hi$[ebp]
	vmovd	eax, xmm0
	mov	ecx, DWORD PTR _dst$[ebx]
	mov	DWORD PTR [ecx], eax
	mov	eax, DWORD PTR _dst$[ebx]
	add	eax, DWORD PTR _dst_stride$[ebx]
	mov	DWORD PTR _dst$[ebx], eax

; 781  :   *(uint32_t *)dst = _mm_extract_epi32(ymm_hi, 1); dst += dst_stride;

	vmovdqa	xmm0, XMMWORD PTR _ymm_hi$[ebp]
	vpextrd	eax, xmm0, 1
	mov	ecx, DWORD PTR _dst$[ebx]
	mov	DWORD PTR [ecx], eax
	mov	eax, DWORD PTR _dst$[ebx]
	add	eax, DWORD PTR _dst_stride$[ebx]
	mov	DWORD PTR _dst$[ebx], eax

; 782  :   *(uint32_t *)dst = _mm_extract_epi32(ymm_hi, 2); dst += dst_stride;

	vmovdqa	xmm0, XMMWORD PTR _ymm_hi$[ebp]
	vpextrd	eax, xmm0, 2
	mov	ecx, DWORD PTR _dst$[ebx]
	mov	DWORD PTR [ecx], eax
	mov	eax, DWORD PTR _dst$[ebx]
	add	eax, DWORD PTR _dst_stride$[ebx]
	mov	DWORD PTR _dst$[ebx], eax

; 783  :   *(uint32_t *)dst = _mm_extract_epi32(ymm_hi, 3);

	vmovdqa	xmm0, XMMWORD PTR _ymm_hi$[ebp]
	vpextrd	eax, xmm0, 3
	mov	ecx, DWORD PTR _dst$[ebx]
	mov	DWORD PTR [ecx], eax

; 784  : }

	pop	edi
	pop	esi
	mov	esp, ebp
	pop	ebp
	mov	esp, ebx
	pop	ebx
	ret	0
_scatter_ymm_4x8_8bit ENDP
_TEXT	ENDS
; Function compile flags: /Odtp /RTCsu /ZI
; File F:\open_codec_learn_2021\kvazaar-master\src\strategies\avx2\picture-avx2.c
;	COMDAT _pixels_calc_ssd_avx2
_TEXT	SEGMENT
tv65 = -984						; size = 4
_i$1 = -592						; size = 4
_x$2 = -580						; size = 4
_y$3 = -568						; size = 4
_ssd$ = -556						; size = 4
_rec_row3$ = -544					; size = 16
_rec_row2$ = -512					; size = 16
_rec_row1$ = -480					; size = 16
_rec_row0$ = -448					; size = 16
_ref_row3$ = -416					; size = 16
_ref_row2$ = -384					; size = 16
_ref_row1$ = -352					; size = 16
_ref_row0$ = -320					; size = 16
_rec_epi16$ = -288					; size = 32
_ref_epi16$ = -224					; size = 32
_sum$ = -160						; size = 16
_diff$ = -128						; size = 32
_ssd_part$ = -64					; size = 32
_ref$ = 8						; size = 4
_rec$ = 12						; size = 4
_ref_stride$ = 16					; size = 4
_rec_stride$ = 20					; size = 4
_width$ = 24						; size = 4
_pixels_calc_ssd_avx2 PROC				; COMDAT

; 700  : {

	push	ebx
	mov	ebx, esp
	sub	esp, 8
	and	esp, -32				; ffffffe0H
	add	esp, 4
	push	ebp
	mov	ebp, DWORD PTR [ebx+4]
	mov	DWORD PTR [esp+4], ebp
	mov	ebp, esp
	sub	esp, 984				; 000003d8H
	push	esi
	push	edi
	lea	edi, DWORD PTR [ebp-984]
	mov	ecx, 246				; 000000f6H
	mov	eax, -858993460				; ccccccccH
	rep stosd
	mov	ecx, OFFSET __5DE43F84_picture-avx2@c
	call	@__CheckForDebuggerJustMyCode@4

; 701  :   __m256i ssd_part;
; 702  :   __m256i diff = _mm256_setzero_si256();

	vpxor	xmm0, xmm0, xmm0
	vmovdqu	YMMWORD PTR _diff$[ebp], ymm0

; 703  :   __m128i sum;
; 704  : 
; 705  :   __m256i ref_epi16;
; 706  :   __m256i rec_epi16;
; 707  : 
; 708  :   __m128i ref_row0, ref_row1, ref_row2, ref_row3;
; 709  :   __m128i rec_row0, rec_row1, rec_row2, rec_row3;
; 710  : 
; 711  :   int ssd;
; 712  : 
; 713  :   switch (width) {

	mov	eax, DWORD PTR _width$[ebx]
	mov	DWORD PTR tv65[ebp], eax
	cmp	DWORD PTR tv65[ebp], 4
	je	SHORT $LN13@pixels_cal
	jmp	$LN14@pixels_cal
$LN13@pixels_cal:

; 714  : 
; 715  :   case 4:
; 716  : 
; 717  :     ref_row0 = _mm_cvtsi32_si128(*(int32_t*)&(ref[0 * ref_stride]));

	imul	eax, DWORD PTR _ref_stride$[ebx], 0
	mov	ecx, DWORD PTR _ref$[ebx]
	vmovd	xmm0, DWORD PTR [ecx+eax]
	vmovdqa	XMMWORD PTR _ref_row0$[ebp], xmm0

; 718  :     ref_row1 = _mm_cvtsi32_si128(*(int32_t*)&(ref[1 * ref_stride]));

	mov	eax, DWORD PTR _ref$[ebx]
	add	eax, DWORD PTR _ref_stride$[ebx]
	vmovd	xmm0, DWORD PTR [eax]
	vmovdqa	XMMWORD PTR _ref_row1$[ebp], xmm0

; 719  :     ref_row2 = _mm_cvtsi32_si128(*(int32_t*)&(ref[2 * ref_stride]));

	mov	eax, DWORD PTR _ref_stride$[ebx]
	mov	ecx, DWORD PTR _ref$[ebx]
	vmovd	xmm0, DWORD PTR [ecx+eax*2]
	vmovdqa	XMMWORD PTR _ref_row2$[ebp], xmm0

; 720  :     ref_row3 = _mm_cvtsi32_si128(*(int32_t*)&(ref[3 * ref_stride]));

	imul	eax, DWORD PTR _ref_stride$[ebx], 3
	mov	ecx, DWORD PTR _ref$[ebx]
	vmovd	xmm0, DWORD PTR [ecx+eax]
	vmovdqa	XMMWORD PTR _ref_row3$[ebp], xmm0

; 721  : 
; 722  :     ref_row0 = _mm_unpacklo_epi32(ref_row0, ref_row1);

	vmovdqa	xmm0, XMMWORD PTR _ref_row0$[ebp]
	vpunpckldq xmm0, xmm0, XMMWORD PTR _ref_row1$[ebp]
	vmovdqa	XMMWORD PTR _ref_row0$[ebp], xmm0

; 723  :     ref_row1 = _mm_unpacklo_epi32(ref_row2, ref_row3);

	vmovdqa	xmm0, XMMWORD PTR _ref_row2$[ebp]
	vpunpckldq xmm0, xmm0, XMMWORD PTR _ref_row3$[ebp]
	vmovdqa	XMMWORD PTR _ref_row1$[ebp], xmm0

; 724  :     ref_epi16 = _mm256_cvtepu8_epi16(_mm_unpacklo_epi64(ref_row0, ref_row1) );

	vmovdqa	xmm0, XMMWORD PTR _ref_row0$[ebp]
	vpunpcklqdq xmm0, xmm0, XMMWORD PTR _ref_row1$[ebp]
	vpmovzxbw ymm0, xmm0
	vmovdqu	YMMWORD PTR _ref_epi16$[ebp], ymm0

; 725  : 
; 726  :     rec_row0 = _mm_cvtsi32_si128(*(int32_t*)&(rec[0 * rec_stride]));

	imul	eax, DWORD PTR _rec_stride$[ebx], 0
	mov	ecx, DWORD PTR _rec$[ebx]
	vmovd	xmm0, DWORD PTR [ecx+eax]
	vmovdqa	XMMWORD PTR _rec_row0$[ebp], xmm0

; 727  :     rec_row1 = _mm_cvtsi32_si128(*(int32_t*)&(rec[1 * rec_stride]));

	mov	eax, DWORD PTR _rec$[ebx]
	add	eax, DWORD PTR _rec_stride$[ebx]
	vmovd	xmm0, DWORD PTR [eax]
	vmovdqa	XMMWORD PTR _rec_row1$[ebp], xmm0

; 728  :     rec_row2 = _mm_cvtsi32_si128(*(int32_t*)&(rec[2 * rec_stride]));

	mov	eax, DWORD PTR _rec_stride$[ebx]
	mov	ecx, DWORD PTR _rec$[ebx]
	vmovd	xmm0, DWORD PTR [ecx+eax*2]
	vmovdqa	XMMWORD PTR _rec_row2$[ebp], xmm0

; 729  :     rec_row3 = _mm_cvtsi32_si128(*(int32_t*)&(rec[3 * rec_stride]));

	imul	eax, DWORD PTR _rec_stride$[ebx], 3
	mov	ecx, DWORD PTR _rec$[ebx]
	vmovd	xmm0, DWORD PTR [ecx+eax]
	vmovdqa	XMMWORD PTR _rec_row3$[ebp], xmm0

; 730  : 
; 731  :     rec_row0 = _mm_unpacklo_epi32(rec_row0, rec_row1);

	vmovdqa	xmm0, XMMWORD PTR _rec_row0$[ebp]
	vpunpckldq xmm0, xmm0, XMMWORD PTR _rec_row1$[ebp]
	vmovdqa	XMMWORD PTR _rec_row0$[ebp], xmm0

; 732  :     rec_row1 = _mm_unpacklo_epi32(rec_row2, rec_row3);

	vmovdqa	xmm0, XMMWORD PTR _rec_row2$[ebp]
	vpunpckldq xmm0, xmm0, XMMWORD PTR _rec_row3$[ebp]
	vmovdqa	XMMWORD PTR _rec_row1$[ebp], xmm0

; 733  :     rec_epi16 = _mm256_cvtepu8_epi16(_mm_unpacklo_epi64(rec_row0, rec_row1) );

	vmovdqa	xmm0, XMMWORD PTR _rec_row0$[ebp]
	vpunpcklqdq xmm0, xmm0, XMMWORD PTR _rec_row1$[ebp]
	vpmovzxbw ymm0, xmm0
	vmovdqu	YMMWORD PTR _rec_epi16$[ebp], ymm0

; 734  : 
; 735  :     diff = _mm256_sub_epi16(ref_epi16, rec_epi16);

	vmovdqu	ymm0, YMMWORD PTR _ref_epi16$[ebp]
	vpsubw	ymm0, ymm0, YMMWORD PTR _rec_epi16$[ebp]
	vmovdqu	YMMWORD PTR _diff$[ebp], ymm0

; 736  :     ssd_part =  _mm256_madd_epi16(diff, diff);

	vmovdqu	ymm0, YMMWORD PTR _diff$[ebp]
	vpmaddwd ymm0, ymm0, YMMWORD PTR _diff$[ebp]
	vmovdqu	YMMWORD PTR _ssd_part$[ebp], ymm0

; 737  : 
; 738  :     sum = _mm_add_epi32(_mm256_castsi256_si128(ssd_part), _mm256_extracti128_si256(ssd_part, 1));

	vmovdqu	ymm0, YMMWORD PTR _ssd_part$[ebp]
	vextracti128 xmm0, ymm0, 1
	vmovdqa	xmm1, XMMWORD PTR _ssd_part$[ebp]
	vpaddd	xmm0, xmm1, xmm0
	vmovdqa	XMMWORD PTR _sum$[ebp], xmm0

; 739  :     sum = _mm_add_epi32(sum, _mm_shuffle_epi32(sum, _MM_SHUFFLE(1, 0, 3, 2)));

	vpshufd	xmm0, XMMWORD PTR _sum$[ebp], 78	; 0000004eH
	vmovdqa	xmm1, XMMWORD PTR _sum$[ebp]
	vpaddd	xmm0, xmm1, xmm0
	vmovdqa	XMMWORD PTR _sum$[ebp], xmm0

; 740  :     sum = _mm_add_epi32(sum, _mm_shuffle_epi32(sum, _MM_SHUFFLE(0, 1, 0, 1)));

	vpshufd	xmm0, XMMWORD PTR _sum$[ebp], 17	; 00000011H
	vmovdqa	xmm1, XMMWORD PTR _sum$[ebp]
	vpaddd	xmm0, xmm1, xmm0
	vmovdqa	XMMWORD PTR _sum$[ebp], xmm0

; 741  : 
; 742  :     ssd = _mm_cvtsi128_si32(sum);

	vmovdqa	xmm0, XMMWORD PTR _sum$[ebp]
	vmovd	eax, xmm0
	mov	DWORD PTR _ssd$[ebp], eax

; 743  : 
; 744  :     return ssd >> (2*(KVZ_BIT_DEPTH-8));

	mov	eax, DWORD PTR _ssd$[ebp]
	jmp	$LN1@pixels_cal

; 745  :     break;

	jmp	$LN1@pixels_cal
$LN14@pixels_cal:

; 746  : 
; 747  :   default:
; 748  : 
; 749  :     ssd_part = _mm256_setzero_si256();

	vpxor	xmm0, xmm0, xmm0
	vmovdqu	YMMWORD PTR _ssd_part$[ebp], ymm0

; 750  :     for (int y = 0; y < width; y += 8) {

	mov	DWORD PTR _y$3[ebp], 0
	jmp	SHORT $LN6@pixels_cal
$LN4@pixels_cal:
	mov	eax, DWORD PTR _y$3[ebp]
	add	eax, 8
	mov	DWORD PTR _y$3[ebp], eax
$LN6@pixels_cal:
	mov	eax, DWORD PTR _y$3[ebp]
	cmp	eax, DWORD PTR _width$[ebx]
	jge	$LN5@pixels_cal

; 751  :       for (int x = 0; x < width; x += 8) {

	mov	DWORD PTR _x$2[ebp], 0
	jmp	SHORT $LN9@pixels_cal
$LN7@pixels_cal:
	mov	eax, DWORD PTR _x$2[ebp]
	add	eax, 8
	mov	DWORD PTR _x$2[ebp], eax
$LN9@pixels_cal:
	mov	eax, DWORD PTR _x$2[ebp]
	cmp	eax, DWORD PTR _width$[ebx]
	jge	$LN8@pixels_cal

; 752  :         for (int i = 0; i < 8; i += 2) {

	mov	DWORD PTR _i$1[ebp], 0
	jmp	SHORT $LN12@pixels_cal
$LN10@pixels_cal:
	mov	eax, DWORD PTR _i$1[ebp]
	add	eax, 2
	mov	DWORD PTR _i$1[ebp], eax
$LN12@pixels_cal:
	cmp	DWORD PTR _i$1[ebp], 8
	jge	$LN11@pixels_cal

; 753  :           ref_epi16 = _mm256_cvtepu8_epi16(_mm_unpacklo_epi64(_mm_loadl_epi64((__m128i*)&(ref[x + (y + i) * ref_stride])), _mm_loadl_epi64((__m128i*)&(ref[x + (y + i + 1) * ref_stride]))));

	mov	eax, DWORD PTR _i$1[ebp]
	mov	ecx, DWORD PTR _y$3[ebp]
	lea	edx, DWORD PTR [ecx+eax+1]
	imul	edx, DWORD PTR _ref_stride$[ebx]
	add	edx, DWORD PTR _x$2[ebp]
	mov	eax, DWORD PTR _ref$[ebx]
	vmovq	xmm0, QWORD PTR [eax+edx]
	mov	ecx, DWORD PTR _y$3[ebp]
	add	ecx, DWORD PTR _i$1[ebp]
	imul	ecx, DWORD PTR _ref_stride$[ebx]
	add	ecx, DWORD PTR _x$2[ebp]
	mov	edx, DWORD PTR _ref$[ebx]
	vmovq	xmm1, QWORD PTR [edx+ecx]
	vpunpcklqdq xmm0, xmm1, xmm0
	vpmovzxbw ymm0, xmm0
	vmovdqu	YMMWORD PTR _ref_epi16$[ebp], ymm0

; 754  :           rec_epi16 = _mm256_cvtepu8_epi16(_mm_unpacklo_epi64(_mm_loadl_epi64((__m128i*)&(rec[x + (y + i) * rec_stride])), _mm_loadl_epi64((__m128i*)&(rec[x + (y + i + 1) * rec_stride]))));

	mov	eax, DWORD PTR _i$1[ebp]
	mov	ecx, DWORD PTR _y$3[ebp]
	lea	edx, DWORD PTR [ecx+eax+1]
	imul	edx, DWORD PTR _rec_stride$[ebx]
	add	edx, DWORD PTR _x$2[ebp]
	mov	eax, DWORD PTR _rec$[ebx]
	vmovq	xmm0, QWORD PTR [eax+edx]
	mov	ecx, DWORD PTR _y$3[ebp]
	add	ecx, DWORD PTR _i$1[ebp]
	imul	ecx, DWORD PTR _rec_stride$[ebx]
	add	ecx, DWORD PTR _x$2[ebp]
	mov	edx, DWORD PTR _rec$[ebx]
	vmovq	xmm1, QWORD PTR [edx+ecx]
	vpunpcklqdq xmm0, xmm1, xmm0
	vpmovzxbw ymm0, xmm0
	vmovdqu	YMMWORD PTR _rec_epi16$[ebp], ymm0

; 755  :           diff = _mm256_sub_epi16(ref_epi16, rec_epi16);

	vmovdqu	ymm0, YMMWORD PTR _ref_epi16$[ebp]
	vpsubw	ymm0, ymm0, YMMWORD PTR _rec_epi16$[ebp]
	vmovdqu	YMMWORD PTR _diff$[ebp], ymm0

; 756  :           ssd_part = _mm256_add_epi32(ssd_part, _mm256_madd_epi16(diff, diff));

	vmovdqu	ymm0, YMMWORD PTR _diff$[ebp]
	vpmaddwd ymm0, ymm0, YMMWORD PTR _diff$[ebp]
	vmovdqu	ymm1, YMMWORD PTR _ssd_part$[ebp]
	vpaddd	ymm0, ymm1, ymm0
	vmovdqu	YMMWORD PTR _ssd_part$[ebp], ymm0

; 757  :         }

	jmp	$LN10@pixels_cal
$LN11@pixels_cal:

; 758  :       }

	jmp	$LN7@pixels_cal
$LN8@pixels_cal:

; 759  :     }

	jmp	$LN4@pixels_cal
$LN5@pixels_cal:

; 760  : 
; 761  :     sum = _mm_add_epi32(_mm256_castsi256_si128(ssd_part), _mm256_extracti128_si256(ssd_part, 1));

	vmovdqu	ymm0, YMMWORD PTR _ssd_part$[ebp]
	vextracti128 xmm0, ymm0, 1
	vmovdqa	xmm1, XMMWORD PTR _ssd_part$[ebp]
	vpaddd	xmm0, xmm1, xmm0
	vmovdqa	XMMWORD PTR _sum$[ebp], xmm0

; 762  :     sum = _mm_add_epi32(sum, _mm_shuffle_epi32(sum, _MM_SHUFFLE(1, 0, 3, 2)));

	vpshufd	xmm0, XMMWORD PTR _sum$[ebp], 78	; 0000004eH
	vmovdqa	xmm1, XMMWORD PTR _sum$[ebp]
	vpaddd	xmm0, xmm1, xmm0
	vmovdqa	XMMWORD PTR _sum$[ebp], xmm0

; 763  :     sum = _mm_add_epi32(sum, _mm_shuffle_epi32(sum, _MM_SHUFFLE(0, 1, 0, 1)));

	vpshufd	xmm0, XMMWORD PTR _sum$[ebp], 17	; 00000011H
	vmovdqa	xmm1, XMMWORD PTR _sum$[ebp]
	vpaddd	xmm0, xmm1, xmm0
	vmovdqa	XMMWORD PTR _sum$[ebp], xmm0

; 764  : 
; 765  :     ssd = _mm_cvtsi128_si32(sum);

	vmovdqa	xmm0, XMMWORD PTR _sum$[ebp]
	vmovd	eax, xmm0
	mov	DWORD PTR _ssd$[ebp], eax

; 766  : 
; 767  :     return ssd >> (2*(KVZ_BIT_DEPTH-8));

	mov	eax, DWORD PTR _ssd$[ebp]
$LN1@pixels_cal:

; 768  :     break;
; 769  :   }
; 770  : }

	pop	edi
	pop	esi
	mov	esp, ebp
	pop	ebp
	mov	esp, ebx
	pop	ebx
	ret	0
_pixels_calc_ssd_avx2 ENDP
_TEXT	ENDS
; Function compile flags: /Odtp /RTCsu /ZI
; File F:\open_codec_learn_2021\kvazaar-master\src\strategies\avx2\picture-avx2.c
;	COMDAT _satd_any_size_quad_avx2
_TEXT	SEGMENT
_i$1 = -144						; size = 4
_x$2 = -132						; size = 4
_y$3 = -120						; size = 4
_blk$4 = -108						; size = 4
_x$5 = -96						; size = 4
_blk$6 = -84						; size = 4
_y$7 = -72						; size = 4
_orig_ptr$ = -60					; size = 4
_pred_ptrs$ = -48					; size = 16
_sums$ = -24						; size = 16
__$ArrayPad$ = -4					; size = 4
_width$ = 8						; size = 4
_height$ = 12						; size = 4
_preds$ = 16						; size = 4
_stride$ = 20						; size = 4
_orig$ = 24						; size = 4
_orig_stride$ = 28					; size = 4
_num_modes$ = 32					; size = 4
_costs_out$ = 36					; size = 4
_valid$ = 40						; size = 4
_satd_any_size_quad_avx2 PROC				; COMDAT

; 694  : SATD_ANY_SIZE_MULTI_AVX2(quad_avx2, 4)

	push	ebp
	mov	ebp, esp
	sub	esp, 340				; 00000154H
	push	ebx
	push	esi
	push	edi
	lea	edi, DWORD PTR [ebp-340]
	mov	ecx, 85					; 00000055H
	mov	eax, -858993460				; ccccccccH
	rep stosd
	mov	eax, DWORD PTR ___security_cookie
	xor	eax, ebp
	mov	DWORD PTR __$ArrayPad$[ebp], eax
	mov	ecx, OFFSET __5DE43F84_picture-avx2@c
	call	@__CheckForDebuggerJustMyCode@4
	xor	eax, eax
	mov	DWORD PTR _sums$[ebp], eax
	mov	DWORD PTR _sums$[ebp+4], eax
	mov	DWORD PTR _sums$[ebp+8], eax
	mov	DWORD PTR _sums$[ebp+12], eax
	mov	eax, 4
	imul	ecx, eax, 0
	mov	edx, DWORD PTR _preds$[ebp]
	mov	eax, DWORD PTR [edx+ecx]
	mov	DWORD PTR _pred_ptrs$[ebp], eax
	mov	eax, 4
	shl	eax, 0
	mov	ecx, DWORD PTR _preds$[ebp]
	mov	edx, DWORD PTR [ecx+eax]
	mov	DWORD PTR _pred_ptrs$[ebp+4], edx
	mov	eax, 4
	shl	eax, 1
	mov	ecx, DWORD PTR _preds$[ebp]
	mov	edx, DWORD PTR [ecx+eax]
	mov	DWORD PTR _pred_ptrs$[ebp+8], edx
	mov	eax, 4
	imul	ecx, eax, 3
	mov	edx, DWORD PTR _preds$[ebp]
	mov	eax, DWORD PTR [edx+ecx]
	mov	DWORD PTR _pred_ptrs$[ebp+12], eax
	mov	eax, DWORD PTR _orig$[ebp]
	mov	DWORD PTR _orig_ptr$[ebp], eax
	mov	eax, 4
	imul	ecx, eax, 0
	mov	edx, DWORD PTR _costs_out$[ebp]
	mov	DWORD PTR [edx+ecx], 0
	mov	eax, 4
	shl	eax, 0
	mov	ecx, DWORD PTR _costs_out$[ebp]
	mov	DWORD PTR [ecx+eax], 0
	mov	eax, 4
	shl	eax, 1
	mov	ecx, DWORD PTR _costs_out$[ebp]
	mov	DWORD PTR [ecx+eax], 0
	mov	eax, 4
	imul	ecx, eax, 3
	mov	edx, DWORD PTR _costs_out$[ebp]
	mov	DWORD PTR [edx+ecx], 0
	mov	eax, DWORD PTR _width$[ebp]
	and	eax, -2147483641			; 80000007H
	jns	SHORT $LN30@satd_any_s
	dec	eax
	or	eax, -8					; fffffff8H
	inc	eax
$LN30@satd_any_s:
	test	eax, eax
	je	SHORT $LN23@satd_any_s
	mov	DWORD PTR _y$7[ebp], 0
	jmp	SHORT $LN4@satd_any_s
$LN2@satd_any_s:
	mov	eax, DWORD PTR _y$7[ebp]
	add	eax, 4
	mov	DWORD PTR _y$7[ebp], eax
$LN4@satd_any_s:
	mov	eax, DWORD PTR _y$7[ebp]
	cmp	eax, DWORD PTR _height$[ebp]
	jge	SHORT $LN3@satd_any_s
	lea	eax, DWORD PTR _sums$[ebp]
	push	eax
	mov	ecx, DWORD PTR _orig_stride$[ebp]
	push	ecx
	mov	edx, DWORD PTR _orig$[ebp]
	push	edx
	mov	eax, DWORD PTR _stride$[ebp]
	push	eax
	mov	ecx, DWORD PTR _preds$[ebp]
	push	ecx
	call	_kvz_satd_4x4_subblock_quad_avx2
	add	esp, 20					; 00000014H
	jmp	SHORT $LN2@satd_any_s
$LN3@satd_any_s:
	mov	eax, DWORD PTR _orig_ptr$[ebp]
	add	eax, 4
	mov	DWORD PTR _orig_ptr$[ebp], eax
	mov	DWORD PTR _blk$6[ebp], 0
	jmp	SHORT $LN7@satd_any_s
$LN5@satd_any_s:
	mov	eax, DWORD PTR _blk$6[ebp]
	add	eax, 1
	mov	DWORD PTR _blk$6[ebp], eax
$LN7@satd_any_s:
	cmp	DWORD PTR _blk$6[ebp], 4
	jge	SHORT $LN6@satd_any_s
	mov	eax, DWORD PTR _blk$6[ebp]
	mov	ecx, DWORD PTR _pred_ptrs$[ebp+eax*4]
	add	ecx, 4
	mov	edx, DWORD PTR _blk$6[ebp]
	mov	DWORD PTR _pred_ptrs$[ebp+edx*4], ecx
	jmp	SHORT $LN5@satd_any_s
$LN6@satd_any_s:
	mov	eax, DWORD PTR _width$[ebp]
	sub	eax, 4
	mov	DWORD PTR _width$[ebp], eax
$LN23@satd_any_s:
	mov	eax, DWORD PTR _height$[ebp]
	and	eax, -2147483641			; 80000007H
	jns	SHORT $LN31@satd_any_s
	dec	eax
	or	eax, -8					; fffffff8H
	inc	eax
$LN31@satd_any_s:
	test	eax, eax
	je	SHORT $LN24@satd_any_s
	mov	DWORD PTR _x$5[ebp], 0
	jmp	SHORT $LN10@satd_any_s
$LN8@satd_any_s:
	mov	eax, DWORD PTR _x$5[ebp]
	add	eax, 4
	mov	DWORD PTR _x$5[ebp], eax
$LN10@satd_any_s:
	mov	eax, DWORD PTR _x$5[ebp]
	cmp	eax, DWORD PTR _width$[ebp]
	jge	SHORT $LN9@satd_any_s
	lea	eax, DWORD PTR _sums$[ebp]
	push	eax
	mov	ecx, DWORD PTR _orig_stride$[ebp]
	push	ecx
	mov	edx, DWORD PTR _orig_ptr$[ebp]
	push	edx
	mov	eax, DWORD PTR _stride$[ebp]
	push	eax
	lea	ecx, DWORD PTR _pred_ptrs$[ebp]
	push	ecx
	call	_kvz_satd_4x4_subblock_quad_avx2
	add	esp, 20					; 00000014H
	jmp	SHORT $LN8@satd_any_s
$LN9@satd_any_s:
	mov	eax, DWORD PTR _orig_stride$[ebp]
	mov	ecx, DWORD PTR _orig_ptr$[ebp]
	lea	edx, DWORD PTR [ecx+eax*4]
	mov	DWORD PTR _orig_ptr$[ebp], edx
	mov	DWORD PTR _blk$4[ebp], 0
	jmp	SHORT $LN13@satd_any_s
$LN11@satd_any_s:
	mov	eax, DWORD PTR _blk$4[ebp]
	add	eax, 1
	mov	DWORD PTR _blk$4[ebp], eax
$LN13@satd_any_s:
	cmp	DWORD PTR _blk$4[ebp], 4
	jge	SHORT $LN12@satd_any_s
	mov	eax, DWORD PTR _blk$4[ebp]
	mov	ecx, DWORD PTR _pred_ptrs$[ebp+eax*4]
	mov	edx, DWORD PTR _stride$[ebp]
	lea	eax, DWORD PTR [ecx+edx*4]
	mov	ecx, DWORD PTR _blk$4[ebp]
	mov	DWORD PTR _pred_ptrs$[ebp+ecx*4], eax
	jmp	SHORT $LN11@satd_any_s
$LN12@satd_any_s:
	mov	eax, DWORD PTR _height$[ebp]
	sub	eax, 4
	mov	DWORD PTR _height$[ebp], eax
$LN24@satd_any_s:
	mov	DWORD PTR _y$3[ebp], 0
	jmp	SHORT $LN16@satd_any_s
$LN14@satd_any_s:
	mov	eax, DWORD PTR _y$3[ebp]
	add	eax, 8
	mov	DWORD PTR _y$3[ebp], eax
$LN16@satd_any_s:
	mov	eax, DWORD PTR _y$3[ebp]
	cmp	eax, DWORD PTR _height$[ebp]
	jge	$LN15@satd_any_s
	mov	eax, DWORD PTR _y$3[ebp]
	imul	eax, DWORD PTR _orig_stride$[ebp]
	add	eax, DWORD PTR _orig$[ebp]
	mov	DWORD PTR _orig_ptr$[ebp], eax
	mov	eax, 4
	imul	ecx, eax, 0
	mov	edx, DWORD PTR _y$3[ebp]
	imul	edx, DWORD PTR _stride$[ebp]
	mov	eax, DWORD PTR _preds$[ebp]
	mov	ecx, DWORD PTR [eax+ecx]
	add	ecx, edx
	mov	edx, 4
	imul	eax, edx, 0
	mov	DWORD PTR _pred_ptrs$[ebp+eax], ecx
	mov	eax, 4
	shl	eax, 0
	mov	ecx, DWORD PTR _y$3[ebp]
	imul	ecx, DWORD PTR _stride$[ebp]
	mov	edx, DWORD PTR _preds$[ebp]
	mov	eax, DWORD PTR [edx+eax]
	add	eax, ecx
	mov	ecx, 4
	shl	ecx, 0
	mov	DWORD PTR _pred_ptrs$[ebp+ecx], eax
	mov	eax, 4
	shl	eax, 1
	mov	ecx, DWORD PTR _y$3[ebp]
	imul	ecx, DWORD PTR _stride$[ebp]
	mov	edx, DWORD PTR _preds$[ebp]
	mov	eax, DWORD PTR [edx+eax]
	add	eax, ecx
	mov	ecx, 4
	shl	ecx, 1
	mov	DWORD PTR _pred_ptrs$[ebp+ecx], eax
	mov	eax, 4
	imul	ecx, eax, 3
	mov	edx, DWORD PTR _y$3[ebp]
	imul	edx, DWORD PTR _stride$[ebp]
	mov	eax, DWORD PTR _preds$[ebp]
	mov	ecx, DWORD PTR [eax+ecx]
	add	ecx, edx
	mov	edx, 4
	imul	eax, edx, 3
	mov	DWORD PTR _pred_ptrs$[ebp+eax], ecx
	mov	DWORD PTR _x$2[ebp], 0
	jmp	SHORT $LN19@satd_any_s
$LN17@satd_any_s:
	mov	eax, DWORD PTR _x$2[ebp]
	add	eax, 8
	mov	DWORD PTR _x$2[ebp], eax
$LN19@satd_any_s:
	mov	eax, DWORD PTR _x$2[ebp]
	cmp	eax, DWORD PTR _width$[ebp]
	jge	$LN18@satd_any_s
	lea	eax, DWORD PTR _sums$[ebp]
	push	eax
	mov	ecx, DWORD PTR _orig_stride$[ebp]
	push	ecx
	mov	edx, DWORD PTR _orig_ptr$[ebp]
	push	edx
	mov	eax, DWORD PTR _stride$[ebp]
	push	eax
	lea	ecx, DWORD PTR _pred_ptrs$[ebp]
	push	ecx
	call	_satd_8x8_subblock_quad_avx2
	add	esp, 20					; 00000014H
	mov	eax, DWORD PTR _orig_ptr$[ebp]
	add	eax, 8
	mov	DWORD PTR _orig_ptr$[ebp], eax
	mov	eax, 4
	imul	ecx, eax, 0
	mov	edx, DWORD PTR _pred_ptrs$[ebp+ecx]
	add	edx, 8
	mov	eax, 4
	imul	ecx, eax, 0
	mov	DWORD PTR _pred_ptrs$[ebp+ecx], edx
	mov	eax, 4
	shl	eax, 0
	mov	ecx, DWORD PTR _pred_ptrs$[ebp+eax]
	add	ecx, 8
	mov	edx, 4
	shl	edx, 0
	mov	DWORD PTR _pred_ptrs$[ebp+edx], ecx
	mov	eax, 4
	shl	eax, 1
	mov	ecx, DWORD PTR _pred_ptrs$[ebp+eax]
	add	ecx, 8
	mov	edx, 4
	shl	edx, 1
	mov	DWORD PTR _pred_ptrs$[ebp+edx], ecx
	mov	eax, 4
	imul	ecx, eax, 3
	mov	edx, DWORD PTR _pred_ptrs$[ebp+ecx]
	add	edx, 8
	mov	eax, 4
	imul	ecx, eax, 3
	mov	DWORD PTR _pred_ptrs$[ebp+ecx], edx
	mov	eax, 4
	imul	ecx, eax, 0
	mov	edx, 4
	imul	eax, edx, 0
	mov	edx, DWORD PTR _costs_out$[ebp]
	mov	ecx, DWORD PTR [edx+ecx]
	add	ecx, DWORD PTR _sums$[ebp+eax]
	mov	edx, 4
	imul	eax, edx, 0
	mov	edx, DWORD PTR _costs_out$[ebp]
	mov	DWORD PTR [edx+eax], ecx
	mov	eax, 4
	shl	eax, 0
	mov	ecx, 4
	shl	ecx, 0
	mov	edx, DWORD PTR _costs_out$[ebp]
	mov	eax, DWORD PTR [edx+eax]
	add	eax, DWORD PTR _sums$[ebp+ecx]
	mov	ecx, 4
	shl	ecx, 0
	mov	edx, DWORD PTR _costs_out$[ebp]
	mov	DWORD PTR [edx+ecx], eax
	mov	eax, 4
	shl	eax, 1
	mov	ecx, 4
	shl	ecx, 1
	mov	edx, DWORD PTR _costs_out$[ebp]
	mov	eax, DWORD PTR [edx+eax]
	add	eax, DWORD PTR _sums$[ebp+ecx]
	mov	ecx, 4
	shl	ecx, 1
	mov	edx, DWORD PTR _costs_out$[ebp]
	mov	DWORD PTR [edx+ecx], eax
	mov	eax, 4
	imul	ecx, eax, 3
	mov	edx, 4
	imul	eax, edx, 3
	mov	edx, DWORD PTR _costs_out$[ebp]
	mov	ecx, DWORD PTR [edx+ecx]
	add	ecx, DWORD PTR _sums$[ebp+eax]
	mov	edx, 4
	imul	eax, edx, 3
	mov	edx, DWORD PTR _costs_out$[ebp]
	mov	DWORD PTR [edx+eax], ecx
	jmp	$LN17@satd_any_s
$LN18@satd_any_s:
	jmp	$LN14@satd_any_s
$LN15@satd_any_s:
	mov	DWORD PTR _i$1[ebp], 0
	jmp	SHORT $LN22@satd_any_s
$LN20@satd_any_s:
	mov	eax, DWORD PTR _i$1[ebp]
	add	eax, 1
	mov	DWORD PTR _i$1[ebp], eax
$LN22@satd_any_s:
	cmp	DWORD PTR _i$1[ebp], 4
	jge	SHORT $LN1@satd_any_s
	mov	eax, DWORD PTR _i$1[ebp]
	mov	ecx, DWORD PTR _costs_out$[ebp]
	mov	edx, DWORD PTR _i$1[ebp]
	mov	esi, DWORD PTR _costs_out$[ebp]
	mov	edx, DWORD PTR [esi+edx*4]
	mov	DWORD PTR [ecx+eax*4], edx
	jmp	SHORT $LN20@satd_any_s
$LN1@satd_any_s:
	push	edx
	mov	ecx, ebp
	push	eax
	lea	edx, DWORD PTR $LN29@satd_any_s
	call	@_RTC_CheckStackVars@8
	pop	eax
	pop	edx
	pop	edi
	pop	esi
	pop	ebx
	mov	ecx, DWORD PTR __$ArrayPad$[ebp]
	xor	ecx, ebp
	call	@__security_check_cookie@4
	add	esp, 340				; 00000154H
	cmp	ebp, esp
	call	__RTC_CheckEsp
	mov	esp, ebp
	pop	ebp
	ret	0
$LN29@satd_any_s:
	DD	2
	DD	$LN28@satd_any_s
$LN28@satd_any_s:
	DD	-24					; ffffffe8H
	DD	16					; 00000010H
	DD	$LN26@satd_any_s
	DD	-48					; ffffffd0H
	DD	16					; 00000010H
	DD	$LN27@satd_any_s
$LN27@satd_any_s:
	DB	112					; 00000070H
	DB	114					; 00000072H
	DB	101					; 00000065H
	DB	100					; 00000064H
	DB	95					; 0000005fH
	DB	112					; 00000070H
	DB	116					; 00000074H
	DB	114					; 00000072H
	DB	115					; 00000073H
	DB	0
$LN26@satd_any_s:
	DB	115					; 00000073H
	DB	117					; 00000075H
	DB	109					; 0000006dH
	DB	115					; 00000073H
	DB	0
_satd_any_size_quad_avx2 ENDP
_TEXT	ENDS
; Function compile flags: /Odtp /RTCsu /ZI
; File F:\open_codec_learn_2021\kvazaar-master\src\strategies\avx2\picture-avx2.c
;	COMDAT _satd_8bit_64x64_dual_avx2
_TEXT	SEGMENT
_row$1 = -56						; size = 4
_sum2$ = -44						; size = 4
_sum1$ = -32						; size = 4
_y$ = -20						; size = 4
_x$ = -8						; size = 4
_preds$ = 8						; size = 4
_orig$ = 12						; size = 4
_num_modes$ = 16					; size = 4
_satds_out$ = 20					; size = 4
_satd_8bit_64x64_dual_avx2 PROC				; COMDAT

; 628  : SATD_NXN_DUAL_AVX2(64)

	push	ebp
	mov	ebp, esp
	sub	esp, 252				; 000000fcH
	push	ebx
	push	esi
	push	edi
	lea	edi, DWORD PTR [ebp-252]
	mov	ecx, 63					; 0000003fH
	mov	eax, -858993460				; ccccccccH
	rep stosd
	mov	ecx, OFFSET __5DE43F84_picture-avx2@c
	call	@__CheckForDebuggerJustMyCode@4
	mov	eax, 4
	imul	ecx, eax, 0
	mov	edx, DWORD PTR _satds_out$[ebp]
	mov	DWORD PTR [edx+ecx], 0
	mov	eax, 4
	shl	eax, 0
	mov	ecx, DWORD PTR _satds_out$[ebp]
	mov	DWORD PTR [ecx+eax], 0
	mov	DWORD PTR _sum1$[ebp], 0
	mov	DWORD PTR _sum2$[ebp], 0
	mov	DWORD PTR _y$[ebp], 0
	jmp	SHORT $LN4@satd_8bit_
$LN2@satd_8bit_:
	mov	eax, DWORD PTR _y$[ebp]
	add	eax, 8
	mov	DWORD PTR _y$[ebp], eax
$LN4@satd_8bit_:
	cmp	DWORD PTR _y$[ebp], 64			; 00000040H
	jae	$LN3@satd_8bit_
	mov	eax, DWORD PTR _y$[ebp]
	shl	eax, 6
	mov	DWORD PTR _row$1[ebp], eax
	mov	DWORD PTR _x$[ebp], 0
	jmp	SHORT $LN7@satd_8bit_
$LN5@satd_8bit_:
	mov	eax, DWORD PTR _x$[ebp]
	add	eax, 8
	mov	DWORD PTR _x$[ebp], eax
$LN7@satd_8bit_:
	cmp	DWORD PTR _x$[ebp], 64			; 00000040H
	jae	$LN6@satd_8bit_
	lea	eax, DWORD PTR _sum2$[ebp]
	push	eax
	lea	ecx, DWORD PTR _sum1$[ebp]
	push	ecx
	push	64					; 00000040H
	mov	edx, DWORD PTR _row$1[ebp]
	add	edx, DWORD PTR _x$[ebp]
	add	edx, DWORD PTR _orig$[ebp]
	push	edx
	push	64					; 00000040H
	mov	eax, 1024				; 00000400H
	shl	eax, 0
	add	eax, DWORD PTR _preds$[ebp]
	mov	ecx, DWORD PTR _row$1[ebp]
	add	ecx, DWORD PTR _x$[ebp]
	add	eax, ecx
	push	eax
	push	64					; 00000040H
	mov	edx, 1024				; 00000400H
	imul	eax, edx, 0
	add	eax, DWORD PTR _preds$[ebp]
	mov	ecx, DWORD PTR _row$1[ebp]
	add	ecx, DWORD PTR _x$[ebp]
	add	eax, ecx
	push	eax
	call	_kvz_satd_8bit_8x8_general_dual_avx2
	add	esp, 32					; 00000020H
	mov	eax, 4
	imul	ecx, eax, 0
	mov	edx, DWORD PTR _satds_out$[ebp]
	mov	eax, DWORD PTR [edx+ecx]
	add	eax, DWORD PTR _sum1$[ebp]
	mov	ecx, 4
	imul	edx, ecx, 0
	mov	ecx, DWORD PTR _satds_out$[ebp]
	mov	DWORD PTR [ecx+edx], eax
	mov	eax, 4
	shl	eax, 0
	mov	ecx, DWORD PTR _satds_out$[ebp]
	mov	edx, DWORD PTR [ecx+eax]
	add	edx, DWORD PTR _sum2$[ebp]
	mov	eax, 4
	shl	eax, 0
	mov	ecx, DWORD PTR _satds_out$[ebp]
	mov	DWORD PTR [ecx+eax], edx
	jmp	$LN5@satd_8bit_
$LN6@satd_8bit_:
	jmp	$LN2@satd_8bit_
$LN3@satd_8bit_:
	mov	eax, 4
	imul	ecx, eax, 0
	mov	edx, 4
	imul	eax, edx, 0
	mov	edx, DWORD PTR _satds_out$[ebp]
	mov	esi, DWORD PTR _satds_out$[ebp]
	mov	ecx, DWORD PTR [esi+ecx]
	mov	DWORD PTR [edx+eax], ecx
	mov	eax, 4
	shl	eax, 0
	mov	ecx, 4
	shl	ecx, 0
	mov	edx, DWORD PTR _satds_out$[ebp]
	mov	esi, DWORD PTR _satds_out$[ebp]
	mov	eax, DWORD PTR [esi+eax]
	mov	DWORD PTR [edx+ecx], eax
	push	edx
	mov	ecx, ebp
	push	eax
	lea	edx, DWORD PTR $LN12@satd_8bit_
	call	@_RTC_CheckStackVars@8
	pop	eax
	pop	edx
	pop	edi
	pop	esi
	pop	ebx
	add	esp, 252				; 000000fcH
	cmp	ebp, esp
	call	__RTC_CheckEsp
	mov	esp, ebp
	pop	ebp
	ret	0
$LN12@satd_8bit_:
	DD	2
	DD	$LN11@satd_8bit_
$LN11@satd_8bit_:
	DD	-32					; ffffffe0H
	DD	4
	DD	$LN9@satd_8bit_
	DD	-44					; ffffffd4H
	DD	4
	DD	$LN10@satd_8bit_
$LN10@satd_8bit_:
	DB	115					; 00000073H
	DB	117					; 00000075H
	DB	109					; 0000006dH
	DB	50					; 00000032H
	DB	0
$LN9@satd_8bit_:
	DB	115					; 00000073H
	DB	117					; 00000075H
	DB	109					; 0000006dH
	DB	49					; 00000031H
	DB	0
_satd_8bit_64x64_dual_avx2 ENDP
_TEXT	ENDS
; Function compile flags: /Odtp /RTCsu /ZI
; File F:\open_codec_learn_2021\kvazaar-master\src\strategies\avx2\picture-avx2.c
;	COMDAT _satd_8bit_32x32_dual_avx2
_TEXT	SEGMENT
_row$1 = -56						; size = 4
_sum2$ = -44						; size = 4
_sum1$ = -32						; size = 4
_y$ = -20						; size = 4
_x$ = -8						; size = 4
_preds$ = 8						; size = 4
_orig$ = 12						; size = 4
_num_modes$ = 16					; size = 4
_satds_out$ = 20					; size = 4
_satd_8bit_32x32_dual_avx2 PROC				; COMDAT

; 627  : SATD_NXN_DUAL_AVX2(32)

	push	ebp
	mov	ebp, esp
	sub	esp, 252				; 000000fcH
	push	ebx
	push	esi
	push	edi
	lea	edi, DWORD PTR [ebp-252]
	mov	ecx, 63					; 0000003fH
	mov	eax, -858993460				; ccccccccH
	rep stosd
	mov	ecx, OFFSET __5DE43F84_picture-avx2@c
	call	@__CheckForDebuggerJustMyCode@4
	mov	eax, 4
	imul	ecx, eax, 0
	mov	edx, DWORD PTR _satds_out$[ebp]
	mov	DWORD PTR [edx+ecx], 0
	mov	eax, 4
	shl	eax, 0
	mov	ecx, DWORD PTR _satds_out$[ebp]
	mov	DWORD PTR [ecx+eax], 0
	mov	DWORD PTR _sum1$[ebp], 0
	mov	DWORD PTR _sum2$[ebp], 0
	mov	DWORD PTR _y$[ebp], 0
	jmp	SHORT $LN4@satd_8bit_
$LN2@satd_8bit_:
	mov	eax, DWORD PTR _y$[ebp]
	add	eax, 8
	mov	DWORD PTR _y$[ebp], eax
$LN4@satd_8bit_:
	cmp	DWORD PTR _y$[ebp], 32			; 00000020H
	jae	$LN3@satd_8bit_
	mov	eax, DWORD PTR _y$[ebp]
	shl	eax, 5
	mov	DWORD PTR _row$1[ebp], eax
	mov	DWORD PTR _x$[ebp], 0
	jmp	SHORT $LN7@satd_8bit_
$LN5@satd_8bit_:
	mov	eax, DWORD PTR _x$[ebp]
	add	eax, 8
	mov	DWORD PTR _x$[ebp], eax
$LN7@satd_8bit_:
	cmp	DWORD PTR _x$[ebp], 32			; 00000020H
	jae	$LN6@satd_8bit_
	lea	eax, DWORD PTR _sum2$[ebp]
	push	eax
	lea	ecx, DWORD PTR _sum1$[ebp]
	push	ecx
	push	32					; 00000020H
	mov	edx, DWORD PTR _row$1[ebp]
	add	edx, DWORD PTR _x$[ebp]
	add	edx, DWORD PTR _orig$[ebp]
	push	edx
	push	32					; 00000020H
	mov	eax, 1024				; 00000400H
	shl	eax, 0
	add	eax, DWORD PTR _preds$[ebp]
	mov	ecx, DWORD PTR _row$1[ebp]
	add	ecx, DWORD PTR _x$[ebp]
	add	eax, ecx
	push	eax
	push	32					; 00000020H
	mov	edx, 1024				; 00000400H
	imul	eax, edx, 0
	add	eax, DWORD PTR _preds$[ebp]
	mov	ecx, DWORD PTR _row$1[ebp]
	add	ecx, DWORD PTR _x$[ebp]
	add	eax, ecx
	push	eax
	call	_kvz_satd_8bit_8x8_general_dual_avx2
	add	esp, 32					; 00000020H
	mov	eax, 4
	imul	ecx, eax, 0
	mov	edx, DWORD PTR _satds_out$[ebp]
	mov	eax, DWORD PTR [edx+ecx]
	add	eax, DWORD PTR _sum1$[ebp]
	mov	ecx, 4
	imul	edx, ecx, 0
	mov	ecx, DWORD PTR _satds_out$[ebp]
	mov	DWORD PTR [ecx+edx], eax
	mov	eax, 4
	shl	eax, 0
	mov	ecx, DWORD PTR _satds_out$[ebp]
	mov	edx, DWORD PTR [ecx+eax]
	add	edx, DWORD PTR _sum2$[ebp]
	mov	eax, 4
	shl	eax, 0
	mov	ecx, DWORD PTR _satds_out$[ebp]
	mov	DWORD PTR [ecx+eax], edx
	jmp	$LN5@satd_8bit_
$LN6@satd_8bit_:
	jmp	$LN2@satd_8bit_
$LN3@satd_8bit_:
	mov	eax, 4
	imul	ecx, eax, 0
	mov	edx, 4
	imul	eax, edx, 0
	mov	edx, DWORD PTR _satds_out$[ebp]
	mov	esi, DWORD PTR _satds_out$[ebp]
	mov	ecx, DWORD PTR [esi+ecx]
	mov	DWORD PTR [edx+eax], ecx
	mov	eax, 4
	shl	eax, 0
	mov	ecx, 4
	shl	ecx, 0
	mov	edx, DWORD PTR _satds_out$[ebp]
	mov	esi, DWORD PTR _satds_out$[ebp]
	mov	eax, DWORD PTR [esi+eax]
	mov	DWORD PTR [edx+ecx], eax
	push	edx
	mov	ecx, ebp
	push	eax
	lea	edx, DWORD PTR $LN12@satd_8bit_
	call	@_RTC_CheckStackVars@8
	pop	eax
	pop	edx
	pop	edi
	pop	esi
	pop	ebx
	add	esp, 252				; 000000fcH
	cmp	ebp, esp
	call	__RTC_CheckEsp
	mov	esp, ebp
	pop	ebp
	ret	0
$LN12@satd_8bit_:
	DD	2
	DD	$LN11@satd_8bit_
$LN11@satd_8bit_:
	DD	-32					; ffffffe0H
	DD	4
	DD	$LN9@satd_8bit_
	DD	-44					; ffffffd4H
	DD	4
	DD	$LN10@satd_8bit_
$LN10@satd_8bit_:
	DB	115					; 00000073H
	DB	117					; 00000075H
	DB	109					; 0000006dH
	DB	50					; 00000032H
	DB	0
$LN9@satd_8bit_:
	DB	115					; 00000073H
	DB	117					; 00000075H
	DB	109					; 0000006dH
	DB	49					; 00000031H
	DB	0
_satd_8bit_32x32_dual_avx2 ENDP
_TEXT	ENDS
; Function compile flags: /Odtp /RTCsu /ZI
; File F:\open_codec_learn_2021\kvazaar-master\src\strategies\avx2\picture-avx2.c
;	COMDAT _satd_8bit_16x16_dual_avx2
_TEXT	SEGMENT
_row$1 = -56						; size = 4
_sum2$ = -44						; size = 4
_sum1$ = -32						; size = 4
_y$ = -20						; size = 4
_x$ = -8						; size = 4
_preds$ = 8						; size = 4
_orig$ = 12						; size = 4
_num_modes$ = 16					; size = 4
_satds_out$ = 20					; size = 4
_satd_8bit_16x16_dual_avx2 PROC				; COMDAT

; 626  : SATD_NXN_DUAL_AVX2(16)

	push	ebp
	mov	ebp, esp
	sub	esp, 252				; 000000fcH
	push	ebx
	push	esi
	push	edi
	lea	edi, DWORD PTR [ebp-252]
	mov	ecx, 63					; 0000003fH
	mov	eax, -858993460				; ccccccccH
	rep stosd
	mov	ecx, OFFSET __5DE43F84_picture-avx2@c
	call	@__CheckForDebuggerJustMyCode@4
	mov	eax, 4
	imul	ecx, eax, 0
	mov	edx, DWORD PTR _satds_out$[ebp]
	mov	DWORD PTR [edx+ecx], 0
	mov	eax, 4
	shl	eax, 0
	mov	ecx, DWORD PTR _satds_out$[ebp]
	mov	DWORD PTR [ecx+eax], 0
	mov	DWORD PTR _sum1$[ebp], 0
	mov	DWORD PTR _sum2$[ebp], 0
	mov	DWORD PTR _y$[ebp], 0
	jmp	SHORT $LN4@satd_8bit_
$LN2@satd_8bit_:
	mov	eax, DWORD PTR _y$[ebp]
	add	eax, 8
	mov	DWORD PTR _y$[ebp], eax
$LN4@satd_8bit_:
	cmp	DWORD PTR _y$[ebp], 16			; 00000010H
	jae	$LN3@satd_8bit_
	mov	eax, DWORD PTR _y$[ebp]
	shl	eax, 4
	mov	DWORD PTR _row$1[ebp], eax
	mov	DWORD PTR _x$[ebp], 0
	jmp	SHORT $LN7@satd_8bit_
$LN5@satd_8bit_:
	mov	eax, DWORD PTR _x$[ebp]
	add	eax, 8
	mov	DWORD PTR _x$[ebp], eax
$LN7@satd_8bit_:
	cmp	DWORD PTR _x$[ebp], 16			; 00000010H
	jae	$LN6@satd_8bit_
	lea	eax, DWORD PTR _sum2$[ebp]
	push	eax
	lea	ecx, DWORD PTR _sum1$[ebp]
	push	ecx
	push	16					; 00000010H
	mov	edx, DWORD PTR _row$1[ebp]
	add	edx, DWORD PTR _x$[ebp]
	add	edx, DWORD PTR _orig$[ebp]
	push	edx
	push	16					; 00000010H
	mov	eax, 1024				; 00000400H
	shl	eax, 0
	add	eax, DWORD PTR _preds$[ebp]
	mov	ecx, DWORD PTR _row$1[ebp]
	add	ecx, DWORD PTR _x$[ebp]
	add	eax, ecx
	push	eax
	push	16					; 00000010H
	mov	edx, 1024				; 00000400H
	imul	eax, edx, 0
	add	eax, DWORD PTR _preds$[ebp]
	mov	ecx, DWORD PTR _row$1[ebp]
	add	ecx, DWORD PTR _x$[ebp]
	add	eax, ecx
	push	eax
	call	_kvz_satd_8bit_8x8_general_dual_avx2
	add	esp, 32					; 00000020H
	mov	eax, 4
	imul	ecx, eax, 0
	mov	edx, DWORD PTR _satds_out$[ebp]
	mov	eax, DWORD PTR [edx+ecx]
	add	eax, DWORD PTR _sum1$[ebp]
	mov	ecx, 4
	imul	edx, ecx, 0
	mov	ecx, DWORD PTR _satds_out$[ebp]
	mov	DWORD PTR [ecx+edx], eax
	mov	eax, 4
	shl	eax, 0
	mov	ecx, DWORD PTR _satds_out$[ebp]
	mov	edx, DWORD PTR [ecx+eax]
	add	edx, DWORD PTR _sum2$[ebp]
	mov	eax, 4
	shl	eax, 0
	mov	ecx, DWORD PTR _satds_out$[ebp]
	mov	DWORD PTR [ecx+eax], edx
	jmp	$LN5@satd_8bit_
$LN6@satd_8bit_:
	jmp	$LN2@satd_8bit_
$LN3@satd_8bit_:
	mov	eax, 4
	imul	ecx, eax, 0
	mov	edx, 4
	imul	eax, edx, 0
	mov	edx, DWORD PTR _satds_out$[ebp]
	mov	esi, DWORD PTR _satds_out$[ebp]
	mov	ecx, DWORD PTR [esi+ecx]
	mov	DWORD PTR [edx+eax], ecx
	mov	eax, 4
	shl	eax, 0
	mov	ecx, 4
	shl	ecx, 0
	mov	edx, DWORD PTR _satds_out$[ebp]
	mov	esi, DWORD PTR _satds_out$[ebp]
	mov	eax, DWORD PTR [esi+eax]
	mov	DWORD PTR [edx+ecx], eax
	push	edx
	mov	ecx, ebp
	push	eax
	lea	edx, DWORD PTR $LN12@satd_8bit_
	call	@_RTC_CheckStackVars@8
	pop	eax
	pop	edx
	pop	edi
	pop	esi
	pop	ebx
	add	esp, 252				; 000000fcH
	cmp	ebp, esp
	call	__RTC_CheckEsp
	mov	esp, ebp
	pop	ebp
	ret	0
$LN12@satd_8bit_:
	DD	2
	DD	$LN11@satd_8bit_
$LN11@satd_8bit_:
	DD	-32					; ffffffe0H
	DD	4
	DD	$LN9@satd_8bit_
	DD	-44					; ffffffd4H
	DD	4
	DD	$LN10@satd_8bit_
$LN10@satd_8bit_:
	DB	115					; 00000073H
	DB	117					; 00000075H
	DB	109					; 0000006dH
	DB	50					; 00000032H
	DB	0
$LN9@satd_8bit_:
	DB	115					; 00000073H
	DB	117					; 00000075H
	DB	109					; 0000006dH
	DB	49					; 00000031H
	DB	0
_satd_8bit_16x16_dual_avx2 ENDP
_TEXT	ENDS
; Function compile flags: /Odtp /RTCsu /ZI
; File F:\open_codec_learn_2021\kvazaar-master\src\strategies\avx2\picture-avx2.c
;	COMDAT _satd_8bit_8x8_dual_avx2
_TEXT	SEGMENT
_row$1 = -56						; size = 4
_sum2$ = -44						; size = 4
_sum1$ = -32						; size = 4
_y$ = -20						; size = 4
_x$ = -8						; size = 4
_preds$ = 8						; size = 4
_orig$ = 12						; size = 4
_num_modes$ = 16					; size = 4
_satds_out$ = 20					; size = 4
_satd_8bit_8x8_dual_avx2 PROC				; COMDAT

; 607  : { 

	push	ebp
	mov	ebp, esp
	sub	esp, 252				; 000000fcH
	push	ebx
	push	esi
	push	edi
	lea	edi, DWORD PTR [ebp-252]
	mov	ecx, 63					; 0000003fH
	mov	eax, -858993460				; ccccccccH
	rep stosd
	mov	ecx, OFFSET __5DE43F84_picture-avx2@c
	call	@__CheckForDebuggerJustMyCode@4

; 608  :   unsigned x, y; 
; 609  :   satds_out[0] = 0;

	mov	eax, 4
	imul	ecx, eax, 0
	mov	edx, DWORD PTR _satds_out$[ebp]
	mov	DWORD PTR [edx+ecx], 0

; 610  :   satds_out[1] = 0;

	mov	eax, 4
	shl	eax, 0
	mov	ecx, DWORD PTR _satds_out$[ebp]
	mov	DWORD PTR [ecx+eax], 0

; 611  :   unsigned sum1 = 0;

	mov	DWORD PTR _sum1$[ebp], 0

; 612  :   unsigned sum2 = 0;

	mov	DWORD PTR _sum2$[ebp], 0

; 613  :   for (y = 0; y < (8); y += 8) { 

	mov	DWORD PTR _y$[ebp], 0
	jmp	SHORT $LN4@satd_8bit_
$LN2@satd_8bit_:
	mov	eax, DWORD PTR _y$[ebp]
	add	eax, 8
	mov	DWORD PTR _y$[ebp], eax
$LN4@satd_8bit_:
	cmp	DWORD PTR _y$[ebp], 8
	jae	$LN3@satd_8bit_

; 614  :   unsigned row = y * (8); 

	mov	eax, DWORD PTR _y$[ebp]
	shl	eax, 3
	mov	DWORD PTR _row$1[ebp], eax

; 615  :   for (x = 0; x < (8); x += 8) { 

	mov	DWORD PTR _x$[ebp], 0
	jmp	SHORT $LN7@satd_8bit_
$LN5@satd_8bit_:
	mov	eax, DWORD PTR _x$[ebp]
	add	eax, 8
	mov	DWORD PTR _x$[ebp], eax
$LN7@satd_8bit_:
	cmp	DWORD PTR _x$[ebp], 8
	jae	$LN6@satd_8bit_

; 616  :   kvz_satd_8bit_8x8_general_dual_avx2(&preds[0][row + x], (8), &preds[1][row + x], (8), &orig[row + x], (8), &sum1, &sum2); 

	lea	eax, DWORD PTR _sum2$[ebp]
	push	eax
	lea	ecx, DWORD PTR _sum1$[ebp]
	push	ecx
	push	8
	mov	edx, DWORD PTR _row$1[ebp]
	add	edx, DWORD PTR _x$[ebp]
	add	edx, DWORD PTR _orig$[ebp]
	push	edx
	push	8
	mov	eax, 1024				; 00000400H
	shl	eax, 0
	add	eax, DWORD PTR _preds$[ebp]
	mov	ecx, DWORD PTR _row$1[ebp]
	add	ecx, DWORD PTR _x$[ebp]
	add	eax, ecx
	push	eax
	push	8
	mov	edx, 1024				; 00000400H
	imul	eax, edx, 0
	add	eax, DWORD PTR _preds$[ebp]
	mov	ecx, DWORD PTR _row$1[ebp]
	add	ecx, DWORD PTR _x$[ebp]
	add	eax, ecx
	push	eax
	call	_kvz_satd_8bit_8x8_general_dual_avx2
	add	esp, 32					; 00000020H

; 617  :   satds_out[0] += sum1;

	mov	eax, 4
	imul	ecx, eax, 0
	mov	edx, DWORD PTR _satds_out$[ebp]
	mov	eax, DWORD PTR [edx+ecx]
	add	eax, DWORD PTR _sum1$[ebp]
	mov	ecx, 4
	imul	edx, ecx, 0
	mov	ecx, DWORD PTR _satds_out$[ebp]
	mov	DWORD PTR [ecx+edx], eax

; 618  :   satds_out[1] += sum2;

	mov	eax, 4
	shl	eax, 0
	mov	ecx, DWORD PTR _satds_out$[ebp]
	mov	edx, DWORD PTR [ecx+eax]
	add	edx, DWORD PTR _sum2$[ebp]
	mov	eax, 4
	shl	eax, 0
	mov	ecx, DWORD PTR _satds_out$[ebp]
	mov	DWORD PTR [ecx+eax], edx

; 619  :       } 

	jmp	$LN5@satd_8bit_
$LN6@satd_8bit_:

; 620  :       } 

	jmp	$LN2@satd_8bit_
$LN3@satd_8bit_:

; 621  :   satds_out[0] >>= (KVZ_BIT_DEPTH-8);

	mov	eax, 4
	imul	ecx, eax, 0
	mov	edx, 4
	imul	eax, edx, 0
	mov	edx, DWORD PTR _satds_out$[ebp]
	mov	esi, DWORD PTR _satds_out$[ebp]
	mov	ecx, DWORD PTR [esi+ecx]
	mov	DWORD PTR [edx+eax], ecx

; 622  :   satds_out[1] >>= (KVZ_BIT_DEPTH-8);

	mov	eax, 4
	shl	eax, 0
	mov	ecx, 4
	shl	ecx, 0
	mov	edx, DWORD PTR _satds_out$[ebp]
	mov	esi, DWORD PTR _satds_out$[ebp]
	mov	eax, DWORD PTR [esi+eax]
	mov	DWORD PTR [edx+ecx], eax

; 623  : }

	push	edx
	mov	ecx, ebp
	push	eax
	lea	edx, DWORD PTR $LN12@satd_8bit_
	call	@_RTC_CheckStackVars@8
	pop	eax
	pop	edx
	pop	edi
	pop	esi
	pop	ebx
	add	esp, 252				; 000000fcH
	cmp	ebp, esp
	call	__RTC_CheckEsp
	mov	esp, ebp
	pop	ebp
	ret	0
$LN12@satd_8bit_:
	DD	2
	DD	$LN11@satd_8bit_
$LN11@satd_8bit_:
	DD	-32					; ffffffe0H
	DD	4
	DD	$LN9@satd_8bit_
	DD	-44					; ffffffd4H
	DD	4
	DD	$LN10@satd_8bit_
$LN10@satd_8bit_:
	DB	115					; 00000073H
	DB	117					; 00000075H
	DB	109					; 0000006dH
	DB	50					; 00000032H
	DB	0
$LN9@satd_8bit_:
	DB	115					; 00000073H
	DB	117					; 00000075H
	DB	109					; 0000006dH
	DB	49					; 00000031H
	DB	0
_satd_8bit_8x8_dual_avx2 ENDP
_TEXT	ENDS
; Function compile flags: /Odtp /RTCsu /ZI
; File F:\open_codec_learn_2021\kvazaar-master\src\strategies\avx2\picture-avx2.c
;	COMDAT _satd_any_size_8bit_avx2
_TEXT	SEGMENT
_x$1 = -80						; size = 4
_row2$2 = -68						; size = 4
_row1$3 = -56						; size = 4
_y$4 = -44						; size = 4
_x$5 = -32						; size = 4
_y$6 = -20						; size = 4
_sum$ = -8						; size = 4
_width$ = 8						; size = 4
_height$ = 12						; size = 4
_block1$ = 16						; size = 4
_stride1$ = 20						; size = 4
_block2$ = 24						; size = 4
_stride2$ = 28						; size = 4
_satd_any_size_8bit_avx2 PROC				; COMDAT

; 579  : SATD_ANY_SIZE(8bit_avx2)

	push	ebp
	mov	ebp, esp
	sub	esp, 276				; 00000114H
	push	ebx
	push	esi
	push	edi
	lea	edi, DWORD PTR [ebp-276]
	mov	ecx, 69					; 00000045H
	mov	eax, -858993460				; ccccccccH
	rep stosd
	mov	ecx, OFFSET __5DE43F84_picture-avx2@c
	call	@__CheckForDebuggerJustMyCode@4
	mov	DWORD PTR _sum$[ebp], 0
	mov	eax, DWORD PTR _width$[ebp]
	and	eax, -2147483641			; 80000007H
	jns	SHORT $LN17@satd_any_s
	dec	eax
	or	eax, -8					; fffffff8H
	inc	eax
$LN17@satd_any_s:
	test	eax, eax
	je	SHORT $LN14@satd_any_s
	mov	DWORD PTR _y$6[ebp], 0
	jmp	SHORT $LN4@satd_any_s
$LN2@satd_any_s:
	mov	eax, DWORD PTR _y$6[ebp]
	add	eax, 4
	mov	DWORD PTR _y$6[ebp], eax
$LN4@satd_any_s:
	mov	eax, DWORD PTR _y$6[ebp]
	cmp	eax, DWORD PTR _height$[ebp]
	jge	SHORT $LN3@satd_any_s
	mov	eax, DWORD PTR _stride2$[ebp]
	push	eax
	mov	ecx, DWORD PTR _y$6[ebp]
	imul	ecx, DWORD PTR _stride2$[ebp]
	add	ecx, DWORD PTR _block2$[ebp]
	push	ecx
	mov	edx, DWORD PTR _stride1$[ebp]
	push	edx
	mov	eax, DWORD PTR _y$6[ebp]
	imul	eax, DWORD PTR _stride1$[ebp]
	add	eax, DWORD PTR _block1$[ebp]
	push	eax
	call	_kvz_satd_4x4_subblock_8bit_avx2
	add	esp, 16					; 00000010H
	add	eax, DWORD PTR _sum$[ebp]
	mov	DWORD PTR _sum$[ebp], eax
	jmp	SHORT $LN2@satd_any_s
$LN3@satd_any_s:
	mov	eax, DWORD PTR _block1$[ebp]
	add	eax, 4
	mov	DWORD PTR _block1$[ebp], eax
	mov	eax, DWORD PTR _block2$[ebp]
	add	eax, 4
	mov	DWORD PTR _block2$[ebp], eax
	mov	eax, DWORD PTR _width$[ebp]
	sub	eax, 4
	mov	DWORD PTR _width$[ebp], eax
$LN14@satd_any_s:
	mov	eax, DWORD PTR _height$[ebp]
	and	eax, -2147483641			; 80000007H
	jns	SHORT $LN18@satd_any_s
	dec	eax
	or	eax, -8					; fffffff8H
	inc	eax
$LN18@satd_any_s:
	test	eax, eax
	je	SHORT $LN15@satd_any_s
	mov	DWORD PTR _x$5[ebp], 0
	jmp	SHORT $LN7@satd_any_s
$LN5@satd_any_s:
	mov	eax, DWORD PTR _x$5[ebp]
	add	eax, 4
	mov	DWORD PTR _x$5[ebp], eax
$LN7@satd_any_s:
	mov	eax, DWORD PTR _x$5[ebp]
	cmp	eax, DWORD PTR _width$[ebp]
	jge	SHORT $LN6@satd_any_s
	mov	eax, DWORD PTR _stride2$[ebp]
	push	eax
	mov	ecx, DWORD PTR _block2$[ebp]
	add	ecx, DWORD PTR _x$5[ebp]
	push	ecx
	mov	edx, DWORD PTR _stride1$[ebp]
	push	edx
	mov	eax, DWORD PTR _block1$[ebp]
	add	eax, DWORD PTR _x$5[ebp]
	push	eax
	call	_kvz_satd_4x4_subblock_8bit_avx2
	add	esp, 16					; 00000010H
	add	eax, DWORD PTR _sum$[ebp]
	mov	DWORD PTR _sum$[ebp], eax
	jmp	SHORT $LN5@satd_any_s
$LN6@satd_any_s:
	mov	eax, DWORD PTR _stride1$[ebp]
	mov	ecx, DWORD PTR _block1$[ebp]
	lea	edx, DWORD PTR [ecx+eax*4]
	mov	DWORD PTR _block1$[ebp], edx
