; Listing generated by Microsoft (R) Optimizing Compiler Version 19.26.28806.0 

	TITLE	F:\open_codec_learn_2021\kvazaar-master\src\strategies\generic\sao-generic.c
	.686P
	.XMM
	include listing.inc
	.model	flat

INCLUDELIB MSVCRTD
INCLUDELIB OLDNAMES

PUBLIC	??_C@_0P@FIMIKDEG@array_checksum@		; `string'
PUBLIC	??_C@_09INHMEIKP@array_md5@			; `string'
PUBLIC	??_C@_07DDJKLCAH@reg_sad@			; `string'
PUBLIC	??_C@_07CCGEEBAL@sad_4x4@			; `string'
PUBLIC	??_C@_07MEAHLBLP@sad_8x8@			; `string'
PUBLIC	??_C@_09CIFGAEGF@sad_16x16@			; `string'
PUBLIC	??_C@_09PHPGBCME@sad_32x32@			; `string'
PUBLIC	??_C@_09HIOKBDLK@sad_64x64@			; `string'
PUBLIC	??_C@_08GDBJPAOD@satd_4x4@			; `string'
PUBLIC	??_C@_08IFHKAAFH@satd_8x8@			; `string'
PUBLIC	??_C@_0L@CJHLPOG@satd_16x16@			; `string'
PUBLIC	??_C@_0L@NNDHKJEH@satd_32x32@			; `string'
PUBLIC	??_C@_0L@FCCLKIDJ@satd_64x64@			; `string'
PUBLIC	??_C@_0O@FHJAMJMP@satd_any_size@		; `string'
PUBLIC	??_C@_0N@PBMCJFCI@sad_4x4_dual@			; `string'
PUBLIC	??_C@_0N@NAFGAMEI@sad_8x8_dual@			; `string'
PUBLIC	??_C@_0P@KGAKCNHP@sad_16x16_dual@		; `string'
PUBLIC	??_C@_0P@EBOHBHKK@sad_32x32_dual@		; `string'
PUBLIC	??_C@_0P@BGJOPAPB@sad_64x64_dual@		; `string'
PUBLIC	??_C@_0O@PJODLFIO@satd_4x4_dual@		; `string'
PUBLIC	??_C@_0O@NIHHCMOO@satd_8x8_dual@		; `string'
PUBLIC	??_C@_0BA@GFDJBOPJ@satd_16x16_dual@		; `string'
PUBLIC	??_C@_0BA@ICNECECM@satd_32x32_dual@		; `string'
PUBLIC	??_C@_0BA@NFKNMDHH@satd_64x64_dual@		; `string'
PUBLIC	??_C@_0BD@EFOGIBKC@satd_any_size_quad@		; `string'
PUBLIC	??_C@_0BA@BPDFDAFM@pixels_calc_ssd@		; `string'
PUBLIC	??_C@_0P@FIKELBGI@bipred_average@		; `string'
PUBLIC	??_C@_0BC@IMILIHON@get_optimized_sad@		; `string'
PUBLIC	??_C@_07OEMLCPNF@ver_sad@			; `string'
PUBLIC	??_C@_07CJIKFDIC@hor_sad@			; `string'
PUBLIC	??_C@_09GDPKBOJB@pixel_var@			; `string'
PUBLIC	??_C@_0BF@BJKPGPEP@fast_forward_dst_4x4@	; `string'
PUBLIC	??_C@_07MAFDGKIL@dct_4x4@			; `string'
PUBLIC	??_C@_07CGDAJKDP@dct_8x8@			; `string'
PUBLIC	??_C@_09LPGJIHFJ@dct_16x16@			; `string'
PUBLIC	??_C@_09GAMJJBPI@dct_32x32@			; `string'
PUBLIC	??_C@_0BF@LGIDMEOF@fast_inverse_dst_4x4@	; `string'
PUBLIC	??_C@_08LDLIJGLD@idct_4x4@			; `string'
PUBLIC	??_C@_08FFNLGGAH@idct_8x8@			; `string'
PUBLIC	??_C@_0L@BMPNPGHO@idct_16x16@			; `string'
PUBLIC	??_C@_0L@MDFNOANP@idct_32x32@			; `string'
PUBLIC	??_C@_0CA@KBMGLOML@filter_hpel_blocks_hor_ver_luma@ ; `string'
PUBLIC	??_C@_0BN@LGIFMJCD@filter_hpel_blocks_diag_luma@ ; `string'
PUBLIC	??_C@_0CA@HAFBJKBM@filter_qpel_blocks_hor_ver_luma@ ; `string'
PUBLIC	??_C@_0BN@LBBJMBKC@filter_qpel_blocks_diag_luma@ ; `string'
PUBLIC	??_C@_0BH@DGLFPIPB@sample_quarterpel_luma@	; `string'
PUBLIC	??_C@_0BF@HOLGGLNK@sample_octpel_chroma@	; `string'
PUBLIC	??_C@_0BK@LCPNGAOF@sample_quarterpel_luma_hi@	; `string'
PUBLIC	??_C@_0BI@EFIAEBMP@sample_octpel_chroma_hi@	; `string'
PUBLIC	??_C@_0BD@MPANGNDO@get_extended_block@		; `string'
PUBLIC	??_C@_05DFPBCFDJ@quant@				; `string'
PUBLIC	??_C@_0BC@MPMPMGJB@quantize_residual@		; `string'
PUBLIC	??_C@_07GMDOJGPA@dequant@			; `string'
PUBLIC	??_C@_0O@ECIHPEON@coeff_abs_sum@		; `string'
PUBLIC	??_C@_0BA@HMNKAKOO@fast_coeff_cost@		; `string'
PUBLIC	??_C@_0N@NMFCEONC@angular_pred@			; `string'
PUBLIC	??_C@_0BC@KPOCLILL@intra_pred_planar@		; `string'
PUBLIC	??_C@_0BH@EAOLFJGL@intra_pred_filtered_dc@	; `string'
PUBLIC	??_C@_0BF@LGILOHOJ@sao_edge_ddistortion@	; `string'
PUBLIC	??_C@_0BC@OCNKGNNI@calc_sao_edge_dir@		; `string'
PUBLIC	??_C@_0BG@IJPOOFFG@sao_reconstruct_color@	; `string'
PUBLIC	??_C@_0BF@HDNLAKN@sao_band_ddistortion@		; `string'
PUBLIC	??_C@_0BB@GDIDDFDB@encode_coeff_nxn@		; `string'
EXTRN	_kvz_array_checksum:DWORD
EXTRN	_kvz_array_md5:DWORD
EXTRN	_kvz_reg_sad:DWORD
EXTRN	_kvz_sad_4x4:DWORD
EXTRN	_kvz_sad_8x8:DWORD
EXTRN	_kvz_sad_16x16:DWORD
EXTRN	_kvz_sad_32x32:DWORD
EXTRN	_kvz_sad_64x64:DWORD
EXTRN	_kvz_satd_4x4:DWORD
EXTRN	_kvz_satd_8x8:DWORD
EXTRN	_kvz_satd_16x16:DWORD
EXTRN	_kvz_satd_32x32:DWORD
EXTRN	_kvz_satd_64x64:DWORD
EXTRN	_kvz_satd_any_size:DWORD
EXTRN	_kvz_sad_4x4_dual:DWORD
EXTRN	_kvz_sad_8x8_dual:DWORD
EXTRN	_kvz_sad_16x16_dual:DWORD
EXTRN	_kvz_sad_32x32_dual:DWORD
EXTRN	_kvz_sad_64x64_dual:DWORD
EXTRN	_kvz_satd_4x4_dual:DWORD
EXTRN	_kvz_satd_8x8_dual:DWORD
EXTRN	_kvz_satd_16x16_dual:DWORD
EXTRN	_kvz_satd_32x32_dual:DWORD
EXTRN	_kvz_satd_64x64_dual:DWORD
EXTRN	_kvz_satd_any_size_quad:DWORD
EXTRN	_kvz_pixels_calc_ssd:DWORD
EXTRN	_kvz_bipred_average:DWORD
EXTRN	_kvz_get_optimized_sad:DWORD
EXTRN	_kvz_ver_sad:DWORD
EXTRN	_kvz_hor_sad:DWORD
EXTRN	_kvz_pixel_var:DWORD
EXTRN	_kvz_fast_forward_dst_4x4:DWORD
EXTRN	_kvz_dct_4x4:DWORD
EXTRN	_kvz_dct_8x8:DWORD
EXTRN	_kvz_dct_16x16:DWORD
EXTRN	_kvz_dct_32x32:DWORD
EXTRN	_kvz_fast_inverse_dst_4x4:DWORD
EXTRN	_kvz_idct_4x4:DWORD
EXTRN	_kvz_idct_8x8:DWORD
EXTRN	_kvz_idct_16x16:DWORD
EXTRN	_kvz_idct_32x32:DWORD
EXTRN	_kvz_filter_hpel_blocks_hor_ver_luma:DWORD
EXTRN	_kvz_filter_hpel_blocks_diag_luma:DWORD
EXTRN	_kvz_filter_qpel_blocks_hor_ver_luma:DWORD
EXTRN	_kvz_filter_qpel_blocks_diag_luma:DWORD
EXTRN	_kvz_get_extended_block:DWORD
EXTRN	_kvz_sample_quarterpel_luma:DWORD
EXTRN	_kvz_sample_octpel_chroma:DWORD
EXTRN	_kvz_sample_quarterpel_luma_hi:DWORD
EXTRN	_kvz_sample_octpel_chroma_hi:DWORD
EXTRN	_kvz_quant:DWORD
EXTRN	_kvz_quantize_residual:DWORD
EXTRN	_kvz_dequant:DWORD
EXTRN	_kvz_coeff_abs_sum:DWORD
EXTRN	_kvz_fast_coeff_cost:DWORD
EXTRN	_kvz_angular_pred:DWORD
EXTRN	_kvz_intra_pred_planar:DWORD
EXTRN	_kvz_intra_pred_filtered_dc:DWORD
EXTRN	_kvz_sao_edge_ddistortion:DWORD
EXTRN	_kvz_calc_sao_edge_dir:DWORD
EXTRN	_kvz_sao_reconstruct_color:DWORD
EXTRN	_kvz_sao_band_ddistortion:DWORD
EXTRN	_kvz_encode_coeff_nxn:DWORD
msvcjmc	SEGMENT
__ED9CC025_corecrt_memcpy_s@h DB 01H
__875914C9_corecrt_wstring@h DB 01H
__731387C4_string@h DB 01H
__1850469A_corecrt_stdio_config@h DB 01H
__01D10305_corecrt_wstdio@h DB 01H
__9FF75F13_stdio@h DB 01H
__6C65A336_cu@h DB 01H
__E2865EBA_corecrt_math@h DB 01H
__546CF5FC_crypto@h DB 01H
__6BE1C69C_encoderstate@h DB 01H
__45BE13D6_sao_shared_generics@h DB 01H
__5AB2F40D_sao-generic@c DB 01H
msvcjmc	ENDS
;	COMDAT ??_C@_0BB@GDIDDFDB@encode_coeff_nxn@
CONST	SEGMENT
??_C@_0BB@GDIDDFDB@encode_coeff_nxn@ DB 'encode_coeff_nxn', 00H ; `string'
CONST	ENDS
;	COMDAT ??_C@_0BF@HDNLAKN@sao_band_ddistortion@
CONST	SEGMENT
??_C@_0BF@HDNLAKN@sao_band_ddistortion@ DB 'sao_band_ddistortion', 00H ; `string'
CONST	ENDS
;	COMDAT ??_C@_0BG@IJPOOFFG@sao_reconstruct_color@
CONST	SEGMENT
??_C@_0BG@IJPOOFFG@sao_reconstruct_color@ DB 'sao_reconstruct_color', 00H ; `string'
CONST	ENDS
;	COMDAT ??_C@_0BC@OCNKGNNI@calc_sao_edge_dir@
CONST	SEGMENT
??_C@_0BC@OCNKGNNI@calc_sao_edge_dir@ DB 'calc_sao_edge_dir', 00H ; `string'
CONST	ENDS
;	COMDAT ??_C@_0BF@LGILOHOJ@sao_edge_ddistortion@
CONST	SEGMENT
??_C@_0BF@LGILOHOJ@sao_edge_ddistortion@ DB 'sao_edge_ddistortion', 00H ; `string'
CONST	ENDS
;	COMDAT ??_C@_0BH@EAOLFJGL@intra_pred_filtered_dc@
CONST	SEGMENT
??_C@_0BH@EAOLFJGL@intra_pred_filtered_dc@ DB 'intra_pred_filtered_dc', 00H ; `string'
CONST	ENDS
;	COMDAT ??_C@_0BC@KPOCLILL@intra_pred_planar@
CONST	SEGMENT
??_C@_0BC@KPOCLILL@intra_pred_planar@ DB 'intra_pred_planar', 00H ; `string'
CONST	ENDS
;	COMDAT ??_C@_0N@NMFCEONC@angular_pred@
CONST	SEGMENT
??_C@_0N@NMFCEONC@angular_pred@ DB 'angular_pred', 00H	; `string'
CONST	ENDS
;	COMDAT ??_C@_0BA@HMNKAKOO@fast_coeff_cost@
CONST	SEGMENT
??_C@_0BA@HMNKAKOO@fast_coeff_cost@ DB 'fast_coeff_cost', 00H ; `string'
CONST	ENDS
;	COMDAT ??_C@_0O@ECIHPEON@coeff_abs_sum@
CONST	SEGMENT
??_C@_0O@ECIHPEON@coeff_abs_sum@ DB 'coeff_abs_sum', 00H ; `string'
CONST	ENDS
;	COMDAT ??_C@_07GMDOJGPA@dequant@
CONST	SEGMENT
??_C@_07GMDOJGPA@dequant@ DB 'dequant', 00H		; `string'
CONST	ENDS
;	COMDAT ??_C@_0BC@MPMPMGJB@quantize_residual@
CONST	SEGMENT
??_C@_0BC@MPMPMGJB@quantize_residual@ DB 'quantize_residual', 00H ; `string'
CONST	ENDS
;	COMDAT ??_C@_05DFPBCFDJ@quant@
CONST	SEGMENT
??_C@_05DFPBCFDJ@quant@ DB 'quant', 00H			; `string'
CONST	ENDS
;	COMDAT ??_C@_0BD@MPANGNDO@get_extended_block@
CONST	SEGMENT
??_C@_0BD@MPANGNDO@get_extended_block@ DB 'get_extended_block', 00H ; `string'
CONST	ENDS
;	COMDAT ??_C@_0BI@EFIAEBMP@sample_octpel_chroma_hi@
CONST	SEGMENT
??_C@_0BI@EFIAEBMP@sample_octpel_chroma_hi@ DB 'sample_octpel_chroma_hi', 00H ; `string'
CONST	ENDS
;	COMDAT ??_C@_0BK@LCPNGAOF@sample_quarterpel_luma_hi@
CONST	SEGMENT
??_C@_0BK@LCPNGAOF@sample_quarterpel_luma_hi@ DB 'sample_quarterpel_luma_'
	DB	'hi', 00H					; `string'
CONST	ENDS
;	COMDAT ??_C@_0BF@HOLGGLNK@sample_octpel_chroma@
CONST	SEGMENT
??_C@_0BF@HOLGGLNK@sample_octpel_chroma@ DB 'sample_octpel_chroma', 00H ; `string'
CONST	ENDS
;	COMDAT ??_C@_0BH@DGLFPIPB@sample_quarterpel_luma@
CONST	SEGMENT
??_C@_0BH@DGLFPIPB@sample_quarterpel_luma@ DB 'sample_quarterpel_luma', 00H ; `string'
CONST	ENDS
;	COMDAT ??_C@_0BN@LBBJMBKC@filter_qpel_blocks_diag_luma@
CONST	SEGMENT
??_C@_0BN@LBBJMBKC@filter_qpel_blocks_diag_luma@ DB 'filter_qpel_blocks_d'
	DB	'iag_luma', 00H				; `string'
CONST	ENDS
;	COMDAT ??_C@_0CA@HAFBJKBM@filter_qpel_blocks_hor_ver_luma@
CONST	SEGMENT
??_C@_0CA@HAFBJKBM@filter_qpel_blocks_hor_ver_luma@ DB 'filter_qpel_block'
	DB	's_hor_ver_luma', 00H			; `string'
CONST	ENDS
;	COMDAT ??_C@_0BN@LGIFMJCD@filter_hpel_blocks_diag_luma@
CONST	SEGMENT
??_C@_0BN@LGIFMJCD@filter_hpel_blocks_diag_luma@ DB 'filter_hpel_blocks_d'
	DB	'iag_luma', 00H				; `string'
CONST	ENDS
;	COMDAT ??_C@_0CA@KBMGLOML@filter_hpel_blocks_hor_ver_luma@
CONST	SEGMENT
??_C@_0CA@KBMGLOML@filter_hpel_blocks_hor_ver_luma@ DB 'filter_hpel_block'
	DB	's_hor_ver_luma', 00H			; `string'
CONST	ENDS
;	COMDAT ??_C@_0L@MDFNOANP@idct_32x32@
CONST	SEGMENT
??_C@_0L@MDFNOANP@idct_32x32@ DB 'idct_32x32', 00H	; `string'
CONST	ENDS
;	COMDAT ??_C@_0L@BMPNPGHO@idct_16x16@
CONST	SEGMENT
??_C@_0L@BMPNPGHO@idct_16x16@ DB 'idct_16x16', 00H	; `string'
CONST	ENDS
;	COMDAT ??_C@_08FFNLGGAH@idct_8x8@
CONST	SEGMENT
??_C@_08FFNLGGAH@idct_8x8@ DB 'idct_8x8', 00H		; `string'
CONST	ENDS
;	COMDAT ??_C@_08LDLIJGLD@idct_4x4@
CONST	SEGMENT
??_C@_08LDLIJGLD@idct_4x4@ DB 'idct_4x4', 00H		; `string'
CONST	ENDS
;	COMDAT ??_C@_0BF@LGIDMEOF@fast_inverse_dst_4x4@
CONST	SEGMENT
??_C@_0BF@LGIDMEOF@fast_inverse_dst_4x4@ DB 'fast_inverse_dst_4x4', 00H ; `string'
CONST	ENDS
;	COMDAT ??_C@_09GAMJJBPI@dct_32x32@
CONST	SEGMENT
??_C@_09GAMJJBPI@dct_32x32@ DB 'dct_32x32', 00H		; `string'
CONST	ENDS
;	COMDAT ??_C@_09LPGJIHFJ@dct_16x16@
CONST	SEGMENT
??_C@_09LPGJIHFJ@dct_16x16@ DB 'dct_16x16', 00H		; `string'
CONST	ENDS
;	COMDAT ??_C@_07CGDAJKDP@dct_8x8@
CONST	SEGMENT
??_C@_07CGDAJKDP@dct_8x8@ DB 'dct_8x8', 00H		; `string'
CONST	ENDS
;	COMDAT ??_C@_07MAFDGKIL@dct_4x4@
CONST	SEGMENT
??_C@_07MAFDGKIL@dct_4x4@ DB 'dct_4x4', 00H		; `string'
CONST	ENDS
;	COMDAT ??_C@_0BF@BJKPGPEP@fast_forward_dst_4x4@
CONST	SEGMENT
??_C@_0BF@BJKPGPEP@fast_forward_dst_4x4@ DB 'fast_forward_dst_4x4', 00H ; `string'
CONST	ENDS
;	COMDAT ??_C@_09GDPKBOJB@pixel_var@
CONST	SEGMENT
??_C@_09GDPKBOJB@pixel_var@ DB 'pixel_var', 00H		; `string'
CONST	ENDS
;	COMDAT ??_C@_07CJIKFDIC@hor_sad@
CONST	SEGMENT
??_C@_07CJIKFDIC@hor_sad@ DB 'hor_sad', 00H		; `string'
CONST	ENDS
;	COMDAT ??_C@_07OEMLCPNF@ver_sad@
CONST	SEGMENT
??_C@_07OEMLCPNF@ver_sad@ DB 'ver_sad', 00H		; `string'
CONST	ENDS
;	COMDAT ??_C@_0BC@IMILIHON@get_optimized_sad@
CONST	SEGMENT
??_C@_0BC@IMILIHON@get_optimized_sad@ DB 'get_optimized_sad', 00H ; `string'
CONST	ENDS
;	COMDAT ??_C@_0P@FIKELBGI@bipred_average@
CONST	SEGMENT
??_C@_0P@FIKELBGI@bipred_average@ DB 'bipred_average', 00H ; `string'
CONST	ENDS
;	COMDAT ??_C@_0BA@BPDFDAFM@pixels_calc_ssd@
CONST	SEGMENT
??_C@_0BA@BPDFDAFM@pixels_calc_ssd@ DB 'pixels_calc_ssd', 00H ; `string'
CONST	ENDS
;	COMDAT ??_C@_0BD@EFOGIBKC@satd_any_size_quad@
CONST	SEGMENT
??_C@_0BD@EFOGIBKC@satd_any_size_quad@ DB 'satd_any_size_quad', 00H ; `string'
CONST	ENDS
;	COMDAT ??_C@_0BA@NFKNMDHH@satd_64x64_dual@
CONST	SEGMENT
??_C@_0BA@NFKNMDHH@satd_64x64_dual@ DB 'satd_64x64_dual', 00H ; `string'
CONST	ENDS
;	COMDAT ??_C@_0BA@ICNECECM@satd_32x32_dual@
CONST	SEGMENT
??_C@_0BA@ICNECECM@satd_32x32_dual@ DB 'satd_32x32_dual', 00H ; `string'
CONST	ENDS
;	COMDAT ??_C@_0BA@GFDJBOPJ@satd_16x16_dual@
CONST	SEGMENT
??_C@_0BA@GFDJBOPJ@satd_16x16_dual@ DB 'satd_16x16_dual', 00H ; `string'
CONST	ENDS
;	COMDAT ??_C@_0O@NIHHCMOO@satd_8x8_dual@
CONST	SEGMENT
??_C@_0O@NIHHCMOO@satd_8x8_dual@ DB 'satd_8x8_dual', 00H ; `string'
CONST	ENDS
;	COMDAT ??_C@_0O@PJODLFIO@satd_4x4_dual@
CONST	SEGMENT
??_C@_0O@PJODLFIO@satd_4x4_dual@ DB 'satd_4x4_dual', 00H ; `string'
CONST	ENDS
;	COMDAT ??_C@_0P@BGJOPAPB@sad_64x64_dual@
CONST	SEGMENT
??_C@_0P@BGJOPAPB@sad_64x64_dual@ DB 'sad_64x64_dual', 00H ; `string'
CONST	ENDS
;	COMDAT ??_C@_0P@EBOHBHKK@sad_32x32_dual@
CONST	SEGMENT
??_C@_0P@EBOHBHKK@sad_32x32_dual@ DB 'sad_32x32_dual', 00H ; `string'
CONST	ENDS
;	COMDAT ??_C@_0P@KGAKCNHP@sad_16x16_dual@
CONST	SEGMENT
??_C@_0P@KGAKCNHP@sad_16x16_dual@ DB 'sad_16x16_dual', 00H ; `string'
CONST	ENDS
;	COMDAT ??_C@_0N@NAFGAMEI@sad_8x8_dual@
CONST	SEGMENT
??_C@_0N@NAFGAMEI@sad_8x8_dual@ DB 'sad_8x8_dual', 00H	; `string'
CONST	ENDS
;	COMDAT ??_C@_0N@PBMCJFCI@sad_4x4_dual@
CONST	SEGMENT
??_C@_0N@PBMCJFCI@sad_4x4_dual@ DB 'sad_4x4_dual', 00H	; `string'
CONST	ENDS
;	COMDAT ??_C@_0O@FHJAMJMP@satd_any_size@
CONST	SEGMENT
??_C@_0O@FHJAMJMP@satd_any_size@ DB 'satd_any_size', 00H ; `string'
CONST	ENDS
;	COMDAT ??_C@_0L@FCCLKIDJ@satd_64x64@
CONST	SEGMENT
??_C@_0L@FCCLKIDJ@satd_64x64@ DB 'satd_64x64', 00H	; `string'
CONST	ENDS
;	COMDAT ??_C@_0L@NNDHKJEH@satd_32x32@
CONST	SEGMENT
??_C@_0L@NNDHKJEH@satd_32x32@ DB 'satd_32x32', 00H	; `string'
CONST	ENDS
;	COMDAT ??_C@_0L@CJHLPOG@satd_16x16@
CONST	SEGMENT
??_C@_0L@CJHLPOG@satd_16x16@ DB 'satd_16x16', 00H	; `string'
CONST	ENDS
;	COMDAT ??_C@_08IFHKAAFH@satd_8x8@
CONST	SEGMENT
??_C@_08IFHKAAFH@satd_8x8@ DB 'satd_8x8', 00H		; `string'
CONST	ENDS
;	COMDAT ??_C@_08GDBJPAOD@satd_4x4@
CONST	SEGMENT
??_C@_08GDBJPAOD@satd_4x4@ DB 'satd_4x4', 00H		; `string'
CONST	ENDS
;	COMDAT ??_C@_09HIOKBDLK@sad_64x64@
CONST	SEGMENT
??_C@_09HIOKBDLK@sad_64x64@ DB 'sad_64x64', 00H		; `string'
CONST	ENDS
;	COMDAT ??_C@_09PHPGBCME@sad_32x32@
CONST	SEGMENT
??_C@_09PHPGBCME@sad_32x32@ DB 'sad_32x32', 00H		; `string'
CONST	ENDS
;	COMDAT ??_C@_09CIFGAEGF@sad_16x16@
CONST	SEGMENT
??_C@_09CIFGAEGF@sad_16x16@ DB 'sad_16x16', 00H		; `string'
CONST	ENDS
;	COMDAT ??_C@_07MEAHLBLP@sad_8x8@
CONST	SEGMENT
??_C@_07MEAHLBLP@sad_8x8@ DB 'sad_8x8', 00H		; `string'
CONST	ENDS
;	COMDAT ??_C@_07CCGEEBAL@sad_4x4@
CONST	SEGMENT
??_C@_07CCGEEBAL@sad_4x4@ DB 'sad_4x4', 00H		; `string'
CONST	ENDS
;	COMDAT ??_C@_07DDJKLCAH@reg_sad@
CONST	SEGMENT
??_C@_07DDJKLCAH@reg_sad@ DB 'reg_sad', 00H		; `string'
CONST	ENDS
;	COMDAT ??_C@_09INHMEIKP@array_md5@
CONST	SEGMENT
??_C@_09INHMEIKP@array_md5@ DB 'array_md5', 00H		; `string'
CONST	ENDS
;	COMDAT ??_C@_0P@FIMIKDEG@array_checksum@
CONST	SEGMENT
??_C@_0P@FIMIKDEG@array_checksum@ DB 'array_checksum', 00H ; `string'
CONST	ENDS
CONST	SEGMENT
_cbf_masks DW	01fH
	DW	0fH
	DW	07H
	DW	03H
	DW	01H
	ORG $+6
_default_fast_coeff_cost_wts DD 03e282e88r	; 0.16424
	DD	040852b41r			; 4.16153
	DD	0406093ffr			; 3.50903
	DD	040ddb290r			; 6.92805
	DD	03e282e88r			; 0.16424
	DD	040852b41r			; 4.16153
	DD	0406093ffr			; 3.50903
	DD	040ddb290r			; 6.92805
	DD	03e282e88r			; 0.16424
	DD	040852b41r			; 4.16153
	DD	0406093ffr			; 3.50903
	DD	040ddb290r			; 6.92805
	DD	03e282e88r			; 0.16424
	DD	040852b41r			; 4.16153
	DD	0406093ffr			; 3.50903
	DD	040ddb290r			; 6.92805
	DD	03e282e88r			; 0.16424
	DD	040852b41r			; 4.16153
	DD	0406093ffr			; 3.50903
	DD	040ddb290r			; 6.92805
	DD	03e282e88r			; 0.16424
	DD	040852b41r			; 4.16153
	DD	0406093ffr			; 3.50903
	DD	040ddb290r			; 6.92805
	DD	03e282e88r			; 0.16424
	DD	040852b41r			; 4.16153
	DD	0406093ffr			; 3.50903
	DD	040ddb290r			; 6.92805
	DD	03e282e88r			; 0.16424
	DD	040852b41r			; 4.16153
	DD	0406093ffr			; 3.50903
	DD	040ddb290r			; 6.92805
	DD	03e282e88r			; 0.16424
	DD	040852b41r			; 4.16153
	DD	0406093ffr			; 3.50903
	DD	040ddb290r			; 6.92805
	DD	03e282e88r			; 0.16424
	DD	040852b41r			; 4.16153
	DD	0406093ffr			; 3.50903
	DD	040ddb290r			; 6.92805
	DD	03e282e88r			; 0.16424
	DD	040852b41r			; 4.16153
	DD	0406093ffr			; 3.50903
	DD	040ddb290r			; 6.92805
	DD	03e26c094r			; 0.162844
	DD	04081ca43r			; 4.05594
	DD	04064203ar			; 3.56447
	DD	040db915ar			; 6.86149
	DD	03e03d189r			; 0.128729
	DD	04089fbafr			; 4.31197
	DD	0407c5771r			; 3.94284
	DD	040ddeed2r			; 6.9354
	DD	03de33ce6r			; 0.110956
	DD	0408ddcb1r			; 4.43319
	DD	0407c8738r			; 3.94575
	DD	040dc1618r			; 6.8777
	DD	03dc29cfer			; 0.095026
	DD	0408f7938r			; 4.48355
	DD	0408636aar			; 4.19417
	DD	040d90260r			; 6.78154
	DD	03d99b1b8r			; 0.075046
	DD	04094474cr			; 4.6337
	DD	04082b1b6r			; 4.08419
	DD	040d65aeer			; 6.6986
	DD	03d56bca5r			; 0.052426
	DD	0409ef37er			; 4.96722
	DD	04080dee8r			; 4.02721
	DD	040d19306r			; 6.5492
	DD	03d24bcaer			; 0.040219
	DD	040a489car			; 5.14182
	DD	0407ee3bdr			; 3.98265
	DD	040cec513r			; 6.46156
	DD	03d0fba88r			; 0.03509
	DD	040a628e7r			; 5.19249
	DD	040752e49r			; 3.83095
	DD	040cd642ar			; 6.41848
	DD	03cf47d80r			; 0.029845
	DD	040a6c5d0r			; 5.21165
	DD	040743073r			; 3.81546
	DD	040cb0dd8r			; 6.34544
	DD	03cc0b136r			; 0.023522
	DD	040aa4f92r			; 5.32221
	DD	040744224r			; 3.81654
	DD	040cb8aaar			; 6.36068
	DD	03cae87d3r			; 0.021305
	DD	040a73ac3r			; 5.22592
	DD	04075eeccr			; 3.8427
	DD	040ca6cd9r			; 6.32579
	DD	03c821294r			; 0.015878
	DD	040a5dbe0r			; 5.18309
	DD	0407d2f27r			; 3.956
	DD	040ca8cbdr			; 6.32968
	DD	03c2ae297r			; 0.01043
	DD	040a32ce4r			; 5.09923
	DD	04085a85fr			; 4.1768
	DD	040c9c5d6r			; 6.3054
	DD	03c0a2a91r			; 0.008433
	DD	040a0f7der			; 5.03026
	DD	040879a50r			; 4.23759
	DD	040c8a4eer			; 6.27013
	DD	03bd4fdf4r			; 0.0065
	DD	0409f0412r			; 4.96925
	DD	0408adc57r			; 4.3394
	DD	040c6f870r			; 6.21783
	DD	03ba18373r			; 0.004929
	DD	0409d8d50r			; 4.9235
	DD	0408e283fr			; 4.44241
	DD	040c5df6cr			; 6.18352
	DD	03b73775cr			; 0.003715
	DD	0409d4c75r			; 4.91558
	DD	0408dbb1br			; 4.42909
	DD	040c4029fr			; 6.12532
	DD	03b4a70d2r			; 0.003089
	DD	0409c48f7r			; 4.88391
	DD	040920260r			; 4.56279
	DD	040c5019dr			; 6.15645
	DD	03b219c9dr			; 0.002466
	DD	0409c31abr			; 4.88106
	DD	040942800r			; 4.62988
	DD	040c49088r			; 6.14264
	DD	03b0e25c8r			; 0.002169
	DD	0409c3d62r			; 4.88249
	DD	04094ae99r			; 4.64631
	DD	040c415d1r			; 6.12766
	DD	03b26dacbr			; 0.002546
	DD	040996304r			; 4.79334
	DD	0409acc16r			; 4.83741
	DD	040c6606br			; 6.19927
	DD	03aac3a86r			; 0.001314
	DD	04099e220r			; 4.80885
	DD	0409a81bdr			; 4.82834
	DD	040c7ca3cr			; 6.24344
	DD	03a9741d1r			; 0.001154
	DD	0409b9a72r			; 4.8626
	DD	0409b19aar			; 4.84688
	DD	040c693a5r			; 6.20552
	DD	03a80f990r			; 0.000984
	DD	0409bb993r			; 4.8664
	DD	0409b7fa2r			; 4.85933
	DD	040c7b565r			; 6.24089
	DD	03a551f82r			; 0.000813
	DD	0409b698ar			; 4.85663
	DD	0409d95bar			; 4.92453
	DD	040c963a4r			; 6.29341
	DD	03a91c087r			; 0.001112
	DD	04099419er			; 4.78926
	DD	040a050f0r			; 5.00988
	DD	040cddf8fr			; 6.43354
	DD	03a10b418r			; 0.000552
	DD	04098580ar			; 4.76075
	DD	040a2e4f1r			; 5.09045
	DD	040d32e1fr			; 6.59938
	DD	039ccff22r			; 0.000391
	DD	0409ec42cr			; 4.96145
	DD	040a38d95r			; 5.11103
	DD	040d8342fr			; 6.75637
	DD	039ae1049r			; 0.000332
	DD	0409f63f8r			; 4.98095
	DD	040a46b89r			; 5.13813
	DD	040dbc1e8r			; 6.86742
	DD	03952c387r			; 0.000201
	DD	040a5d297r			; 5.18196
	DD	04097af64r			; 4.74016
	DD	040cec07dr			; 6.461
	DD	0397ba882r			; 0.00024
	DD	040a5eeb7r			; 5.18539
	DD	0409bfeb0r			; 4.87484
	DD	040da3603r			; 6.81909
	DD	03908509cr			; 0.00013
	DD	040a8a6b5r			; 5.27035
	DD	040977eacr			; 4.73421
	DD	040da708fr			; 6.82624
	DD	038da1a93r			; 0.000104
	DD	040abe6e8r			; 5.37194
	DD	040930af4r			; 4.59509
	DD	040d5189ar			; 6.65925
	DD	038ae1049r			; 8.3e-05
	DD	040ab9581r			; 5.362
	DD	04093c250r			; 4.61747
	DD	040dacf03r			; 6.83777
	DD	03890b418r			; 6.9e-05
	DD	040a926e3r			; 5.286
	DD	0409828e7r			; 4.75499
	DD	040e516e1r			; 7.15904
	DD	0384d8559r			; 4.9e-05
	DD	040afa18cr			; 5.48847
	DD	0408cace9r			; 4.39611
	DD	040d74682r			; 6.72736
	DD	038734507r			; 5.8e-05
	DD	0409eafa3r			; 4.95894
	DD	040929321r			; 4.58046
	DD	040cf49a5r			; 6.47774
	DD	037eae18br			; 2.8e-05
	DD	040b0ae1br			; 5.52125
	DD	0408e1885r			; 4.44049
	DD	040e68f80r			; 7.20502
	DD	000000000r			; 0
	DD	000000000r			; 0
	DD	000000000r			; 0
	DD	000000000r			; 0
	DD	0379f6230r			; 1.9e-05
	DD	040b9f5d8r			; 5.81126
	DD	0408cc582r			; 4.39911
	DD	040eac30dr			; 7.33631
_g_sig_last_scan_8x8 DD 00H
	DD	02H
	DD	01H
	DD	03H
	DD	00H
	DD	01H
	DD	02H
	DD	03H
	DD	00H
	DD	02H
	DD	01H
	DD	03H
_g_sig_last_scan_16x16 DD 00H
	DD	04H
	DD	01H
	DD	08H
	DD	05H
	DD	02H
	DD	0cH
	DD	09H
	DD	06H
	DD	03H
	DD	0dH
	DD	0aH
	DD	07H
	DD	0eH
	DD	0bH
	DD	0fH
_g_sig_last_scan_32x32 DD 00H
	DD	08H
	DD	01H
	DD	010H
	DD	09H
	DD	02H
	DD	018H
	DD	011H
	DD	0aH
	DD	03H
	DD	020H
	DD	019H
	DD	012H
	DD	0bH
	DD	04H
	DD	028H
	DD	021H
	DD	01aH
	DD	013H
	DD	0cH
	DD	05H
	DD	030H
	DD	029H
	DD	022H
	DD	01bH
	DD	014H
	DD	0dH
	DD	06H
	DD	038H
	DD	031H
	DD	02aH
	DD	023H
	DD	01cH
	DD	015H
	DD	0eH
	DD	07H
	DD	039H
	DD	032H
	DD	02bH
	DD	024H
	DD	01dH
	DD	016H
	DD	0fH
	DD	03aH
	DD	033H
	DD	02cH
	DD	025H
	DD	01eH
	DD	017H
	DD	03bH
	DD	034H
	DD	02dH
	DD	026H
	DD	01fH
	DD	03cH
	DD	035H
	DD	02eH
	DD	027H
	DD	03dH
	DD	036H
	DD	02fH
	DD	03eH
	DD	037H
	DD	03fH
_g_sig_last_scan_cg DD FLAT:_g_sig_last_scan_8x8
	DD	FLAT:_g_sig_last_scan_8x8+16
	DD	FLAT:_g_sig_last_scan_8x8+32
	DD	FLAT:_g_sig_last_scan_8x8
	DD	FLAT:_g_sig_last_scan_8x8+16
	DD	FLAT:_g_sig_last_scan_8x8+32
	DD	FLAT:_g_sig_last_scan_16x16
	DD	00H
	DD	00H
	DD	FLAT:_g_sig_last_scan_32x32
	DD	00H
	DD	00H
_g_group_idx DB	00H
	DB	01H
	DB	02H
	DB	03H
	DB	04H
	DB	04H
	DB	05H
	DB	05H
	DB	06H
	DB	06H
	DB	06H
	DB	06H
	DB	07H
	DB	07H
	DB	07H
	DB	07H
	DB	08H
	DB	08H
	DB	08H
	DB	08H
	DB	08H
	DB	08H
	DB	08H
	DB	08H
	DB	09H
	DB	09H
	DB	09H
	DB	09H
	DB	09H
	DB	09H
	DB	09H
	DB	09H
_g_min_in_group DB 00H
	DB	01H
	DB	02H
	DB	03H
	DB	04H
	DB	06H
	DB	08H
	DB	0cH
	DB	010H
	DB	018H
	ORG $+6
_g_sao_edge_offsets DD 0ffffffffH
	DD	00H
	DD	01H
	DD	00H
	DD	00H
	DD	0ffffffffH
	DD	00H
	DD	01H
	DD	0ffffffffH
	DD	0ffffffffH
	DD	01H
	DD	01H
	DD	01H
	DD	0ffffffffH
	DD	0ffffffffH
	DD	01H
?sao_eo_idx_to_eo_category@?1??sao_calc_eo_cat@@9@9 DD 01H ; `sao_calc_eo_cat'::`2'::sao_eo_idx_to_eo_category
	DD	02H
	DD	00H
	DD	03H
	DD	04H
	ORG $+4
_strategies_to_select DD FLAT:??_C@_0P@FIMIKDEG@array_checksum@
	DD	FLAT:_kvz_array_checksum
	DD	FLAT:??_C@_09INHMEIKP@array_md5@
	DD	FLAT:_kvz_array_md5
	DD	FLAT:??_C@_07DDJKLCAH@reg_sad@
	DD	FLAT:_kvz_reg_sad
	DD	FLAT:??_C@_07CCGEEBAL@sad_4x4@
	DD	FLAT:_kvz_sad_4x4
	DD	FLAT:??_C@_07MEAHLBLP@sad_8x8@
	DD	FLAT:_kvz_sad_8x8
	DD	FLAT:??_C@_09CIFGAEGF@sad_16x16@
	DD	FLAT:_kvz_sad_16x16
	DD	FLAT:??_C@_09PHPGBCME@sad_32x32@
	DD	FLAT:_kvz_sad_32x32
	DD	FLAT:??_C@_09HIOKBDLK@sad_64x64@
	DD	FLAT:_kvz_sad_64x64
	DD	FLAT:??_C@_08GDBJPAOD@satd_4x4@
	DD	FLAT:_kvz_satd_4x4
	DD	FLAT:??_C@_08IFHKAAFH@satd_8x8@
	DD	FLAT:_kvz_satd_8x8
	DD	FLAT:??_C@_0L@CJHLPOG@satd_16x16@
	DD	FLAT:_kvz_satd_16x16
	DD	FLAT:??_C@_0L@NNDHKJEH@satd_32x32@
	DD	FLAT:_kvz_satd_32x32
	DD	FLAT:??_C@_0L@FCCLKIDJ@satd_64x64@
	DD	FLAT:_kvz_satd_64x64
	DD	FLAT:??_C@_0O@FHJAMJMP@satd_any_size@
	DD	FLAT:_kvz_satd_any_size
	DD	FLAT:??_C@_0N@PBMCJFCI@sad_4x4_dual@
	DD	FLAT:_kvz_sad_4x4_dual
	DD	FLAT:??_C@_0N@NAFGAMEI@sad_8x8_dual@
	DD	FLAT:_kvz_sad_8x8_dual
	DD	FLAT:??_C@_0P@KGAKCNHP@sad_16x16_dual@
	DD	FLAT:_kvz_sad_16x16_dual
	DD	FLAT:??_C@_0P@EBOHBHKK@sad_32x32_dual@
	DD	FLAT:_kvz_sad_32x32_dual
	DD	FLAT:??_C@_0P@BGJOPAPB@sad_64x64_dual@
	DD	FLAT:_kvz_sad_64x64_dual
	DD	FLAT:??_C@_0O@PJODLFIO@satd_4x4_dual@
	DD	FLAT:_kvz_satd_4x4_dual
	DD	FLAT:??_C@_0O@NIHHCMOO@satd_8x8_dual@
	DD	FLAT:_kvz_satd_8x8_dual
	DD	FLAT:??_C@_0BA@GFDJBOPJ@satd_16x16_dual@
	DD	FLAT:_kvz_satd_16x16_dual
	DD	FLAT:??_C@_0BA@ICNECECM@satd_32x32_dual@
	DD	FLAT:_kvz_satd_32x32_dual
	DD	FLAT:??_C@_0BA@NFKNMDHH@satd_64x64_dual@
	DD	FLAT:_kvz_satd_64x64_dual
	DD	FLAT:??_C@_0BD@EFOGIBKC@satd_any_size_quad@
	DD	FLAT:_kvz_satd_any_size_quad
	DD	FLAT:??_C@_0BA@BPDFDAFM@pixels_calc_ssd@
	DD	FLAT:_kvz_pixels_calc_ssd
	DD	FLAT:??_C@_0P@FIKELBGI@bipred_average@
	DD	FLAT:_kvz_bipred_average
	DD	FLAT:??_C@_0BC@IMILIHON@get_optimized_sad@
	DD	FLAT:_kvz_get_optimized_sad
	DD	FLAT:??_C@_07OEMLCPNF@ver_sad@
	DD	FLAT:_kvz_ver_sad
	DD	FLAT:??_C@_07CJIKFDIC@hor_sad@
	DD	FLAT:_kvz_hor_sad
	DD	FLAT:??_C@_09GDPKBOJB@pixel_var@
	DD	FLAT:_kvz_pixel_var
	DD	FLAT:??_C@_0BF@BJKPGPEP@fast_forward_dst_4x4@
	DD	FLAT:_kvz_fast_forward_dst_4x4
	DD	FLAT:??_C@_07MAFDGKIL@dct_4x4@
	DD	FLAT:_kvz_dct_4x4
	DD	FLAT:??_C@_07CGDAJKDP@dct_8x8@
	DD	FLAT:_kvz_dct_8x8
	DD	FLAT:??_C@_09LPGJIHFJ@dct_16x16@
	DD	FLAT:_kvz_dct_16x16
	DD	FLAT:??_C@_09GAMJJBPI@dct_32x32@
	DD	FLAT:_kvz_dct_32x32
	DD	FLAT:??_C@_0BF@LGIDMEOF@fast_inverse_dst_4x4@
	DD	FLAT:_kvz_fast_inverse_dst_4x4
	DD	FLAT:??_C@_08LDLIJGLD@idct_4x4@
	DD	FLAT:_kvz_idct_4x4
	DD	FLAT:??_C@_08FFNLGGAH@idct_8x8@
	DD	FLAT:_kvz_idct_8x8
	DD	FLAT:??_C@_0L@BMPNPGHO@idct_16x16@
	DD	FLAT:_kvz_idct_16x16
	DD	FLAT:??_C@_0L@MDFNOANP@idct_32x32@
	DD	FLAT:_kvz_idct_32x32
	DD	FLAT:??_C@_0CA@KBMGLOML@filter_hpel_blocks_hor_ver_luma@
	DD	FLAT:_kvz_filter_hpel_blocks_hor_ver_luma
	DD	FLAT:??_C@_0BN@LGIFMJCD@filter_hpel_blocks_diag_luma@
	DD	FLAT:_kvz_filter_hpel_blocks_diag_luma
	DD	FLAT:??_C@_0CA@HAFBJKBM@filter_qpel_blocks_hor_ver_luma@
	DD	FLAT:_kvz_filter_qpel_blocks_hor_ver_luma
	DD	FLAT:??_C@_0BN@LBBJMBKC@filter_qpel_blocks_diag_luma@
	DD	FLAT:_kvz_filter_qpel_blocks_diag_luma
	DD	FLAT:??_C@_0BH@DGLFPIPB@sample_quarterpel_luma@
	DD	FLAT:_kvz_sample_quarterpel_luma
	DD	FLAT:??_C@_0BF@HOLGGLNK@sample_octpel_chroma@
	DD	FLAT:_kvz_sample_octpel_chroma
	DD	FLAT:??_C@_0BK@LCPNGAOF@sample_quarterpel_luma_hi@
	DD	FLAT:_kvz_sample_quarterpel_luma_hi
	DD	FLAT:??_C@_0BI@EFIAEBMP@sample_octpel_chroma_hi@
	DD	FLAT:_kvz_sample_octpel_chroma_hi
	DD	FLAT:??_C@_0BD@MPANGNDO@get_extended_block@
	DD	FLAT:_kvz_get_extended_block
	DD	FLAT:??_C@_05DFPBCFDJ@quant@
	DD	FLAT:_kvz_quant
	DD	FLAT:??_C@_0BC@MPMPMGJB@quantize_residual@
	DD	FLAT:_kvz_quantize_residual
	DD	FLAT:??_C@_07GMDOJGPA@dequant@
	DD	FLAT:_kvz_dequant
	DD	FLAT:??_C@_0O@ECIHPEON@coeff_abs_sum@
	DD	FLAT:_kvz_coeff_abs_sum
	DD	FLAT:??_C@_0BA@HMNKAKOO@fast_coeff_cost@
	DD	FLAT:_kvz_fast_coeff_cost
	DD	FLAT:??_C@_0N@NMFCEONC@angular_pred@
	DD	FLAT:_kvz_angular_pred
	DD	FLAT:??_C@_0BC@KPOCLILL@intra_pred_planar@
	DD	FLAT:_kvz_intra_pred_planar
	DD	FLAT:??_C@_0BH@EAOLFJGL@intra_pred_filtered_dc@
	DD	FLAT:_kvz_intra_pred_filtered_dc
	DD	FLAT:??_C@_0BF@LGILOHOJ@sao_edge_ddistortion@
	DD	FLAT:_kvz_sao_edge_ddistortion
	DD	FLAT:??_C@_0BC@OCNKGNNI@calc_sao_edge_dir@
	DD	FLAT:_kvz_calc_sao_edge_dir
	DD	FLAT:??_C@_0BG@IJPOOFFG@sao_reconstruct_color@
	DD	FLAT:_kvz_sao_reconstruct_color
	DD	FLAT:??_C@_0BF@HDNLAKN@sao_band_ddistortion@
	DD	FLAT:_kvz_sao_band_ddistortion
	DD	FLAT:??_C@_0BB@GDIDDFDB@encode_coeff_nxn@
	DD	FLAT:_kvz_encode_coeff_nxn
	DD	00H
	DD	00H
CONST	ENDS
PUBLIC	_kvz_strategy_register_sao_generic
PUBLIC	__JustMyCode_Default
PUBLIC	??_C@_07DCLBNMLN@generic@			; `string'
EXTRN	_kvz_calc_sao_offset_array:PROC
EXTRN	_kvz_strategyselector_register:PROC
EXTRN	@_RTC_CheckStackVars@8:PROC
EXTRN	@__CheckForDebuggerJustMyCode@4:PROC
EXTRN	@__security_check_cookie@4:PROC
EXTRN	__RTC_CheckEsp:PROC
EXTRN	__RTC_InitBase:PROC
EXTRN	__RTC_Shutdown:PROC
EXTRN	___security_cookie:DWORD
;	COMDAT rtc$TMZ
rtc$TMZ	SEGMENT
__RTC_Shutdown.rtc$TMZ DD FLAT:__RTC_Shutdown
rtc$TMZ	ENDS
;	COMDAT rtc$IMZ
rtc$IMZ	SEGMENT
__RTC_InitBase.rtc$IMZ DD FLAT:__RTC_InitBase
rtc$IMZ	ENDS
;	COMDAT ??_C@_07DCLBNMLN@generic@
CONST	SEGMENT
??_C@_07DCLBNMLN@generic@ DB 'generic', 00H		; `string'
CONST	ENDS
; Function compile flags: /Odt
;	COMDAT __JustMyCode_Default
_TEXT	SEGMENT
__JustMyCode_Default PROC				; COMDAT
	push	ebp
	mov	ebp, esp
	pop	ebp
	ret	0
__JustMyCode_Default ENDP
_TEXT	ENDS
; Function compile flags: /Odtp /RTCsu /ZI
; File F:\open_codec_learn_2021\kvazaar-master\src\strategies\generic\sao-generic.c
;	COMDAT _sao_reconstruct_color_generic
_TEXT	SEGMENT
tv195 = -1788						; size = 4
tv196 = -1784						; size = 4
tv176 = -1780						; size = 4
tv65 = -1780						; size = 4
_eo_cat$1 = -1196					; size = 4
_b$2 = -1181						; size = 1
_c$3 = -1169						; size = 1
_a$4 = -1157						; size = 1
_new_data$5 = -1148					; size = 4
_c_data$6 = -1136					; size = 4
_b_ofs$7 = -1124					; size = 8
_a_ofs$8 = -1108					; size = 8
_x$9 = -1092						; size = 4
_y$10 = -1080						; size = 4
_x$11 = -1068						; size = 4
_y$12 = -1056						; size = 4
_offsets$13 = -1044					; size = 1024
_offset_v$ = -12					; size = 4
__$ArrayPad$ = -4					; size = 4
_encoder$ = 8						; size = 4
_rec_data$ = 12						; size = 4
_new_rec_data$ = 16					; size = 4
_sao$ = 20						; size = 4
_stride$ = 24						; size = 4
_new_stride$ = 28					; size = 4
_block_width$ = 32					; size = 4
_block_height$ = 36					; size = 4
_color_i$ = 40						; size = 4
_sao_reconstruct_color_generic PROC			; COMDAT

; 92   : {

	push	ebp
	mov	ebp, esp
	sub	esp, 1788				; 000006fcH
	push	ebx
	push	esi
	push	edi
	lea	edi, DWORD PTR [ebp-1788]
	mov	ecx, 447				; 000001bfH
	mov	eax, -858993460				; ccccccccH
	rep stosd
	mov	eax, DWORD PTR ___security_cookie
	xor	eax, ebp
	mov	DWORD PTR __$ArrayPad$[ebp], eax
	mov	ecx, OFFSET __5AB2F40D_sao-generic@c
	call	@__CheckForDebuggerJustMyCode@4

; 93   :   // Arrays orig_data and rec_data are quarter size for chroma.
; 94   :   int offset_v = color_i == COLOR_V ? 5 : 0;

	cmp	DWORD PTR _color_i$[ebp], 2
	jne	SHORT $LN17@sao_recons
	mov	DWORD PTR tv65[ebp], 5
	jmp	SHORT $LN18@sao_recons
$LN17@sao_recons:
	mov	DWORD PTR tv65[ebp], 0
$LN18@sao_recons:
	mov	eax, DWORD PTR tv65[ebp]
	mov	DWORD PTR _offset_v$[ebp], eax

; 95   : 
; 96   :   if (sao->type == SAO_TYPE_BAND) {

	mov	eax, DWORD PTR _sao$[ebp]
	cmp	DWORD PTR [eax], 1
	jne	$LN14@sao_recons

; 97   :     int offsets[1<<KVZ_BIT_DEPTH];
; 98   :     kvz_calc_sao_offset_array(encoder, sao, offsets, color_i);

	mov	eax, DWORD PTR _color_i$[ebp]
	push	eax
	lea	ecx, DWORD PTR _offsets$13[ebp]
	push	ecx
	mov	edx, DWORD PTR _sao$[ebp]
	push	edx
	mov	eax, DWORD PTR _encoder$[ebp]
	push	eax
	call	_kvz_calc_sao_offset_array
	add	esp, 16					; 00000010H

; 99   :     for (int y = 0; y < block_height; ++y) {

	mov	DWORD PTR _y$12[ebp], 0
	jmp	SHORT $LN4@sao_recons
$LN2@sao_recons:
	mov	eax, DWORD PTR _y$12[ebp]
	add	eax, 1
	mov	DWORD PTR _y$12[ebp], eax
$LN4@sao_recons:
	mov	eax, DWORD PTR _y$12[ebp]
	cmp	eax, DWORD PTR _block_height$[ebp]
	jge	SHORT $LN3@sao_recons

; 100  :       for (int x = 0; x < block_width; ++x) {

	mov	DWORD PTR _x$11[ebp], 0
	jmp	SHORT $LN7@sao_recons
$LN5@sao_recons:
	mov	eax, DWORD PTR _x$11[ebp]
	add	eax, 1
	mov	DWORD PTR _x$11[ebp], eax
$LN7@sao_recons:
	mov	eax, DWORD PTR _x$11[ebp]
	cmp	eax, DWORD PTR _block_width$[ebp]
	jge	SHORT $LN6@sao_recons

; 101  :         new_rec_data[y * new_stride + x] = offsets[rec_data[y * stride + x]];

	mov	eax, DWORD PTR _y$12[ebp]
	imul	eax, DWORD PTR _stride$[ebp]
	add	eax, DWORD PTR _x$11[ebp]
	mov	ecx, DWORD PTR _rec_data$[ebp]
	movzx	edx, BYTE PTR [ecx+eax]
	mov	eax, DWORD PTR _y$12[ebp]
	imul	eax, DWORD PTR _new_stride$[ebp]
	add	eax, DWORD PTR _x$11[ebp]
	mov	ecx, DWORD PTR _new_rec_data$[ebp]
	mov	dl, BYTE PTR _offsets$13[ebp+edx*4]
	mov	BYTE PTR [ecx+eax], dl

; 102  :       }

	jmp	SHORT $LN5@sao_recons
$LN6@sao_recons:

; 103  :     }

	jmp	SHORT $LN2@sao_recons
$LN3@sao_recons:

; 104  :   } else {

	jmp	$LN1@sao_recons
$LN14@sao_recons:

; 105  :     // Don't sample the edge pixels because this function doesn't have access to
; 106  :     // their neighbours.
; 107  :     for (int y = 0; y < block_height; ++y) {

	mov	DWORD PTR _y$10[ebp], 0
	jmp	SHORT $LN10@sao_recons
$LN8@sao_recons:
	mov	eax, DWORD PTR _y$10[ebp]
	add	eax, 1
	mov	DWORD PTR _y$10[ebp], eax
$LN10@sao_recons:
	mov	eax, DWORD PTR _y$10[ebp]
	cmp	eax, DWORD PTR _block_height$[ebp]
	jge	$LN1@sao_recons

; 108  :       for (int x = 0; x < block_width; ++x) {

	mov	DWORD PTR _x$9[ebp], 0
	jmp	SHORT $LN13@sao_recons
$LN11@sao_recons:
	mov	eax, DWORD PTR _x$9[ebp]
	add	eax, 1
	mov	DWORD PTR _x$9[ebp], eax
$LN13@sao_recons:
	mov	eax, DWORD PTR _x$9[ebp]
	cmp	eax, DWORD PTR _block_width$[ebp]
	jge	$LN12@sao_recons

; 109  :         vector2d_t a_ofs = g_sao_edge_offsets[sao->eo_class][0];

	mov	eax, DWORD PTR _sao$[ebp]
	mov	ecx, DWORD PTR [eax+4]
	shl	ecx, 4
	mov	edx, 8
	imul	eax, edx, 0
	mov	edx, DWORD PTR _g_sao_edge_offsets[ecx+eax]
	mov	eax, DWORD PTR _g_sao_edge_offsets[ecx+eax+4]
	mov	DWORD PTR _a_ofs$8[ebp], edx
	mov	DWORD PTR _a_ofs$8[ebp+4], eax

; 110  :         vector2d_t b_ofs = g_sao_edge_offsets[sao->eo_class][1];

	mov	eax, DWORD PTR _sao$[ebp]
	mov	ecx, DWORD PTR [eax+4]
	shl	ecx, 4
	mov	edx, 8
	shl	edx, 0
	mov	eax, DWORD PTR _g_sao_edge_offsets[ecx+edx]
	mov	ecx, DWORD PTR _g_sao_edge_offsets[ecx+edx+4]
	mov	DWORD PTR _b_ofs$7[ebp], eax
	mov	DWORD PTR _b_ofs$7[ebp+4], ecx

; 111  :         const kvz_pixel *c_data = &rec_data[y * stride + x];

	mov	eax, DWORD PTR _y$10[ebp]
	imul	eax, DWORD PTR _stride$[ebp]
	add	eax, DWORD PTR _x$9[ebp]
	add	eax, DWORD PTR _rec_data$[ebp]
	mov	DWORD PTR _c_data$6[ebp], eax

; 112  :         kvz_pixel *new_data = &new_rec_data[y * new_stride + x];

	mov	eax, DWORD PTR _y$10[ebp]
	imul	eax, DWORD PTR _new_stride$[ebp]
	add	eax, DWORD PTR _x$9[ebp]
	add	eax, DWORD PTR _new_rec_data$[ebp]
	mov	DWORD PTR _new_data$5[ebp], eax

; 113  :         kvz_pixel a = c_data[a_ofs.y * stride + a_ofs.x];

	mov	eax, DWORD PTR _a_ofs$8[ebp+4]
	imul	eax, DWORD PTR _stride$[ebp]
	add	eax, DWORD PTR _a_ofs$8[ebp]
	mov	ecx, DWORD PTR _c_data$6[ebp]
	mov	dl, BYTE PTR [ecx+eax]
	mov	BYTE PTR _a$4[ebp], dl

; 114  :         kvz_pixel c = c_data[0];

	mov	eax, 1
	imul	ecx, eax, 0
	mov	edx, DWORD PTR _c_data$6[ebp]
	mov	al, BYTE PTR [edx+ecx]
	mov	BYTE PTR _c$3[ebp], al

; 115  :         kvz_pixel b = c_data[b_ofs.y * stride + b_ofs.x];

	mov	eax, DWORD PTR _b_ofs$7[ebp+4]
	imul	eax, DWORD PTR _stride$[ebp]
	add	eax, DWORD PTR _b_ofs$7[ebp]
	mov	ecx, DWORD PTR _c_data$6[ebp]
	mov	dl, BYTE PTR [ecx+eax]
	mov	BYTE PTR _b$2[ebp], dl

; 116  : 
; 117  :         int eo_cat = sao_calc_eo_cat(a, b, c);

	movzx	eax, BYTE PTR _c$3[ebp]
	push	eax
	movzx	ecx, BYTE PTR _b$2[ebp]
	push	ecx
	movzx	edx, BYTE PTR _a$4[ebp]
	push	edx
	call	_sao_calc_eo_cat
	add	esp, 12					; 0000000cH
	mov	DWORD PTR _eo_cat$1[ebp], eax

; 118  : 
; 119  :         new_data[0] = (kvz_pixel)CLIP(0, (1 << KVZ_BIT_DEPTH) - 1, c_data[0] + sao->offsets[eo_cat + offset_v]);

	mov	eax, 1
	imul	ecx, eax, 0
	mov	edx, DWORD PTR _c_data$6[ebp]
	movzx	eax, BYTE PTR [edx+ecx]
	mov	ecx, DWORD PTR _eo_cat$1[ebp]
	add	ecx, DWORD PTR _offset_v$[ebp]
	mov	edx, DWORD PTR _sao$[ebp]
	add	eax, DWORD PTR [edx+ecx*4+28]
	cmp	eax, 255				; 000000ffH
	jle	SHORT $LN19@sao_recons
	mov	DWORD PTR tv176[ebp], 255		; 000000ffH
	jmp	SHORT $LN20@sao_recons
$LN19@sao_recons:
	mov	eax, 1
	imul	ecx, eax, 0
	mov	edx, DWORD PTR _c_data$6[ebp]
	movzx	eax, BYTE PTR [edx+ecx]
	mov	ecx, DWORD PTR _eo_cat$1[ebp]
	add	ecx, DWORD PTR _offset_v$[ebp]
	mov	edx, DWORD PTR _sao$[ebp]
	add	eax, DWORD PTR [edx+ecx*4+28]
	mov	DWORD PTR tv176[ebp], eax
$LN20@sao_recons:
	cmp	DWORD PTR tv176[ebp], 0
	jge	SHORT $LN23@sao_recons
	mov	DWORD PTR tv196[ebp], 0
	jmp	SHORT $LN24@sao_recons
$LN23@sao_recons:
	mov	eax, 1
	imul	ecx, eax, 0
	mov	edx, DWORD PTR _c_data$6[ebp]
	movzx	eax, BYTE PTR [edx+ecx]
	mov	ecx, DWORD PTR _eo_cat$1[ebp]
	add	ecx, DWORD PTR _offset_v$[ebp]
	mov	edx, DWORD PTR _sao$[ebp]
	add	eax, DWORD PTR [edx+ecx*4+28]
	cmp	eax, 255				; 000000ffH
	jle	SHORT $LN21@sao_recons
	mov	DWORD PTR tv195[ebp], 255		; 000000ffH
	jmp	SHORT $LN22@sao_recons
$LN21@sao_recons:
	mov	eax, 1
	imul	ecx, eax, 0
	mov	edx, DWORD PTR _c_data$6[ebp]
	movzx	eax, BYTE PTR [edx+ecx]
	mov	ecx, DWORD PTR _eo_cat$1[ebp]
	add	ecx, DWORD PTR _offset_v$[ebp]
	mov	edx, DWORD PTR _sao$[ebp]
	add	eax, DWORD PTR [edx+ecx*4+28]
	mov	DWORD PTR tv195[ebp], eax
$LN22@sao_recons:
	mov	eax, DWORD PTR tv195[ebp]
	mov	DWORD PTR tv196[ebp], eax
$LN24@sao_recons:
	mov	ecx, 1
	imul	edx, ecx, 0
	mov	eax, DWORD PTR _new_data$5[ebp]
	mov	cl, BYTE PTR tv196[ebp]
	mov	BYTE PTR [eax+edx], cl

; 120  :       }

	jmp	$LN11@sao_recons
$LN12@sao_recons:

; 121  :     }

	jmp	$LN8@sao_recons
$LN1@sao_recons:

; 122  :   }
; 123  : }

	push	edx
	mov	ecx, ebp
	push	eax
	lea	edx, DWORD PTR $LN29@sao_recons
	call	@_RTC_CheckStackVars@8
	pop	eax
	pop	edx
	pop	edi
	pop	esi
	pop	ebx
	mov	ecx, DWORD PTR __$ArrayPad$[ebp]
	xor	ecx, ebp
	call	@__security_check_cookie@4
	add	esp, 1788				; 000006fcH
	cmp	ebp, esp
	call	__RTC_CheckEsp
	mov	esp, ebp
	pop	ebp
	ret	0
	npad	3
$LN29@sao_recons:
	DD	3
	DD	$LN28@sao_recons
$LN28@sao_recons:
	DD	-1044					; fffffbecH
	DD	1024					; 00000400H
	DD	$LN25@sao_recons
	DD	-1108					; fffffbacH
	DD	8
	DD	$LN26@sao_recons
	DD	-1124					; fffffb9cH
	DD	8
	DD	$LN27@sao_recons
$LN27@sao_recons:
	DB	98					; 00000062H
	DB	95					; 0000005fH
	DB	111					; 0000006fH
	DB	102					; 00000066H
	DB	115					; 00000073H
	DB	0
$LN26@sao_recons:
	DB	97					; 00000061H
	DB	95					; 0000005fH
	DB	111					; 0000006fH
	DB	102					; 00000066H
	DB	115					; 00000073H
	DB	0
$LN25@sao_recons:
	DB	111					; 0000006fH
	DB	102					; 00000066H
	DB	102					; 00000066H
	DB	115					; 00000073H
	DB	101					; 00000065H
	DB	116					; 00000074H
	DB	115					; 00000073H
	DB	0
_sao_reconstruct_color_generic ENDP
_TEXT	ENDS
; Function compile flags: /Odtp /RTCsu /ZI
; File F:\open_codec_learn_2021\kvazaar-master\src\strategies\generic\sao-generic.c
;	COMDAT _calc_sao_edge_dir_generic
_TEXT	SEGMENT
_eo_cat$1 = -112					; size = 4
_b$2 = -97						; size = 1
_c$3 = -85						; size = 1
_a$4 = -73						; size = 1
_c_data$5 = -64						; size = 4
_b_ofs$ = -52						; size = 8
_a_ofs$ = -36						; size = 8
_x$ = -20						; size = 4
_y$ = -8						; size = 4
_orig_data$ = 8						; size = 4
_rec_data$ = 12						; size = 4
_eo_class$ = 16						; size = 4
_block_width$ = 20					; size = 4
_block_height$ = 24					; size = 4
_cat_sum_cnt$ = 28					; size = 4
_calc_sao_edge_dir_generic PROC				; COMDAT

; 56   : {

	push	ebp
	mov	ebp, esp
	sub	esp, 308				; 00000134H
	push	ebx
	push	esi
	push	edi
	lea	edi, DWORD PTR [ebp-308]
	mov	ecx, 77					; 0000004dH
	mov	eax, -858993460				; ccccccccH
	rep stosd
	mov	ecx, OFFSET __5AB2F40D_sao-generic@c
	call	@__CheckForDebuggerJustMyCode@4

; 57   :   int y, x;
; 58   :   vector2d_t a_ofs = g_sao_edge_offsets[eo_class][0];

	mov	eax, DWORD PTR _eo_class$[ebp]
	shl	eax, 4
	mov	ecx, 8
	imul	edx, ecx, 0
	mov	ecx, DWORD PTR _g_sao_edge_offsets[eax+edx]
	mov	edx, DWORD PTR _g_sao_edge_offsets[eax+edx+4]
	mov	DWORD PTR _a_ofs$[ebp], ecx
	mov	DWORD PTR _a_ofs$[ebp+4], edx

; 59   :   vector2d_t b_ofs = g_sao_edge_offsets[eo_class][1];

	mov	eax, DWORD PTR _eo_class$[ebp]
	shl	eax, 4
	mov	ecx, 8
	shl	ecx, 0
	mov	edx, DWORD PTR _g_sao_edge_offsets[eax+ecx]
	mov	eax, DWORD PTR _g_sao_edge_offsets[eax+ecx+4]
	mov	DWORD PTR _b_ofs$[ebp], edx
	mov	DWORD PTR _b_ofs$[ebp+4], eax

; 60   :   // Arrays orig_data and rec_data are quarter size for chroma.
; 61   : 
; 62   :   // Don't sample the edge pixels because this function doesn't have access to
; 63   :   // their neighbours.
; 64   : 
; 65   :   
; 66   : 
; 67   :   for (y = 1; y < block_height - 1; ++y) {

	mov	DWORD PTR _y$[ebp], 1
	jmp	SHORT $LN4@calc_sao_e
$LN2@calc_sao_e:
	mov	eax, DWORD PTR _y$[ebp]
	add	eax, 1
	mov	DWORD PTR _y$[ebp], eax
$LN4@calc_sao_e:
	mov	eax, DWORD PTR _block_height$[ebp]
	sub	eax, 1
	cmp	DWORD PTR _y$[ebp], eax
	jge	$LN1@calc_sao_e

; 68   :     for (x = 1; x < block_width - 1; ++x) {

	mov	DWORD PTR _x$[ebp], 1
	jmp	SHORT $LN7@calc_sao_e
$LN5@calc_sao_e:
	mov	eax, DWORD PTR _x$[ebp]
	add	eax, 1
	mov	DWORD PTR _x$[ebp], eax
$LN7@calc_sao_e:
	mov	eax, DWORD PTR _block_width$[ebp]
	sub	eax, 1
	cmp	DWORD PTR _x$[ebp], eax
	jge	$LN6@calc_sao_e

; 69   :       const kvz_pixel *c_data = &rec_data[y * block_width + x];

	mov	eax, DWORD PTR _y$[ebp]
	imul	eax, DWORD PTR _block_width$[ebp]
	add	eax, DWORD PTR _x$[ebp]
	add	eax, DWORD PTR _rec_data$[ebp]
	mov	DWORD PTR _c_data$5[ebp], eax

; 70   :       kvz_pixel a = c_data[a_ofs.y * block_width + a_ofs.x];

	mov	eax, DWORD PTR _a_ofs$[ebp+4]
	imul	eax, DWORD PTR _block_width$[ebp]
	add	eax, DWORD PTR _a_ofs$[ebp]
	mov	ecx, DWORD PTR _c_data$5[ebp]
	mov	dl, BYTE PTR [ecx+eax]
	mov	BYTE PTR _a$4[ebp], dl

; 71   :       kvz_pixel c = c_data[0];

	mov	eax, 1
	imul	ecx, eax, 0
	mov	edx, DWORD PTR _c_data$5[ebp]
	mov	al, BYTE PTR [edx+ecx]
	mov	BYTE PTR _c$3[ebp], al

; 72   :       kvz_pixel b = c_data[b_ofs.y * block_width + b_ofs.x];

	mov	eax, DWORD PTR _b_ofs$[ebp+4]
	imul	eax, DWORD PTR _block_width$[ebp]
	add	eax, DWORD PTR _b_ofs$[ebp]
	mov	ecx, DWORD PTR _c_data$5[ebp]
	mov	dl, BYTE PTR [ecx+eax]
	mov	BYTE PTR _b$2[ebp], dl

; 73   : 
; 74   :       int eo_cat = sao_calc_eo_cat(a, b, c);

	movzx	eax, BYTE PTR _c$3[ebp]
	push	eax
	movzx	ecx, BYTE PTR _b$2[ebp]
	push	ecx
	movzx	edx, BYTE PTR _a$4[ebp]
	push	edx
	call	_sao_calc_eo_cat
	add	esp, 12					; 0000000cH
	mov	DWORD PTR _eo_cat$1[ebp], eax

; 75   : 
; 76   :       cat_sum_cnt[0][eo_cat] += orig_data[y * block_width + x] - c;

	mov	eax, 20					; 00000014H
	imul	ecx, eax, 0
	add	ecx, DWORD PTR _cat_sum_cnt$[ebp]
	mov	edx, DWORD PTR _y$[ebp]
	imul	edx, DWORD PTR _block_width$[ebp]
	add	edx, DWORD PTR _x$[ebp]
	mov	eax, DWORD PTR _orig_data$[ebp]
	movzx	edx, BYTE PTR [eax+edx]
	movzx	eax, BYTE PTR _c$3[ebp]
	sub	edx, eax
	mov	eax, DWORD PTR _eo_cat$1[ebp]
	add	edx, DWORD PTR [ecx+eax*4]
	mov	ecx, 20					; 00000014H
	imul	eax, ecx, 0
	add	eax, DWORD PTR _cat_sum_cnt$[ebp]
	mov	ecx, DWORD PTR _eo_cat$1[ebp]
	mov	DWORD PTR [eax+ecx*4], edx

; 77   :       cat_sum_cnt[1][eo_cat] += 1;

	mov	eax, 20					; 00000014H
	shl	eax, 0
	add	eax, DWORD PTR _cat_sum_cnt$[ebp]
	mov	ecx, DWORD PTR _eo_cat$1[ebp]
	mov	edx, DWORD PTR [eax+ecx*4]
	add	edx, 1
	mov	eax, 20					; 00000014H
	shl	eax, 0
	add	eax, DWORD PTR _cat_sum_cnt$[ebp]
	mov	ecx, DWORD PTR _eo_cat$1[ebp]
	mov	DWORD PTR [eax+ecx*4], edx

; 78   :     }

	jmp	$LN5@calc_sao_e
$LN6@calc_sao_e:

; 79   :   }

	jmp	$LN2@calc_sao_e
$LN1@calc_sao_e:

; 80   : }

	push	edx
	mov	ecx, ebp
	push	eax
	lea	edx, DWORD PTR $LN12@calc_sao_e
	call	@_RTC_CheckStackVars@8
	pop	eax
	pop	edx
	pop	edi
	pop	esi
	pop	ebx
	add	esp, 308				; 00000134H
	cmp	ebp, esp
	call	__RTC_CheckEsp
	mov	esp, ebp
	pop	ebp
	ret	0
$LN12@calc_sao_e:
	DD	2
	DD	$LN11@calc_sao_e
$LN11@calc_sao_e:
	DD	-36					; ffffffdcH
	DD	8
	DD	$LN9@calc_sao_e
	DD	-52					; ffffffccH
	DD	8
	DD	$LN10@calc_sao_e
$LN10@calc_sao_e:
	DB	98					; 00000062H
	DB	95					; 0000005fH
	DB	111					; 0000006fH
	DB	102					; 00000066H
	DB	115					; 00000073H
	DB	0
$LN9@calc_sao_e:
	DB	97					; 00000061H
	DB	95					; 0000005fH
	DB	111					; 0000006fH
	DB	102					; 00000066H
	DB	115					; 00000073H
	DB	0
_calc_sao_edge_dir_generic ENDP
_TEXT	ENDS
; Function compile flags: /Odtp /RTCsu /ZI
; File F:\open_codec_learn_2021\kvazaar-master\src\strategies\generic\sao_shared_generics.h
;	COMDAT _sao_band_ddistortion_generic
_TEXT	SEGMENT
tv90 = -340						; size = 4
_dmask$1 = -140						; size = 4
_delta$2 = -128						; size = 4
_diff$3 = -116						; size = 4
_offset$4 = -104					; size = 4
_band$5 = -92						; size = 4
_orig$6 = -77						; size = 1
_rec$7 = -65						; size = 1
_curr_pos$8 = -56					; size = 4
_sum$ = -44						; size = 4
_shift$ = -32						; size = 4
_x$ = -20						; size = 4
_y$ = -8						; size = 4
_state$ = 8						; size = 4
_orig_data$ = 12					; size = 4
_rec_data$ = 16						; size = 4
_block_width$ = 20					; size = 4
_block_height$ = 24					; size = 4
_band_pos$ = 28						; size = 4
_sao_bands$ = 32					; size = 4
_sao_band_ddistortion_generic PROC			; COMDAT

; 97   : {

	push	ebp
	mov	ebp, esp
	sub	esp, 340				; 00000154H
	push	ebx
	push	esi
	push	edi
	lea	edi, DWORD PTR [ebp-340]
	mov	ecx, 85					; 00000055H
	mov	eax, -858993460				; ccccccccH
	rep stosd
	mov	ecx, OFFSET __45BE13D6_sao_shared_generics@h
	call	@__CheckForDebuggerJustMyCode@4

; 98   :   int y, x;
; 99   :   int shift = state->encoder_control->bitdepth-5;

	mov	eax, DWORD PTR _state$[ebp]
	mov	ecx, DWORD PTR [eax]
	movsx	edx, BYTE PTR [ecx+2532]
	sub	edx, 5
	mov	DWORD PTR _shift$[ebp], edx

; 100  :   int sum = 0;

	mov	DWORD PTR _sum$[ebp], 0

; 101  :   for (y = 0; y < block_height; ++y) {

	mov	DWORD PTR _y$[ebp], 0
	jmp	SHORT $LN4@sao_band_d
$LN2@sao_band_d:
	mov	eax, DWORD PTR _y$[ebp]
	add	eax, 1
	mov	DWORD PTR _y$[ebp], eax
$LN4@sao_band_d:
	mov	eax, DWORD PTR _y$[ebp]
	cmp	eax, DWORD PTR _block_height$[ebp]
	jge	$LN3@sao_band_d

; 102  :     for (x = 0; x < block_width; ++x) {

	mov	DWORD PTR _x$[ebp], 0
	jmp	SHORT $LN7@sao_band_d
$LN5@sao_band_d:
	mov	eax, DWORD PTR _x$[ebp]
	add	eax, 1
	mov	DWORD PTR _x$[ebp], eax
$LN7@sao_band_d:
	mov	eax, DWORD PTR _x$[ebp]
	cmp	eax, DWORD PTR _block_width$[ebp]
	jge	$LN6@sao_band_d

; 103  :       const int32_t curr_pos = y * block_width + x;

	mov	eax, DWORD PTR _y$[ebp]
	imul	eax, DWORD PTR _block_width$[ebp]
	add	eax, DWORD PTR _x$[ebp]
	mov	DWORD PTR _curr_pos$8[ebp], eax

; 104  : 
; 105  :       kvz_pixel rec  =  rec_data[curr_pos];

	mov	eax, DWORD PTR _rec_data$[ebp]
	add	eax, DWORD PTR _curr_pos$8[ebp]
	mov	cl, BYTE PTR [eax]
	mov	BYTE PTR _rec$7[ebp], cl

; 106  :       kvz_pixel orig = orig_data[curr_pos];

	mov	eax, DWORD PTR _orig_data$[ebp]
	add	eax, DWORD PTR _curr_pos$8[ebp]
	mov	cl, BYTE PTR [eax]
	mov	BYTE PTR _orig$6[ebp], cl

; 107  : 
; 108  :       int32_t band = (rec >> shift) - band_pos;

	movzx	eax, BYTE PTR _rec$7[ebp]
	mov	ecx, DWORD PTR _shift$[ebp]
	sar	eax, cl
	sub	eax, DWORD PTR _band_pos$[ebp]
	mov	DWORD PTR _band$5[ebp], eax

; 109  :       int32_t offset = 0;

	mov	DWORD PTR _offset$4[ebp], 0

; 110  :       if (band >= 0 && band <= 3) {

	cmp	DWORD PTR _band$5[ebp], 0
	jl	SHORT $LN8@sao_band_d
	cmp	DWORD PTR _band$5[ebp], 3
	jg	SHORT $LN8@sao_band_d

; 111  :         offset = sao_bands[band];

	mov	eax, DWORD PTR _band$5[ebp]
	mov	ecx, DWORD PTR _sao_bands$[ebp]
	mov	edx, DWORD PTR [ecx+eax*4]
	mov	DWORD PTR _offset$4[ebp], edx
$LN8@sao_band_d:

; 112  :       }
; 113  :       // Offset is applied to reconstruction, so it is subtracted from diff.
; 114  : 
; 115  :       int32_t diff  = orig - rec;

	movzx	eax, BYTE PTR _orig$6[ebp]
	movzx	ecx, BYTE PTR _rec$7[ebp]
	sub	eax, ecx
	mov	DWORD PTR _diff$3[ebp], eax

; 116  :       int32_t delta = diff - offset;

	mov	eax, DWORD PTR _diff$3[ebp]
	sub	eax, DWORD PTR _offset$4[ebp]
	mov	DWORD PTR _delta$2[ebp], eax

; 117  : 
; 118  :       int32_t dmask = (offset == 0) ? -1 : 0;

	cmp	DWORD PTR _offset$4[ebp], 0
	jne	SHORT $LN10@sao_band_d
	mov	DWORD PTR tv90[ebp], -1
	jmp	SHORT $LN11@sao_band_d
$LN10@sao_band_d:
	mov	DWORD PTR tv90[ebp], 0
$LN11@sao_band_d:
	mov	eax, DWORD PTR tv90[ebp]
	mov	DWORD PTR _dmask$1[ebp], eax

; 119  :       diff  &= ~dmask;

	mov	eax, DWORD PTR _dmask$1[ebp]
	not	eax
	and	eax, DWORD PTR _diff$3[ebp]
	mov	DWORD PTR _diff$3[ebp], eax

; 120  :       delta &= ~dmask;

	mov	eax, DWORD PTR _dmask$1[ebp]
	not	eax
	and	eax, DWORD PTR _delta$2[ebp]
	mov	DWORD PTR _delta$2[ebp], eax

; 121  : 
; 122  :       sum += delta * delta - diff * diff;

	mov	eax, DWORD PTR _delta$2[ebp]
	imul	eax, DWORD PTR _delta$2[ebp]
	mov	ecx, DWORD PTR _diff$3[ebp]
	imul	ecx, DWORD PTR _diff$3[ebp]
	sub	eax, ecx
	add	eax, DWORD PTR _sum$[ebp]
	mov	DWORD PTR _sum$[ebp], eax

; 123  :     }

	jmp	$LN5@sao_band_d
$LN6@sao_band_d:

; 124  :   }

	jmp	$LN2@sao_band_d
$LN3@sao_band_d:

; 125  : 
; 126  :   return sum;

	mov	eax, DWORD PTR _sum$[ebp]

; 127  : }

	pop	edi
	pop	esi
	pop	ebx
	add	esp, 340				; 00000154H
	cmp	ebp, esp
	call	__RTC_CheckEsp
	mov	esp, ebp
	pop	ebp
	ret	0
_sao_band_ddistortion_generic ENDP
_TEXT	ENDS
; Function compile flags: /Odtp /RTCsu /ZI
; File F:\open_codec_learn_2021\kvazaar-master\src\strategies\generic\sao_shared_generics.h
;	COMDAT _sao_edge_ddistortion_generic
_TEXT	SEGMENT
_curr$1 = -208						; size = 4
_delta$2 = -196						; size = 4
_diff$3 = -184						; size = 4
_offset$4 = -172					; size = 4
_eo_cat$5 = -160					; size = 4
_orig$6 = -145						; size = 1
_c$7 = -133						; size = 1
_b$8 = -121						; size = 1
_a$9 = -109						; size = 1
_b_pos$10 = -100					; size = 4
_a_pos$11 = -88						; size = 4
_c_pos$12 = -76						; size = 4
_b_ofs$ = -64						; size = 8
_a_ofs$ = -48						; size = 8
_sum$ = -32						; size = 4
_x$ = -20						; size = 4
_y$ = -8						; size = 4
_orig_data$ = 8						; size = 4
_rec_data$ = 12						; size = 4
_block_width$ = 16					; size = 4
_block_height$ = 20					; size = 4
_eo_class$ = 24						; size = 4
_offsets$ = 28						; size = 4
_sao_edge_ddistortion_generic PROC			; COMDAT

; 58   : {

	push	ebp
	mov	ebp, esp
	sub	esp, 404				; 00000194H
	push	ebx
	push	esi
	push	edi
	lea	edi, DWORD PTR [ebp-404]
	mov	ecx, 101				; 00000065H
	mov	eax, -858993460				; ccccccccH
	rep stosd
	mov	ecx, OFFSET __45BE13D6_sao_shared_generics@h
	call	@__CheckForDebuggerJustMyCode@4

; 59   :   int y, x;
; 60   :   int32_t sum = 0;

	mov	DWORD PTR _sum$[ebp], 0

; 61   :   vector2d_t a_ofs = g_sao_edge_offsets[eo_class][0];

	mov	eax, DWORD PTR _eo_class$[ebp]
	shl	eax, 4
	mov	ecx, 8
	imul	edx, ecx, 0
	mov	ecx, DWORD PTR _g_sao_edge_offsets[eax+edx]
	mov	edx, DWORD PTR _g_sao_edge_offsets[eax+edx+4]
	mov	DWORD PTR _a_ofs$[ebp], ecx
	mov	DWORD PTR _a_ofs$[ebp+4], edx

; 62   :   vector2d_t b_ofs = g_sao_edge_offsets[eo_class][1];

	mov	eax, DWORD PTR _eo_class$[ebp]
	shl	eax, 4
	mov	ecx, 8
	shl	ecx, 0
	mov	edx, DWORD PTR _g_sao_edge_offsets[eax+ecx]
	mov	eax, DWORD PTR _g_sao_edge_offsets[eax+ecx+4]
	mov	DWORD PTR _b_ofs$[ebp], edx
	mov	DWORD PTR _b_ofs$[ebp+4], eax

; 63   : 
; 64   :   for (y = 1; y < block_height - 1; y++) {

	mov	DWORD PTR _y$[ebp], 1
	jmp	SHORT $LN4@sao_edge_d
$LN2@sao_edge_d:
	mov	eax, DWORD PTR _y$[ebp]
	add	eax, 1
	mov	DWORD PTR _y$[ebp], eax
$LN4@sao_edge_d:
	mov	eax, DWORD PTR _block_height$[ebp]
	sub	eax, 1
	cmp	DWORD PTR _y$[ebp], eax
	jge	$LN3@sao_edge_d

; 65   :     for (x = 1; x < block_width - 1; x++) {

	mov	DWORD PTR _x$[ebp], 1
	jmp	SHORT $LN7@sao_edge_d
$LN5@sao_edge_d:
	mov	eax, DWORD PTR _x$[ebp]
	add	eax, 1
	mov	DWORD PTR _x$[ebp], eax
$LN7@sao_edge_d:
	mov	eax, DWORD PTR _block_width$[ebp]
	sub	eax, 1
	cmp	DWORD PTR _x$[ebp], eax
	jge	$LN6@sao_edge_d

; 66   :       uint32_t c_pos =  y            * block_width + x;

	mov	eax, DWORD PTR _y$[ebp]
	imul	eax, DWORD PTR _block_width$[ebp]
	add	eax, DWORD PTR _x$[ebp]
	mov	DWORD PTR _c_pos$12[ebp], eax

; 67   :       uint32_t a_pos = (y + a_ofs.y) * block_width + x + a_ofs.x;

	mov	eax, DWORD PTR _y$[ebp]
	add	eax, DWORD PTR _a_ofs$[ebp+4]
	imul	eax, DWORD PTR _block_width$[ebp]
	add	eax, DWORD PTR _x$[ebp]
	add	eax, DWORD PTR _a_ofs$[ebp]
	mov	DWORD PTR _a_pos$11[ebp], eax

; 68   :       uint32_t b_pos = (y + b_ofs.y) * block_width + x + b_ofs.x;

	mov	eax, DWORD PTR _y$[ebp]
	add	eax, DWORD PTR _b_ofs$[ebp+4]
	imul	eax, DWORD PTR _block_width$[ebp]
	add	eax, DWORD PTR _x$[ebp]
	add	eax, DWORD PTR _b_ofs$[ebp]
	mov	DWORD PTR _b_pos$10[ebp], eax

; 69   : 
; 70   :       uint8_t   a    =  rec_data[a_pos];

	mov	eax, DWORD PTR _rec_data$[ebp]
	add	eax, DWORD PTR _a_pos$11[ebp]
	mov	cl, BYTE PTR [eax]
	mov	BYTE PTR _a$9[ebp], cl

; 71   :       uint8_t   b    =  rec_data[b_pos];

	mov	eax, DWORD PTR _rec_data$[ebp]
	add	eax, DWORD PTR _b_pos$10[ebp]
	mov	cl, BYTE PTR [eax]
	mov	BYTE PTR _b$8[ebp], cl

; 72   :       uint8_t   c    =  rec_data[c_pos];

	mov	eax, DWORD PTR _rec_data$[ebp]
	add	eax, DWORD PTR _c_pos$12[ebp]
	mov	cl, BYTE PTR [eax]
	mov	BYTE PTR _c$7[ebp], cl

; 73   :       uint8_t   orig = orig_data[c_pos];

	mov	eax, DWORD PTR _orig_data$[ebp]
	add	eax, DWORD PTR _c_pos$12[ebp]
	mov	cl, BYTE PTR [eax]
	mov	BYTE PTR _orig$6[ebp], cl

; 74   : 
; 75   :       int32_t eo_cat = sao_calc_eo_cat(a, b, c);

	movzx	eax, BYTE PTR _c$7[ebp]
	push	eax
	movzx	ecx, BYTE PTR _b$8[ebp]
	push	ecx
	movzx	edx, BYTE PTR _a$9[ebp]
	push	edx
	call	_sao_calc_eo_cat
	add	esp, 12					; 0000000cH
	mov	DWORD PTR _eo_cat$5[ebp], eax

; 76   :       int32_t offset = offsets[eo_cat];

	mov	eax, DWORD PTR _eo_cat$5[ebp]
	mov	ecx, DWORD PTR _offsets$[ebp]
	mov	edx, DWORD PTR [ecx+eax*4]
	mov	DWORD PTR _offset$4[ebp], edx

; 77   : 
; 78   :       if (offset != 0) {

	cmp	DWORD PTR _offset$4[ebp], 0
	je	SHORT $LN8@sao_edge_d

; 79   :         int32_t diff   = orig - c;

	movzx	eax, BYTE PTR _orig$6[ebp]
	movzx	ecx, BYTE PTR _c$7[ebp]
	sub	eax, ecx
	mov	DWORD PTR _diff$3[ebp], eax

; 80   :         int32_t delta  = diff - offset;

	mov	eax, DWORD PTR _diff$3[ebp]
	sub	eax, DWORD PTR _offset$4[ebp]
	mov	DWORD PTR _delta$2[ebp], eax

; 81   :         int32_t curr   = delta * delta - diff * diff;

	mov	eax, DWORD PTR _delta$2[ebp]
	imul	eax, DWORD PTR _delta$2[ebp]
	mov	ecx, DWORD PTR _diff$3[ebp]
	imul	ecx, DWORD PTR _diff$3[ebp]
	sub	eax, ecx
	mov	DWORD PTR _curr$1[ebp], eax

; 82   : 
; 83   :         sum += curr;

	mov	eax, DWORD PTR _sum$[ebp]
	add	eax, DWORD PTR _curr$1[ebp]
	mov	DWORD PTR _sum$[ebp], eax
$LN8@sao_edge_d:

; 84   :       }
; 85   :     }

	jmp	$LN5@sao_edge_d
$LN6@sao_edge_d:

; 86   :   }

	jmp	$LN2@sao_edge_d
$LN3@sao_edge_d:

; 87   :   return sum;

	mov	eax, DWORD PTR _sum$[ebp]

; 88   : }

	push	edx
	mov	ecx, ebp
	push	eax
	lea	edx, DWORD PTR $LN13@sao_edge_d
	call	@_RTC_CheckStackVars@8
	pop	eax
	pop	edx
	pop	edi
	pop	esi
	pop	ebx
	add	esp, 404				; 00000194H
	cmp	ebp, esp
	call	__RTC_CheckEsp
	mov	esp, ebp
	pop	ebp
	ret	0
	npad	3
$LN13@sao_edge_d:
	DD	2
	DD	$LN12@sao_edge_d
$LN12@sao_edge_d:
	DD	-48					; ffffffd0H
	DD	8
	DD	$LN10@sao_edge_d
	DD	-64					; ffffffc0H
	DD	8
	DD	$LN11@sao_edge_d
$LN11@sao_edge_d:
	DB	98					; 00000062H
	DB	95					; 0000005fH
	DB	111					; 0000006fH
	DB	102					; 00000066H
	DB	115					; 00000073H
	DB	0
$LN10@sao_edge_d:
	DB	97					; 00000061H
	DB	95					; 0000005fH
	DB	111					; 0000006fH
	DB	102					; 00000066H
	DB	115					; 00000073H
	DB	0
_sao_edge_ddistortion_generic ENDP
_TEXT	ENDS
; Function compile flags: /Odtp /RTCsu /ZI
; File F:\open_codec_learn_2021\kvazaar-master\src\strategies\generic\sao_shared_generics.h
;	COMDAT _sao_calc_eo_cat
_TEXT	SEGMENT
tv84 = -220						; size = 4
tv85 = -216						; size = 4
tv72 = -212						; size = 4
tv73 = -208						; size = 4
_eo_idx$ = -8						; size = 4
_a$ = 8							; size = 1
_b$ = 12						; size = 1
_c$ = 16						; size = 1
_sao_calc_eo_cat PROC					; COMDAT

; 43   : {

	push	ebp
	mov	ebp, esp
	sub	esp, 220				; 000000dcH
	push	ebx
	push	esi
	push	edi
	lea	edi, DWORD PTR [ebp-220]
	mov	ecx, 55					; 00000037H
	mov	eax, -858993460				; ccccccccH
	rep stosd
	mov	ecx, OFFSET __45BE13D6_sao_shared_generics@h
	call	@__CheckForDebuggerJustMyCode@4

; 44   :   // Mapping relationships between a, b and c to eo_idx.
; 45   :   static const int sao_eo_idx_to_eo_category[] = { 1, 2, 0, 3, 4 };
; 46   : 
; 47   :   int eo_idx = 2 + SIGN3((int)c - (int)a) + SIGN3((int)c - (int)b);

	movzx	eax, BYTE PTR _c$[ebp]
	movzx	ecx, BYTE PTR _a$[ebp]
	sub	eax, ecx
	test	eax, eax
	jle	SHORT $LN5@sao_calc_e
	mov	DWORD PTR tv73[ebp], 1
	jmp	SHORT $LN6@sao_calc_e
$LN5@sao_calc_e:
	mov	DWORD PTR tv73[ebp], 0
$LN6@sao_calc_e:
	movzx	edx, BYTE PTR _c$[ebp]
	movzx	eax, BYTE PTR _a$[ebp]
	sub	edx, eax
	jns	SHORT $LN3@sao_calc_e
	mov	DWORD PTR tv72[ebp], 1
	jmp	SHORT $LN4@sao_calc_e
$LN3@sao_calc_e:
	mov	DWORD PTR tv72[ebp], 0
$LN4@sao_calc_e:
	movzx	ecx, BYTE PTR _c$[ebp]
	movzx	edx, BYTE PTR _b$[ebp]
	sub	ecx, edx
	test	ecx, ecx
	jle	SHORT $LN9@sao_calc_e
	mov	DWORD PTR tv85[ebp], 1
	jmp	SHORT $LN10@sao_calc_e
$LN9@sao_calc_e:
	mov	DWORD PTR tv85[ebp], 0
$LN10@sao_calc_e:
	movzx	eax, BYTE PTR _c$[ebp]
	movzx	ecx, BYTE PTR _b$[ebp]
	sub	eax, ecx
	jns	SHORT $LN7@sao_calc_e
	mov	DWORD PTR tv84[ebp], 1
	jmp	SHORT $LN8@sao_calc_e
$LN7@sao_calc_e:
	mov	DWORD PTR tv84[ebp], 0
$LN8@sao_calc_e:
	mov	edx, DWORD PTR tv73[ebp]
	sub	edx, DWORD PTR tv72[ebp]
	mov	eax, DWORD PTR tv85[ebp]
	sub	eax, DWORD PTR tv84[ebp]
	lea	ecx, DWORD PTR [edx+eax+2]
	mov	DWORD PTR _eo_idx$[ebp], ecx

; 48   : 
; 49   :   return sao_eo_idx_to_eo_category[eo_idx];

	mov	eax, DWORD PTR _eo_idx$[ebp]
	mov	eax, DWORD PTR ?sao_eo_idx_to_eo_category@?1??sao_calc_eo_cat@@9@9[eax*4]

; 50   : }

	pop	edi
	pop	esi
	pop	ebx
	add	esp, 220				; 000000dcH
	cmp	ebp, esp
	call	__RTC_CheckEsp
	mov	esp, ebp
	pop	ebp
	ret	0
_sao_calc_eo_cat ENDP
_TEXT	ENDS
; Function compile flags: /Odtp /RTCsu /ZI
; File F:\open_codec_learn_2021\kvazaar-master\src\strategies\generic\sao-generic.c
;	COMDAT _kvz_strategy_register_sao_generic
_TEXT	SEGMENT
tv138 = -208						; size = 4
tv95 = -208						; size = 4
tv84 = -208						; size = 4
tv73 = -208						; size = 4
_success$ = -5						; size = 1
_opaque$ = 8						; size = 4
_bitdepth$ = 12						; size = 1
_kvz_strategy_register_sao_generic PROC			; COMDAT

; 128  : {

	push	ebp
	mov	ebp, esp
	sub	esp, 208				; 000000d0H
	push	ebx
	push	esi
	push	edi
	lea	edi, DWORD PTR [ebp-208]
	mov	ecx, 52					; 00000034H
	mov	eax, -858993460				; ccccccccH
	rep stosd
	mov	ecx, OFFSET __5AB2F40D_sao-generic@c
	call	@__CheckForDebuggerJustMyCode@4

; 129  :   bool success = true;

	mov	BYTE PTR _success$[ebp], 1

; 130  : 
; 131  :   success &= kvz_strategyselector_register(opaque, "sao_edge_ddistortion", "generic", 0, &sao_edge_ddistortion_generic);

	movzx	esi, BYTE PTR _success$[ebp]
	push	OFFSET _sao_edge_ddistortion_generic
	push	0
	push	OFFSET ??_C@_07DCLBNMLN@generic@
	push	OFFSET ??_C@_0BF@LGILOHOJ@sao_edge_ddistortion@
	mov	eax, DWORD PTR _opaque$[ebp]
	push	eax
	call	_kvz_strategyselector_register
	add	esp, 20					; 00000014H
	and	esi, eax
	jne	SHORT $LN3@kvz_strate
	mov	DWORD PTR tv73[ebp], 0
	jmp	SHORT $LN4@kvz_strate
$LN3@kvz_strate:
	mov	DWORD PTR tv73[ebp], 1
$LN4@kvz_strate:
	mov	cl, BYTE PTR tv73[ebp]
	mov	BYTE PTR _success$[ebp], cl

; 132  :   success &= kvz_strategyselector_register(opaque, "calc_sao_edge_dir", "generic", 0, &calc_sao_edge_dir_generic);

	movzx	esi, BYTE PTR _success$[ebp]
	push	OFFSET _calc_sao_edge_dir_generic
	push	0
	push	OFFSET ??_C@_07DCLBNMLN@generic@
	push	OFFSET ??_C@_0BC@OCNKGNNI@calc_sao_edge_dir@
	mov	eax, DWORD PTR _opaque$[ebp]
	push	eax
	call	_kvz_strategyselector_register
	add	esp, 20					; 00000014H
	and	esi, eax
	jne	SHORT $LN5@kvz_strate
	mov	DWORD PTR tv84[ebp], 0
	jmp	SHORT $LN6@kvz_strate
$LN5@kvz_strate:
	mov	DWORD PTR tv84[ebp], 1
$LN6@kvz_strate:
	mov	cl, BYTE PTR tv84[ebp]
	mov	BYTE PTR _success$[ebp], cl

; 133  :   success &= kvz_strategyselector_register(opaque, "sao_reconstruct_color", "generic", 0, &sao_reconstruct_color_generic);

	movzx	esi, BYTE PTR _success$[ebp]
	push	OFFSET _sao_reconstruct_color_generic
	push	0
	push	OFFSET ??_C@_07DCLBNMLN@generic@
	push	OFFSET ??_C@_0BG@IJPOOFFG@sao_reconstruct_color@
	mov	eax, DWORD PTR _opaque$[ebp]
	push	eax
	call	_kvz_strategyselector_register
	add	esp, 20					; 00000014H
	and	esi, eax
	jne	SHORT $LN7@kvz_strate
	mov	DWORD PTR tv95[ebp], 0
	jmp	SHORT $LN8@kvz_strate
$LN7@kvz_strate:
	mov	DWORD PTR tv95[ebp], 1
$LN8@kvz_strate:
	mov	cl, BYTE PTR tv95[ebp]
	mov	BYTE PTR _success$[ebp], cl

; 134  :   success &= kvz_strategyselector_register(opaque, "sao_band_ddistortion", "generic", 0, &sao_band_ddistortion_generic);

	movzx	esi, BYTE PTR _success$[ebp]
	push	OFFSET _sao_band_ddistortion_generic
	push	0
	push	OFFSET ??_C@_07DCLBNMLN@generic@
	push	OFFSET ??_C@_0BF@HDNLAKN@sao_band_ddistortion@
	mov	eax, DWORD PTR _opaque$[ebp]
	push	eax
	call	_kvz_strategyselector_register
	add	esp, 20					; 00000014H
	and	esi, eax
	jne	SHORT $LN9@kvz_strate
	mov	DWORD PTR tv138[ebp], 0
	jmp	SHORT $LN10@kvz_strate
$LN9@kvz_strate:
	mov	DWORD PTR tv138[ebp], 1
$LN10@kvz_strate:
	mov	cl, BYTE PTR tv138[ebp]
	mov	BYTE PTR _success$[ebp], cl

; 135  : 
; 136  :   return success;

	movzx	eax, BYTE PTR _success$[ebp]

; 137  : }

	pop	edi
	pop	esi
	pop	ebx
	add	esp, 208				; 000000d0H
	cmp	ebp, esp
	call	__RTC_CheckEsp
	mov	esp, ebp
	pop	ebp
	ret	0
_kvz_strategy_register_sao_generic ENDP
_TEXT	ENDS
END
