; Listing generated by Microsoft (R) Optimizing Compiler Version 19.26.28806.0 

include listing.inc

INCLUDELIB MSVCRTD
INCLUDELIB OLDNAMES

msvcjmc	SEGMENT
__1850469A_corecrt_stdio_config@h DB 01H
__01D10305_corecrt_wstdio@h DB 01H
__9FF75F13_stdio@h DB 01H
__ED9CC025_corecrt_memcpy_s@h DB 01H
__45AE7532_corecrt_wconio@h DB 01H
__F82F49DA_corecrt_wio@h DB 01H
__875914C9_corecrt_wstring@h DB 01H
__8DC84CAD_corecrt_wtime@h DB 01H
__1DD914C8_stat@h DB 01H
__61D1BCEE_wchar@h DB 01H
__E2865EBA_corecrt_math@h DB 01H
__F5601360_stdlib@h DB 01H
__180FC352_cstdlib DB 01H
__3932F226_limits DB 01H
__6750BE0F_type_traits DB 01H
__B2B7B48F_ratio DB 01H
__CF01F9AA_time@h DB 01H
__39C46D1D_vcruntime_new@h DB 01H
__5DDFF4AC_chrono DB 01H
__614D3496_malloc@h DB 01H
__41172C56_vcruntime_exception@h DB 01H
__8EEC81FD_exception DB 01H
__241EEA0C_corecrt_memory@h DB 01H
__731387C4_string@h DB 01H
__07599918_vcruntime_typeinfo@h DB 01H
__7A726CBB_typeinfo DB 01H
__0AAD9FA2_xutility DB 01H
__4597251A_xmemory DB 01H
__859CFEA8_memory DB 01H
__3144A386_xstring DB 01H
__07A2BBA0_stdexcept DB 01H
__78819C50_xcall_once@h DB 01H
__C7DC8E70_system_error DB 01H
__78273460_tuple DB 01H
__A7A88A06_xthreads@h DB 01H
__5ED1861E_thread DB 01H
__A01ABEDF_mutex DB 01H
__5DFCCD2F_condition_variable DB 01H
__DE6DF6A9_shared_mutex DB 01H
__F047FC90_pthread@cpp DB 01H
__2F0246D9_utility DB 01H
__84E00D2B_xatomic@h DB 01H
__D81DD1CB_xstddef DB 01H
msvcjmc	ENDS
CONST	SEGMENT
?adopt_lock@std@@3Uadopt_lock_t@1@B	ORG $+1		; std::adopt_lock
CONST	ENDS
PUBLIC	pthread_cond_broadcast
PUBLIC	pthread_cond_destroy
PUBLIC	pthread_cond_init
PUBLIC	pthread_cond_signal
PUBLIC	pthread_cond_wait
PUBLIC	pthread_create
PUBLIC	pthread_exit
PUBLIC	pthread_join
PUBLIC	pthread_mutex_destroy
PUBLIC	pthread_mutex_init
PUBLIC	pthread_mutex_lock
PUBLIC	pthread_mutex_unlock
PUBLIC	pthread_rwlock_init
PUBLIC	pthread_rwlock_destroy
PUBLIC	pthread_rwlock_rdlock
PUBLIC	pthread_rwlock_wrlock
PUBLIC	pthread_rwlock_unlock
PUBLIC	?_Check_C_return@std@@YAHH@Z			; std::_Check_C_return
PUBLIC	??1thread@std@@QEAA@XZ				; std::thread::~thread
PUBLIC	?joinable@thread@std@@QEBA_NXZ			; std::thread::joinable
PUBLIC	?join@thread@std@@QEAAXXZ			; std::thread::join
PUBLIC	??_Gthread@std@@QEAAPEAXI@Z			; std::thread::`scalar deleting destructor'
PUBLIC	??0_Mutex_base@std@@QEAA@H@Z			; std::_Mutex_base::_Mutex_base
PUBLIC	??1_Mutex_base@std@@QEAA@XZ			; std::_Mutex_base::~_Mutex_base
PUBLIC	?lock@_Mutex_base@std@@QEAAXXZ			; std::_Mutex_base::lock
PUBLIC	?unlock@_Mutex_base@std@@QEAAXXZ		; std::_Mutex_base::unlock
PUBLIC	?_Mymtx@_Mutex_base@std@@AEAAPEAU_Mtx_internal_imp_t@@XZ ; std::_Mutex_base::_Mymtx
PUBLIC	??0mutex@std@@QEAA@XZ				; std::mutex::mutex
PUBLIC	??1mutex@std@@QEAA@XZ				; std::mutex::~mutex
PUBLIC	??_Gmutex@std@@QEAAPEAXI@Z			; std::mutex::`scalar deleting destructor'
PUBLIC	??0condition_variable@std@@QEAA@XZ		; std::condition_variable::condition_variable
PUBLIC	??1condition_variable@std@@QEAA@XZ		; std::condition_variable::~condition_variable
PUBLIC	?notify_one@condition_variable@std@@QEAAXXZ	; std::condition_variable::notify_one
PUBLIC	?notify_all@condition_variable@std@@QEAAXXZ	; std::condition_variable::notify_all
PUBLIC	?wait@condition_variable@std@@QEAAXAEAV?$unique_lock@Vmutex@std@@@2@@Z ; std::condition_variable::wait
PUBLIC	?_Mycnd@condition_variable@std@@AEAAPEAU_Cnd_internal_imp_t@@XZ ; std::condition_variable::_Mycnd
PUBLIC	??_Gcondition_variable@std@@QEAAPEAXI@Z		; std::condition_variable::`scalar deleting destructor'
PUBLIC	??0?$unique_lock@Vmutex@std@@@std@@QEAA@AEAVmutex@1@Uadopt_lock_t@1@@Z ; std::unique_lock<std::mutex>::unique_lock<std::mutex>
PUBLIC	??1?$unique_lock@Vmutex@std@@@std@@QEAA@XZ	; std::unique_lock<std::mutex>::~unique_lock<std::mutex>
PUBLIC	?release@?$unique_lock@Vmutex@std@@@std@@QEAAPEAVmutex@2@XZ ; std::unique_lock<std::mutex>::release
PUBLIC	?mutex@?$unique_lock@Vmutex@std@@@std@@QEBAPEAV02@XZ ; std::unique_lock<std::mutex>::mutex
PUBLIC	??0shared_mutex@std@@QEAA@XZ			; std::shared_mutex::shared_mutex
PUBLIC	??1shared_mutex@std@@QEAA@XZ			; std::shared_mutex::~shared_mutex
PUBLIC	?lock@shared_mutex@std@@QEAAXXZ			; std::shared_mutex::lock
PUBLIC	?unlock@shared_mutex@std@@QEAAXXZ		; std::shared_mutex::unlock
PUBLIC	?lock_shared@shared_mutex@std@@QEAAXXZ		; std::shared_mutex::lock_shared
PUBLIC	?unlock_shared@shared_mutex@std@@QEAAXXZ	; std::shared_mutex::unlock_shared
PUBLIC	??_Gshared_mutex@std@@QEAAPEAXI@Z		; std::shared_mutex::`scalar deleting destructor'
PUBLIC	??$?0AEAP6APEAXPEAX@ZAEAPEAX$0A@@thread@std@@QEAA@AEAP6APEAXPEAX@ZAEAPEAX@Z ; std::thread::thread<void * (__cdecl*&)(void *),void * &,0>
PUBLIC	??$addressof@Vmutex@std@@@std@@YAPEAVmutex@0@AEAV10@@Z ; std::addressof<std::mutex>
PUBLIC	??$forward@AEAP6APEAXPEAX@Z@std@@YAAEAP6APEAXPEAX@ZAEAP6APEAX0@Z@Z ; std::forward<void * (__cdecl*&)(void *)>
PUBLIC	??$forward@AEAPEAX@std@@YAAEAPEAXAEAPEAX@Z	; std::forward<void * &>
PUBLIC	??$make_unique@V?$tuple@P6APEAXPEAX@ZPEAX@std@@AEAP6APEAXPEAX@ZAEAPEAX$0A@@std@@YA?AV?$unique_ptr@V?$tuple@P6APEAXPEAX@ZPEAX@std@@U?$default_delete@V?$tuple@P6APEAXPEAX@ZPEAX@std@@@2@@0@AEAP6APEAXPEAX@ZAEAPEAX@Z ; std::make_unique<std::tuple<void * (__cdecl*)(void *),void *>,void * (__cdecl*&)(void *),void * &,0>
PUBLIC	??R?$default_delete@V?$tuple@P6APEAXPEAX@ZPEAX@std@@@std@@QEBAXPEAV?$tuple@P6APEAXPEAX@ZPEAX@1@@Z ; std::default_delete<std::tuple<void * (__cdecl*)(void *),void *> >::operator()
PUBLIC	??1?$unique_ptr@V?$tuple@P6APEAXPEAX@ZPEAX@std@@U?$default_delete@V?$tuple@P6APEAXPEAX@ZPEAX@std@@@2@@std@@QEAA@XZ ; std::unique_ptr<std::tuple<void * (__cdecl*)(void *),void *>,std::default_delete<std::tuple<void * (__cdecl*)(void *),void *> > >::~unique_ptr<std::tuple<void * (__cdecl*)(void *),void *>,std::default_delete<std::tuple<void * (__cdecl*)(void *),void *> > >
PUBLIC	?get_deleter@?$unique_ptr@V?$tuple@P6APEAXPEAX@ZPEAX@std@@U?$default_delete@V?$tuple@P6APEAXPEAX@ZPEAX@std@@@2@@std@@QEAAAEAU?$default_delete@V?$tuple@P6APEAXPEAX@ZPEAX@std@@@2@XZ ; std::unique_ptr<std::tuple<void * (__cdecl*)(void *),void *>,std::default_delete<std::tuple<void * (__cdecl*)(void *),void *> > >::get_deleter
PUBLIC	??D?$unique_ptr@V?$tuple@P6APEAXPEAX@ZPEAX@std@@U?$default_delete@V?$tuple@P6APEAXPEAX@ZPEAX@std@@@2@@std@@QEBAAEAV?$tuple@P6APEAXPEAX@ZPEAX@1@XZ ; std::unique_ptr<std::tuple<void * (__cdecl*)(void *),void *>,std::default_delete<std::tuple<void * (__cdecl*)(void *),void *> > >::operator*
PUBLIC	?get@?$unique_ptr@V?$tuple@P6APEAXPEAX@ZPEAX@std@@U?$default_delete@V?$tuple@P6APEAXPEAX@ZPEAX@std@@@2@@std@@QEBAPEAV?$tuple@P6APEAXPEAX@ZPEAX@2@XZ ; std::unique_ptr<std::tuple<void * (__cdecl*)(void *),void *>,std::default_delete<std::tuple<void * (__cdecl*)(void *),void *> > >::get
PUBLIC	?release@?$unique_ptr@V?$tuple@P6APEAXPEAX@ZPEAX@std@@U?$default_delete@V?$tuple@P6APEAXPEAX@ZPEAX@std@@@2@@std@@QEAAPEAV?$tuple@P6APEAXPEAX@ZPEAX@2@XZ ; std::unique_ptr<std::tuple<void * (__cdecl*)(void *),void *>,std::default_delete<std::tuple<void * (__cdecl*)(void *),void *> > >::release
PUBLIC	?_Get_first@?$_Compressed_pair@U?$default_delete@V?$tuple@P6APEAXPEAX@ZPEAX@std@@@std@@PEAV?$tuple@P6APEAXPEAX@ZPEAX@2@$00@std@@QEAAAEAU?$default_delete@V?$tuple@P6APEAXPEAX@ZPEAX@std@@@2@XZ ; std::_Compressed_pair<std::default_delete<std::tuple<void * (__cdecl*)(void *),void *> >,std::tuple<void * (__cdecl*)(void *),void *> *,1>::_Get_first
PUBLIC	??$?0U?$default_delete@V?$tuple@P6APEAXPEAX@ZPEAX@std@@@std@@$0A@@?$unique_ptr@V?$tuple@P6APEAXPEAX@ZPEAX@std@@U?$default_delete@V?$tuple@P6APEAXPEAX@ZPEAX@std@@@2@@std@@QEAA@$$QEAV01@@Z ; std::unique_ptr<std::tuple<void * (__cdecl*)(void *),void *>,std::default_delete<std::tuple<void * (__cdecl*)(void *),void *> > >::unique_ptr<std::tuple<void * (__cdecl*)(void *),void *>,std::default_delete<std::tuple<void * (__cdecl*)(void *),void *> > ><std::default_delete<std::tuple<void * (__cdecl*)(void *),void *> >,0>
PUBLIC	??$_Invoke@V?$tuple@P6APEAXPEAX@ZPEAX@std@@$0A@$00@thread@std@@CAIPEAX@Z ; std::thread::_Invoke<std::tuple<void * (__cdecl*)(void *),void *>,0,1>
PUBLIC	??$exchange@PEAV?$tuple@P6APEAXPEAX@ZPEAX@std@@PEAV12@@std@@YAPEAV?$tuple@P6APEAXPEAX@ZPEAX@0@AEAPEAV10@$$QEAPEAV10@@Z ; std::exchange<std::tuple<void * (__cdecl*)(void *),void *> *,std::tuple<void * (__cdecl*)(void *),void *> *>
PUBLIC	??$?0AEAP6APEAXPEAX@ZAEAPEAX$0A@@?$tuple@P6APEAXPEAX@ZPEAX@std@@QEAA@AEAP6APEAXPEAX@ZAEAPEAX@Z ; std::tuple<void * (__cdecl*)(void *),void *>::tuple<void * (__cdecl*)(void *),void *><void * (__cdecl*&)(void *),void * &,0>
PUBLIC	??$?0U?$default_delete@V?$tuple@P6APEAXPEAX@ZPEAX@std@@@std@@$0A@@?$unique_ptr@V?$tuple@P6APEAXPEAX@ZPEAX@std@@U?$default_delete@V?$tuple@P6APEAXPEAX@ZPEAX@std@@@2@@std@@QEAA@PEAV?$tuple@P6APEAXPEAX@ZPEAX@1@@Z ; std::unique_ptr<std::tuple<void * (__cdecl*)(void *),void *>,std::default_delete<std::tuple<void * (__cdecl*)(void *),void *> > >::unique_ptr<std::tuple<void * (__cdecl*)(void *),void *>,std::default_delete<std::tuple<void * (__cdecl*)(void *),void *> > ><std::default_delete<std::tuple<void * (__cdecl*)(void *),void *> >,0>
PUBLIC	??$forward@U?$default_delete@V?$tuple@P6APEAXPEAX@ZPEAX@std@@@std@@@std@@YA$$QEAU?$default_delete@V?$tuple@P6APEAXPEAX@ZPEAX@std@@@0@AEAU10@@Z ; std::forward<std::default_delete<std::tuple<void * (__cdecl*)(void *),void *> > >
PUBLIC	??$?0U?$default_delete@V?$tuple@P6APEAXPEAX@ZPEAX@std@@@std@@PEAV?$tuple@P6APEAXPEAX@ZPEAX@1@@?$_Compressed_pair@U?$default_delete@V?$tuple@P6APEAXPEAX@ZPEAX@std@@@std@@PEAV?$tuple@P6APEAXPEAX@ZPEAX@2@$00@std@@QEAA@U_One_then_variadic_args_t@1@$$QEAU?$default_delete@V?$tuple@P6APEAXPEAX@ZPEAX@std@@@1@$$QEAPEAV?$tuple@P6APEAXPEAX@ZPEAX@1@@Z ; std::_Compressed_pair<std::default_delete<std::tuple<void * (__cdecl*)(void *),void *> >,std::tuple<void * (__cdecl*)(void *),void *> *,1>::_Compressed_pair<std::default_delete<std::tuple<void * (__cdecl*)(void *),void *> >,std::tuple<void * (__cdecl*)(void *),void *> *,1><std::default_delete<std::tuple<void * (__cdecl*)(void *),void *> >,std::tuple<void * (__cdecl*)(void *),void *> *>
PUBLIC	??$get@$0A@P6APEAXPEAX@ZPEAX@std@@YAAEAP6APEAXPEAX@ZAEAV?$tuple@P6APEAXPEAX@ZPEAX@0@@Z ; std::get<0,void * (__cdecl*)(void *),void *>
PUBLIC	??$move@AEAP6APEAXPEAX@Z@std@@YA$$QEAP6APEAXPEAX@ZAEAP6APEAX0@Z@Z ; std::move<void * (__cdecl*&)(void *)>
PUBLIC	??$get@$00P6APEAXPEAX@ZPEAX@std@@YAAEAPEAXAEAV?$tuple@P6APEAXPEAX@ZPEAX@0@@Z ; std::get<1,void * (__cdecl*)(void *),void *>
PUBLIC	??$move@AEAPEAX@std@@YA$$QEAPEAXAEAPEAX@Z	; std::move<void * &>
PUBLIC	??$forward@P6APEAXPEAX@Z@std@@YA$$QEAP6APEAXPEAX@ZAEAP6APEAX0@Z@Z ; std::forward<void * (__cdecl*)(void *)>
PUBLIC	??$forward@PEAX@std@@YA$$QEAPEAXAEAPEAX@Z	; std::forward<void *>
PUBLIC	??$_Call@P6APEAXPEAX@ZPEAX@_Invoker_functor@std@@SAPEAX$$QEAP6APEAXPEAX@Z$$QEAPEAX@Z ; std::_Invoker_functor::_Call<void * (__cdecl*)(void *),void *>
PUBLIC	??$invoke@P6APEAXPEAX@ZPEAX@std@@YAPEAX$$QEAP6APEAXPEAX@Z$$QEAPEAX@Z ; std::invoke<void * (__cdecl*)(void *),void *>
PUBLIC	??$?0U_Exact_args_t@std@@AEAP6APEAXPEAX@ZAEAPEAX$0A@@?$tuple@P6APEAXPEAX@ZPEAX@std@@QEAA@U_Exact_args_t@1@AEAP6APEAXPEAX@ZAEAPEAX@Z ; std::tuple<void * (__cdecl*)(void *),void *>::tuple<void * (__cdecl*)(void *),void *><std::_Exact_args_t,void * (__cdecl*&)(void *),void * &,0>
PUBLIC	??$?0AEAPEAV?$tuple@P6APEAXPEAX@ZPEAX@std@@@?$_Compressed_pair@U?$default_delete@V?$tuple@P6APEAXPEAX@ZPEAX@std@@@std@@PEAV?$tuple@P6APEAXPEAX@ZPEAX@2@$00@std@@QEAA@U_Zero_then_variadic_args_t@1@AEAPEAV?$tuple@P6APEAXPEAX@ZPEAX@1@@Z ; std::_Compressed_pair<std::default_delete<std::tuple<void * (__cdecl*)(void *),void *> >,std::tuple<void * (__cdecl*)(void *),void *> *,1>::_Compressed_pair<std::default_delete<std::tuple<void * (__cdecl*)(void *),void *> >,std::tuple<void * (__cdecl*)(void *),void *> *,1><std::tuple<void * (__cdecl*)(void *),void *> * &>
PUBLIC	??$forward@PEAV?$tuple@P6APEAXPEAX@ZPEAX@std@@@std@@YA$$QEAPEAV?$tuple@P6APEAXPEAX@ZPEAX@0@AEAPEAV10@@Z ; std::forward<std::tuple<void * (__cdecl*)(void *),void *> *>
PUBLIC	??$?0U_Exact_args_t@std@@AEAPEAX$$V$0A@@?$tuple@PEAX@std@@QEAA@U_Exact_args_t@1@AEAPEAX@Z ; std::tuple<void *>::tuple<void *><std::_Exact_args_t,void * &,0>
PUBLIC	??$?0AEAP6APEAXPEAX@Z@?$_Tuple_val@P6APEAXPEAX@Z@std@@QEAA@AEAP6APEAXPEAX@Z@Z ; std::_Tuple_val<void * (__cdecl*)(void *)>::_Tuple_val<void * (__cdecl*)(void *)><void * (__cdecl*&)(void *)>
PUBLIC	??$forward@AEAPEAV?$tuple@P6APEAXPEAX@ZPEAX@std@@@std@@YAAEAPEAV?$tuple@P6APEAXPEAX@ZPEAX@0@AEAPEAV10@@Z ; std::forward<std::tuple<void * (__cdecl*)(void *),void *> * &>
PUBLIC	??$?0U_Exact_args_t@std@@$0A@@?$tuple@$$V@std@@QEAA@U_Exact_args_t@1@@Z ; std::tuple<>::tuple<><std::_Exact_args_t,0>
PUBLIC	??$?0AEAPEAX@?$_Tuple_val@PEAX@std@@QEAA@AEAPEAX@Z ; std::_Tuple_val<void *>::_Tuple_val<void *><void * &>
PUBLIC	__JustMyCode_Default
EXTRN	??2@YAPEAX_K@Z:PROC				; operator new
EXTRN	??3@YAXPEAX_K@Z:PROC				; operator delete
EXTRN	__imp_terminate:PROC
EXTRN	__imp__beginthreadex:PROC
EXTRN	_Thrd_join:PROC
EXTRN	_Thrd_id:PROC
EXTRN	_Mtx_init_in_situ:PROC
EXTRN	_Mtx_destroy_in_situ:PROC
EXTRN	_Mtx_lock:PROC
EXTRN	_Mtx_unlock:PROC
EXTRN	_Smtx_lock_exclusive:PROC
EXTRN	_Smtx_lock_shared:PROC
EXTRN	_Smtx_unlock_exclusive:PROC
EXTRN	_Smtx_unlock_shared:PROC
EXTRN	_Cnd_init_in_situ:PROC
EXTRN	_Cnd_destroy_in_situ:PROC
EXTRN	_Cnd_wait:PROC
EXTRN	_Cnd_broadcast:PROC
EXTRN	_Cnd_signal:PROC
EXTRN	_Cnd_do_broadcast_at_thread_exit:PROC
EXTRN	?_Throw_C_error@std@@YAXH@Z:PROC		; std::_Throw_C_error
EXTRN	?_Throw_Cpp_error@std@@YAXH@Z:PROC		; std::_Throw_Cpp_error
EXTRN	_RTC_CheckStackVars:PROC
EXTRN	_RTC_InitBase:PROC
EXTRN	_RTC_Shutdown:PROC
EXTRN	__CheckForDebuggerJustMyCode:PROC
EXTRN	__CxxFrameHandler4:PROC
;	COMDAT pdata
pdata	SEGMENT
$pdata$pthread_cond_broadcast DD imagerel $LN3
	DD	imagerel $LN3+81
	DD	imagerel $unwind$pthread_cond_broadcast
pdata	ENDS
;	COMDAT pdata
pdata	SEGMENT
$pdata$pthread_cond_destroy DD imagerel $LN5
	DD	imagerel $LN5+144
	DD	imagerel $unwind$pthread_cond_destroy
pdata	ENDS
;	COMDAT pdata
pdata	SEGMENT
$pdata$pthread_cond_init DD imagerel $LN5
	DD	imagerel $LN5+161
	DD	imagerel $unwind$pthread_cond_init
pdata	ENDS
;	COMDAT pdata
pdata	SEGMENT
$pdata$pthread_cond_signal DD imagerel $LN3
	DD	imagerel $LN3+81
	DD	imagerel $unwind$pthread_cond_signal
pdata	ENDS
;	COMDAT pdata
pdata	SEGMENT
$pdata$pthread_cond_wait DD imagerel $LN3
	DD	imagerel $LN3+177
	DD	imagerel $unwind$pthread_cond_wait
pdata	ENDS
;	COMDAT pdata
pdata	SEGMENT
$pdata$pthread_create DD imagerel $LN5
	DD	imagerel $LN5+185
	DD	imagerel $unwind$pthread_create
pdata	ENDS
;	COMDAT pdata
pdata	SEGMENT
$pdata$pthread_exit DD imagerel $LN3
	DD	imagerel $LN3+64
	DD	imagerel $unwind$pthread_exit
pdata	ENDS
;	COMDAT pdata
pdata	SEGMENT
$pdata$pthread_join DD imagerel $LN5
	DD	imagerel $LN5+149
	DD	imagerel $unwind$pthread_join
pdata	ENDS
;	COMDAT pdata
pdata	SEGMENT
$pdata$pthread_mutex_destroy DD imagerel $LN5
	DD	imagerel $LN5+144
	DD	imagerel $unwind$pthread_mutex_destroy
pdata	ENDS
;	COMDAT pdata
pdata	SEGMENT
$pdata$pthread_mutex_init DD imagerel $LN5
	DD	imagerel $LN5+147
	DD	imagerel $unwind$pthread_mutex_init
pdata	ENDS
;	COMDAT pdata
pdata	SEGMENT
$pdata$pthread_mutex_lock DD imagerel $LN3
	DD	imagerel $LN3+81
	DD	imagerel $unwind$pthread_mutex_lock
pdata	ENDS
;	COMDAT pdata
pdata	SEGMENT
$pdata$pthread_mutex_unlock DD imagerel $LN3
	DD	imagerel $LN3+81
	DD	imagerel $unwind$pthread_mutex_unlock
pdata	ENDS
;	COMDAT pdata
pdata	SEGMENT
$pdata$pthread_rwlock_init DD imagerel $LN5
	DD	imagerel $LN5+198
	DD	imagerel $unwind$pthread_rwlock_init
pdata	ENDS
;	COMDAT pdata
pdata	SEGMENT
$pdata$pthread_rwlock_destroy DD imagerel $LN5
	DD	imagerel $LN5+167
	DD	imagerel $unwind$pthread_rwlock_destroy
pdata	ENDS
;	COMDAT pdata
pdata	SEGMENT
$pdata$pthread_rwlock_rdlock DD imagerel $LN3
	DD	imagerel $LN3+84
	DD	imagerel $unwind$pthread_rwlock_rdlock
pdata	ENDS
;	COMDAT pdata
pdata	SEGMENT
$pdata$pthread_rwlock_wrlock DD imagerel $LN3
	DD	imagerel $LN3+98
	DD	imagerel $unwind$pthread_rwlock_wrlock
pdata	ENDS
;	COMDAT pdata
pdata	SEGMENT
$pdata$pthread_rwlock_unlock DD imagerel $LN5
	DD	imagerel $LN5+136
	DD	imagerel $unwind$pthread_rwlock_unlock
pdata	ENDS
;	COMDAT pdata
pdata	SEGMENT
$pdata$?_Check_C_return@std@@YAHH@Z DD imagerel $LN4
	DD	imagerel $LN4+88
	DD	imagerel $unwind$?_Check_C_return@std@@YAHH@Z
pdata	ENDS
;	COMDAT pdata
pdata	SEGMENT
$pdata$??1thread@std@@QEAA@XZ DD imagerel $LN5
	DD	imagerel $LN5+90
	DD	imagerel $unwind$??1thread@std@@QEAA@XZ
pdata	ENDS
;	COMDAT pdata
pdata	SEGMENT
$pdata$?joinable@thread@std@@QEBA_NXZ DD imagerel $LN5
	DD	imagerel $LN5+106
	DD	imagerel $unwind$?joinable@thread@std@@QEBA_NXZ
pdata	ENDS
;	COMDAT pdata
pdata	SEGMENT
$pdata$?join@thread@std@@QEAAXXZ DD imagerel $LN6
	DD	imagerel $LN6+217
	DD	imagerel $unwind$?join@thread@std@@QEAAXXZ
pdata	ENDS
;	COMDAT pdata
pdata	SEGMENT
$pdata$??_Gthread@std@@QEAAPEAXI@Z DD imagerel $LN4
	DD	imagerel $LN4+105
	DD	imagerel $unwind$??_Gthread@std@@QEAAPEAXI@Z
pdata	ENDS
;	COMDAT pdata
pdata	SEGMENT
$pdata$??0_Mutex_base@std@@QEAA@H@Z DD imagerel $LN3
	DD	imagerel $LN3+118
	DD	imagerel $unwind$??0_Mutex_base@std@@QEAA@H@Z
pdata	ENDS
;	COMDAT pdata
pdata	SEGMENT
$pdata$??1_Mutex_base@std@@QEAA@XZ DD imagerel $LN3
	DD	imagerel $LN3+85
	DD	imagerel $unwind$??1_Mutex_base@std@@QEAA@XZ
pdata	ENDS
;	COMDAT pdata
pdata	SEGMENT
$pdata$?lock@_Mutex_base@std@@QEAAXXZ DD imagerel $LN3
	DD	imagerel $LN3+91
	DD	imagerel $unwind$?lock@_Mutex_base@std@@QEAAXXZ
pdata	ENDS
;	COMDAT pdata
pdata	SEGMENT
$pdata$?unlock@_Mutex_base@std@@QEAAXXZ DD imagerel $LN3
	DD	imagerel $LN3+91
	DD	imagerel $unwind$?unlock@_Mutex_base@std@@QEAAXXZ
pdata	ENDS
;	COMDAT pdata
pdata	SEGMENT
$pdata$?_Mymtx@_Mutex_base@std@@AEAAPEAU_Mtx_internal_imp_t@@XZ DD imagerel $LN3
	DD	imagerel $LN3+71
	DD	imagerel $unwind$?_Mymtx@_Mutex_base@std@@AEAAPEAU_Mtx_internal_imp_t@@XZ
pdata	ENDS
;	COMDAT pdata
pdata	SEGMENT
$pdata$??0mutex@std@@QEAA@XZ DD imagerel $LN3
	DD	imagerel $LN3+85
	DD	imagerel $unwind$??0mutex@std@@QEAA@XZ
pdata	ENDS
;	COMDAT pdata
pdata	SEGMENT
$pdata$??1mutex@std@@QEAA@XZ DD imagerel $LN3
	DD	imagerel $LN3+64
	DD	imagerel $unwind$??1mutex@std@@QEAA@XZ
pdata	ENDS
;	COMDAT pdata
pdata	SEGMENT
$pdata$??_Gmutex@std@@QEAAPEAXI@Z DD imagerel $LN4
	DD	imagerel $LN4+105
	DD	imagerel $unwind$??_Gmutex@std@@QEAAPEAXI@Z
pdata	ENDS
;	COMDAT pdata
pdata	SEGMENT
$pdata$??0condition_variable@std@@QEAA@XZ DD imagerel $LN3
	DD	imagerel $LN3+91
	DD	imagerel $unwind$??0condition_variable@std@@QEAA@XZ
pdata	ENDS
;	COMDAT pdata
pdata	SEGMENT
$pdata$??1condition_variable@std@@QEAA@XZ DD imagerel $LN3
	DD	imagerel $LN3+85
	DD	imagerel $unwind$??1condition_variable@std@@QEAA@XZ
pdata	ENDS
;	COMDAT pdata
pdata	SEGMENT
$pdata$?notify_one@condition_variable@std@@QEAAXXZ DD imagerel $LN3
	DD	imagerel $LN3+92
	DD	imagerel $unwind$?notify_one@condition_variable@std@@QEAAXXZ
pdata	ENDS
;	COMDAT pdata
pdata	SEGMENT
$pdata$?notify_all@condition_variable@std@@QEAAXXZ DD imagerel $LN3
	DD	imagerel $LN3+92
	DD	imagerel $unwind$?notify_all@condition_variable@std@@QEAAXXZ
pdata	ENDS
;	COMDAT pdata
pdata	SEGMENT
$pdata$?wait@condition_variable@std@@QEAAXAEAV?$unique_lock@Vmutex@std@@@2@@Z DD imagerel $LN3
	DD	imagerel $LN3+133
	DD	imagerel $unwind$?wait@condition_variable@std@@QEAAXAEAV?$unique_lock@Vmutex@std@@@2@@Z
pdata	ENDS
;	COMDAT pdata
pdata	SEGMENT
$pdata$?_Mycnd@condition_variable@std@@AEAAPEAU_Cnd_internal_imp_t@@XZ DD imagerel $LN3
	DD	imagerel $LN3+71
	DD	imagerel $unwind$?_Mycnd@condition_variable@std@@AEAAPEAU_Cnd_internal_imp_t@@XZ
pdata	ENDS
;	COMDAT pdata
pdata	SEGMENT
$pdata$??_Gcondition_variable@std@@QEAAPEAXI@Z DD imagerel $LN4
	DD	imagerel $LN4+105
	DD	imagerel $unwind$??_Gcondition_variable@std@@QEAAPEAXI@Z
pdata	ENDS
;	COMDAT pdata
pdata	SEGMENT
$pdata$??0?$unique_lock@Vmutex@std@@@std@@QEAA@AEAVmutex@1@Uadopt_lock_t@1@@Z DD imagerel $LN3
	DD	imagerel $LN3+114
	DD	imagerel $unwind$??0?$unique_lock@Vmutex@std@@@std@@QEAA@AEAVmutex@1@Uadopt_lock_t@1@@Z
pdata	ENDS
;	COMDAT pdata
pdata	SEGMENT
$pdata$??1?$unique_lock@Vmutex@std@@@std@@QEAA@XZ DD imagerel $LN4
	DD	imagerel $LN4+95
	DD	imagerel $unwind$??1?$unique_lock@Vmutex@std@@@std@@QEAA@XZ
pdata	ENDS
;	COMDAT pdata
pdata	SEGMENT
$pdata$?release@?$unique_lock@Vmutex@std@@@std@@QEAAPEAVmutex@2@XZ DD imagerel $LN3
	DD	imagerel $LN3+107
	DD	imagerel $unwind$?release@?$unique_lock@Vmutex@std@@@std@@QEAAPEAVmutex@2@XZ
pdata	ENDS
;	COMDAT pdata
pdata	SEGMENT
$pdata$?mutex@?$unique_lock@Vmutex@std@@@std@@QEBAPEAV02@XZ DD imagerel $LN3
	DD	imagerel $LN3+74
	DD	imagerel $unwind$?mutex@?$unique_lock@Vmutex@std@@@std@@QEBAPEAV02@XZ
pdata	ENDS
;	COMDAT pdata
pdata	SEGMENT
$pdata$??0shared_mutex@std@@QEAA@XZ DD imagerel $LN3
	DD	imagerel $LN3+85
	DD	imagerel $unwind$??0shared_mutex@std@@QEAA@XZ
pdata	ENDS
;	COMDAT pdata
pdata	SEGMENT
$pdata$??1shared_mutex@std@@QEAA@XZ DD imagerel $LN3
	DD	imagerel $LN3+65
	DD	imagerel $unwind$??1shared_mutex@std@@QEAA@XZ
pdata	ENDS
;	COMDAT pdata
pdata	SEGMENT
$pdata$?lock@shared_mutex@std@@QEAAXXZ DD imagerel $LN3
	DD	imagerel $LN3+80
	DD	imagerel $unwind$?lock@shared_mutex@std@@QEAAXXZ
pdata	ENDS
;	COMDAT pdata
pdata	SEGMENT
$pdata$?unlock@shared_mutex@std@@QEAAXXZ DD imagerel $LN3
	DD	imagerel $LN3+80
	DD	imagerel $unwind$?unlock@shared_mutex@std@@QEAAXXZ
pdata	ENDS
;	COMDAT pdata
pdata	SEGMENT
$pdata$?lock_shared@shared_mutex@std@@QEAAXXZ DD imagerel $LN3
	DD	imagerel $LN3+80
	DD	imagerel $unwind$?lock_shared@shared_mutex@std@@QEAAXXZ
pdata	ENDS
;	COMDAT pdata
pdata	SEGMENT
$pdata$?unlock_shared@shared_mutex@std@@QEAAXXZ DD imagerel $LN3
	DD	imagerel $LN3+80
	DD	imagerel $unwind$?unlock_shared@shared_mutex@std@@QEAAXXZ
pdata	ENDS
;	COMDAT pdata
pdata	SEGMENT
$pdata$??_Gshared_mutex@std@@QEAAPEAXI@Z DD imagerel $LN4
	DD	imagerel $LN4+105
	DD	imagerel $unwind$??_Gshared_mutex@std@@QEAAPEAXI@Z
pdata	ENDS
;	COMDAT pdata
pdata	SEGMENT
$pdata$??$?0AEAP6APEAXPEAX@ZAEAPEAX$0A@@thread@std@@QEAA@AEAP6APEAXPEAX@ZAEAPEAX@Z DD imagerel $LN8
	DD	imagerel $LN8+338
	DD	imagerel $unwind$??$?0AEAP6APEAXPEAX@ZAEAPEAX$0A@@thread@std@@QEAA@AEAP6APEAXPEAX@ZAEAPEAX@Z
pdata	ENDS
;	COMDAT pdata
pdata	SEGMENT
$pdata$?dtor$1@?0???$?0AEAP6APEAXPEAX@ZAEAPEAX$0A@@thread@std@@QEAA@AEAP6APEAXPEAX@ZAEAPEAX@Z@4HA DD imagerel ?dtor$1@?0???$?0AEAP6APEAXPEAX@ZAEAPEAX$0A@@thread@std@@QEAA@AEAP6APEAXPEAX@ZAEAPEAX@Z@4HA
	DD	imagerel ?dtor$1@?0???$?0AEAP6APEAXPEAX@ZAEAPEAX$0A@@thread@std@@QEAA@AEAP6APEAXPEAX@ZAEAPEAX@Z@4HA+36
	DD	imagerel $unwind$?dtor$1@?0???$?0AEAP6APEAXPEAX@ZAEAPEAX$0A@@thread@std@@QEAA@AEAP6APEAXPEAX@ZAEAPEAX@Z@4HA
pdata	ENDS
;	COMDAT pdata
pdata	SEGMENT
$pdata$??$addressof@Vmutex@std@@@std@@YAPEAVmutex@0@AEAV10@@Z DD imagerel $LN3
	DD	imagerel $LN3+71
	DD	imagerel $unwind$??$addressof@Vmutex@std@@@std@@YAPEAVmutex@0@AEAV10@@Z
pdata	ENDS
;	COMDAT pdata
pdata	SEGMENT
$pdata$??$forward@AEAP6APEAXPEAX@Z@std@@YAAEAP6APEAXPEAX@ZAEAP6APEAX0@Z@Z DD imagerel $LN3
	DD	imagerel $LN3+71
	DD	imagerel $unwind$??$forward@AEAP6APEAXPEAX@Z@std@@YAAEAP6APEAXPEAX@ZAEAP6APEAX0@Z@Z
pdata	ENDS
;	COMDAT pdata
pdata	SEGMENT
$pdata$??$forward@AEAPEAX@std@@YAAEAPEAXAEAPEAX@Z DD imagerel $LN3
	DD	imagerel $LN3+71
	DD	imagerel $unwind$??$forward@AEAPEAX@std@@YAAEAPEAXAEAPEAX@Z
pdata	ENDS
;	COMDAT pdata
pdata	SEGMENT
$pdata$??$make_unique@V?$tuple@P6APEAXPEAX@ZPEAX@std@@AEAP6APEAXPEAX@ZAEAPEAX$0A@@std@@YA?AV?$unique_ptr@V?$tuple@P6APEAXPEAX@ZPEAX@std@@U?$default_delete@V?$tuple@P6APEAXPEAX@ZPEAX@std@@@2@@0@AEAP6APEAXPEAX@ZAEAPEAX@Z DD imagerel $LN8
	DD	imagerel $LN8+266
	DD	imagerel $unwind$??$make_unique@V?$tuple@P6APEAXPEAX@ZPEAX@std@@AEAP6APEAXPEAX@ZAEAPEAX$0A@@std@@YA?AV?$unique_ptr@V?$tuple@P6APEAXPEAX@ZPEAX@std@@U?$default_delete@V?$tuple@P6APEAXPEAX@ZPEAX@std@@@2@@0@AEAP6APEAXPEAX@ZAEAPEAX@Z
pdata	ENDS
;	COMDAT pdata
pdata	SEGMENT
$pdata$??R?$default_delete@V?$tuple@P6APEAXPEAX@ZPEAX@std@@@std@@QEBAXPEAV?$tuple@P6APEAXPEAX@ZPEAX@1@@Z DD imagerel $LN3
	DD	imagerel $LN3+101
	DD	imagerel $unwind$??R?$default_delete@V?$tuple@P6APEAXPEAX@ZPEAX@std@@@std@@QEBAXPEAV?$tuple@P6APEAXPEAX@ZPEAX@1@@Z
pdata	ENDS
;	COMDAT pdata
pdata	SEGMENT
$pdata$??1?$unique_ptr@V?$tuple@P6APEAXPEAX@ZPEAX@std@@U?$default_delete@V?$tuple@P6APEAXPEAX@ZPEAX@std@@@2@@std@@QEAA@XZ DD imagerel $LN4
	DD	imagerel $LN4+111
	DD	imagerel $unwind$??1?$unique_ptr@V?$tuple@P6APEAXPEAX@ZPEAX@std@@U?$default_delete@V?$tuple@P6APEAXPEAX@ZPEAX@std@@@2@@std@@QEAA@XZ
pdata	ENDS
;	COMDAT pdata
pdata	SEGMENT
$pdata$?get_deleter@?$unique_ptr@V?$tuple@P6APEAXPEAX@ZPEAX@std@@U?$default_delete@V?$tuple@P6APEAXPEAX@ZPEAX@std@@@2@@std@@QEAAAEAU?$default_delete@V?$tuple@P6APEAXPEAX@ZPEAX@std@@@2@XZ DD imagerel $LN3
	DD	imagerel $LN3+80
	DD	imagerel $unwind$?get_deleter@?$unique_ptr@V?$tuple@P6APEAXPEAX@ZPEAX@std@@U?$default_delete@V?$tuple@P6APEAXPEAX@ZPEAX@std@@@2@@std@@QEAAAEAU?$default_delete@V?$tuple@P6APEAXPEAX@ZPEAX@std@@@2@XZ
pdata	ENDS
;	COMDAT pdata
pdata	SEGMENT
$pdata$??D?$unique_ptr@V?$tuple@P6APEAXPEAX@ZPEAX@std@@U?$default_delete@V?$tuple@P6APEAXPEAX@ZPEAX@std@@@2@@std@@QEBAAEAV?$tuple@P6APEAXPEAX@ZPEAX@1@XZ DD imagerel $LN3
	DD	imagerel $LN3+74
	DD	imagerel $unwind$??D?$unique_ptr@V?$tuple@P6APEAXPEAX@ZPEAX@std@@U?$default_delete@V?$tuple@P6APEAXPEAX@ZPEAX@std@@@2@@std@@QEBAAEAV?$tuple@P6APEAXPEAX@ZPEAX@1@XZ
pdata	ENDS
;	COMDAT pdata
pdata	SEGMENT
$pdata$?get@?$unique_ptr@V?$tuple@P6APEAXPEAX@ZPEAX@std@@U?$default_delete@V?$tuple@P6APEAXPEAX@ZPEAX@std@@@2@@std@@QEBAPEAV?$tuple@P6APEAXPEAX@ZPEAX@2@XZ DD imagerel $LN3
	DD	imagerel $LN3+74
	DD	imagerel $unwind$?get@?$unique_ptr@V?$tuple@P6APEAXPEAX@ZPEAX@std@@U?$default_delete@V?$tuple@P6APEAXPEAX@ZPEAX@std@@@2@@std@@QEBAPEAV?$tuple@P6APEAXPEAX@ZPEAX@2@XZ
pdata	ENDS
;	COMDAT pdata
pdata	SEGMENT
$pdata$?release@?$unique_ptr@V?$tuple@P6APEAXPEAX@ZPEAX@std@@U?$default_delete@V?$tuple@P6APEAXPEAX@ZPEAX@std@@@2@@std@@QEAAPEAV?$tuple@P6APEAXPEAX@ZPEAX@2@XZ DD imagerel $LN3
	DD	imagerel $LN3+98
	DD	imagerel $unwind$?release@?$unique_ptr@V?$tuple@P6APEAXPEAX@ZPEAX@std@@U?$default_delete@V?$tuple@P6APEAXPEAX@ZPEAX@std@@@2@@std@@QEAAPEAV?$tuple@P6APEAXPEAX@ZPEAX@2@XZ
pdata	ENDS
;	COMDAT pdata
pdata	SEGMENT
$pdata$?_Get_first@?$_Compressed_pair@U?$default_delete@V?$tuple@P6APEAXPEAX@ZPEAX@std@@@std@@PEAV?$tuple@P6APEAXPEAX@ZPEAX@2@$00@std@@QEAAAEAU?$default_delete@V?$tuple@P6APEAXPEAX@ZPEAX@std@@@2@XZ DD imagerel $LN3
	DD	imagerel $LN3+71
	DD	imagerel $unwind$?_Get_first@?$_Compressed_pair@U?$default_delete@V?$tuple@P6APEAXPEAX@ZPEAX@std@@@std@@PEAV?$tuple@P6APEAXPEAX@ZPEAX@2@$00@std@@QEAAAEAU?$default_delete@V?$tuple@P6APEAXPEAX@ZPEAX@std@@@2@XZ
pdata	ENDS
;	COMDAT pdata
pdata	SEGMENT
$pdata$??$?0U?$default_delete@V?$tuple@P6APEAXPEAX@ZPEAX@std@@@std@@$0A@@?$unique_ptr@V?$tuple@P6APEAXPEAX@ZPEAX@std@@U?$default_delete@V?$tuple@P6APEAXPEAX@ZPEAX@std@@@2@@std@@QEAA@$$QEAV01@@Z DD imagerel $LN3
	DD	imagerel $LN3+144
	DD	imagerel $unwind$??$?0U?$default_delete@V?$tuple@P6APEAXPEAX@ZPEAX@std@@@std@@$0A@@?$unique_ptr@V?$tuple@P6APEAXPEAX@ZPEAX@std@@U?$default_delete@V?$tuple@P6APEAXPEAX@ZPEAX@std@@@2@@std@@QEAA@$$QEAV01@@Z
pdata	ENDS
;	COMDAT pdata
pdata	SEGMENT
$pdata$??$_Invoke@V?$tuple@P6APEAXPEAX@ZPEAX@std@@$0A@$00@thread@std@@CAIPEAX@Z DD imagerel $LN3
	DD	imagerel $LN3+202
	DD	imagerel $unwind$??$_Invoke@V?$tuple@P6APEAXPEAX@ZPEAX@std@@$0A@$00@thread@std@@CAIPEAX@Z
pdata	ENDS
;	COMDAT pdata
pdata	SEGMENT
$pdata$??$exchange@PEAV?$tuple@P6APEAXPEAX@ZPEAX@std@@PEAV12@@std@@YAPEAV?$tuple@P6APEAXPEAX@ZPEAX@0@AEAPEAV10@$$QEAPEAV10@@Z DD imagerel $LN3
	DD	imagerel $LN3+107
	DD	imagerel $unwind$??$exchange@PEAV?$tuple@P6APEAXPEAX@ZPEAX@std@@PEAV12@@std@@YAPEAV?$tuple@P6APEAXPEAX@ZPEAX@0@AEAPEAV10@$$QEAPEAV10@@Z
pdata	ENDS
;	COMDAT pdata
pdata	SEGMENT
$pdata$??$?0AEAP6APEAXPEAX@ZAEAPEAX$0A@@?$tuple@P6APEAXPEAX@ZPEAX@std@@QEAA@AEAP6APEAXPEAX@ZAEAPEAX@Z DD imagerel $LN3
	DD	imagerel $LN3+163
	DD	imagerel $unwind$??$?0AEAP6APEAXPEAX@ZAEAPEAX$0A@@?$tuple@P6APEAXPEAX@ZPEAX@std@@QEAA@AEAP6APEAXPEAX@ZAEAPEAX@Z
pdata	ENDS
;	COMDAT pdata
pdata	SEGMENT
$pdata$??$?0U?$default_delete@V?$tuple@P6APEAXPEAX@ZPEAX@std@@@std@@$0A@@?$unique_ptr@V?$tuple@P6APEAXPEAX@ZPEAX@std@@U?$default_delete@V?$tuple@P6APEAXPEAX@ZPEAX@std@@@2@@std@@QEAA@PEAV?$tuple@P6APEAXPEAX@ZPEAX@1@@Z DD imagerel $LN3
	DD	imagerel $LN3+105
	DD	imagerel $unwind$??$?0U?$default_delete@V?$tuple@P6APEAXPEAX@ZPEAX@std@@@std@@$0A@@?$unique_ptr@V?$tuple@P6APEAXPEAX@ZPEAX@std@@U?$default_delete@V?$tuple@P6APEAXPEAX@ZPEAX@std@@@2@@std@@QEAA@PEAV?$tuple@P6APEAXPEAX@ZPEAX@1@@Z
pdata	ENDS
;	COMDAT pdata
pdata	SEGMENT
$pdata$??$forward@U?$default_delete@V?$tuple@P6APEAXPEAX@ZPEAX@std@@@std@@@std@@YA$$QEAU?$default_delete@V?$tuple@P6APEAXPEAX@ZPEAX@std@@@0@AEAU10@@Z DD imagerel $LN3
	DD	imagerel $LN3+71
	DD	imagerel $unwind$??$forward@U?$default_delete@V?$tuple@P6APEAXPEAX@ZPEAX@std@@@std@@@std@@YA$$QEAU?$default_delete@V?$tuple@P6APEAXPEAX@ZPEAX@std@@@0@AEAU10@@Z
pdata	ENDS
;	COMDAT pdata
pdata	SEGMENT
$pdata$??$?0U?$default_delete@V?$tuple@P6APEAXPEAX@ZPEAX@std@@@std@@PEAV?$tuple@P6APEAXPEAX@ZPEAX@1@@?$_Compressed_pair@U?$default_delete@V?$tuple@P6APEAXPEAX@ZPEAX@std@@@std@@PEAV?$tuple@P6APEAXPEAX@ZPEAX@2@$00@std@@QEAA@U_One_then_variadic_args_t@1@$$QEAU?$default_delete@V?$tuple@P6APEAXPEAX@ZPEAX@std@@@1@$$QEAPEAV?$tuple@P6APEAXPEAX@ZPEAX@1@@Z DD imagerel $LN3
	DD	imagerel $LN3+122
	DD	imagerel $unwind$??$?0U?$default_delete@V?$tuple@P6APEAXPEAX@ZPEAX@std@@@std@@PEAV?$tuple@P6APEAXPEAX@ZPEAX@1@@?$_Compressed_pair@U?$default_delete@V?$tuple@P6APEAXPEAX@ZPEAX@std@@@std@@PEAV?$tuple@P6APEAXPEAX@ZPEAX@2@$00@std@@QEAA@U_One_then_variadic_args_t@1@$$QEAU?$default_delete@V?$tuple@P6APEAXPEAX@ZPEAX@std@@@1@$$QEAPEAV?$tuple@P6APEAXPEAX@ZPEAX@1@@Z
pdata	ENDS
;	COMDAT pdata
pdata	SEGMENT
$pdata$??$get@$0A@P6APEAXPEAX@ZPEAX@std@@YAAEAP6APEAXPEAX@ZAEAV?$tuple@P6APEAXPEAX@ZPEAX@0@@Z DD imagerel $LN3
	DD	imagerel $LN3+75
	DD	imagerel $unwind$??$get@$0A@P6APEAXPEAX@ZPEAX@std@@YAAEAP6APEAXPEAX@ZAEAV?$tuple@P6APEAXPEAX@ZPEAX@0@@Z
pdata	ENDS
;	COMDAT pdata
pdata	SEGMENT
$pdata$??$move@AEAP6APEAXPEAX@Z@std@@YA$$QEAP6APEAXPEAX@ZAEAP6APEAX0@Z@Z DD imagerel $LN3
	DD	imagerel $LN3+71
	DD	imagerel $unwind$??$move@AEAP6APEAXPEAX@Z@std@@YA$$QEAP6APEAXPEAX@ZAEAP6APEAX0@Z@Z
pdata	ENDS
;	COMDAT pdata
pdata	SEGMENT
$pdata$??$get@$00P6APEAXPEAX@ZPEAX@std@@YAAEAPEAXAEAV?$tuple@P6APEAXPEAX@ZPEAX@0@@Z DD imagerel $LN3
	DD	imagerel $LN3+71
	DD	imagerel $unwind$??$get@$00P6APEAXPEAX@ZPEAX@std@@YAAEAPEAXAEAV?$tuple@P6APEAXPEAX@ZPEAX@0@@Z
pdata	ENDS
;	COMDAT pdata
pdata	SEGMENT
$pdata$??$move@AEAPEAX@std@@YA$$QEAPEAXAEAPEAX@Z DD imagerel $LN3
	DD	imagerel $LN3+71
	DD	imagerel $unwind$??$move@AEAPEAX@std@@YA$$QEAPEAXAEAPEAX@Z
pdata	ENDS
;	COMDAT pdata
pdata	SEGMENT
$pdata$??$forward@P6APEAXPEAX@Z@std@@YA$$QEAP6APEAXPEAX@ZAEAP6APEAX0@Z@Z DD imagerel $LN3
	DD	imagerel $LN3+71
	DD	imagerel $unwind$??$forward@P6APEAXPEAX@Z@std@@YA$$QEAP6APEAXPEAX@ZAEAP6APEAX0@Z@Z
pdata	ENDS
;	COMDAT pdata
pdata	SEGMENT
$pdata$??$forward@PEAX@std@@YA$$QEAPEAXAEAPEAX@Z DD imagerel $LN3
	DD	imagerel $LN3+71
	DD	imagerel $unwind$??$forward@PEAX@std@@YA$$QEAPEAXAEAPEAX@Z
pdata	ENDS
;	COMDAT pdata
pdata	SEGMENT
$pdata$??$_Call@P6APEAXPEAX@ZPEAX@_Invoker_functor@std@@SAPEAX$$QEAP6APEAXPEAX@Z$$QEAPEAX@Z DD imagerel $LN3
	DD	imagerel $LN3+112
	DD	imagerel $unwind$??$_Call@P6APEAXPEAX@ZPEAX@_Invoker_functor@std@@SAPEAX$$QEAP6APEAXPEAX@Z$$QEAPEAX@Z
pdata	ENDS
;	COMDAT pdata
pdata	SEGMENT
$pdata$??$invoke@P6APEAXPEAX@ZPEAX@std@@YAPEAX$$QEAP6APEAXPEAX@Z$$QEAPEAX@Z DD imagerel $LN3
	DD	imagerel $LN3+118
	DD	imagerel $unwind$??$invoke@P6APEAXPEAX@ZPEAX@std@@YAPEAX$$QEAP6APEAXPEAX@Z$$QEAPEAX@Z
pdata	ENDS
;	COMDAT pdata
pdata	SEGMENT
$pdata$??$?0U_Exact_args_t@std@@AEAP6APEAXPEAX@ZAEAPEAX$0A@@?$tuple@P6APEAXPEAX@ZPEAX@std@@QEAA@U_Exact_args_t@1@AEAP6APEAXPEAX@ZAEAPEAX@Z DD imagerel $LN3
	DD	imagerel $LN3+169
	DD	imagerel $unwind$??$?0U_Exact_args_t@std@@AEAP6APEAXPEAX@ZAEAPEAX$0A@@?$tuple@P6APEAXPEAX@ZPEAX@std@@QEAA@U_Exact_args_t@1@AEAP6APEAXPEAX@ZAEAPEAX@Z
pdata	ENDS
;	COMDAT pdata
pdata	SEGMENT
$pdata$??$?0AEAPEAV?$tuple@P6APEAXPEAX@ZPEAX@std@@@?$_Compressed_pair@U?$default_delete@V?$tuple@P6APEAXPEAX@ZPEAX@std@@@std@@PEAV?$tuple@P6APEAXPEAX@ZPEAX@2@$00@std@@QEAA@U_Zero_then_variadic_args_t@1@AEAPEAV?$tuple@P6APEAXPEAX@ZPEAX@1@@Z DD imagerel $LN3
	DD	imagerel $LN3+105
	DD	imagerel $unwind$??$?0AEAPEAV?$tuple@P6APEAXPEAX@ZPEAX@std@@@?$_Compressed_pair@U?$default_delete@V?$tuple@P6APEAXPEAX@ZPEAX@std@@@std@@PEAV?$tuple@P6APEAXPEAX@ZPEAX@2@$00@std@@QEAA@U_Zero_then_variadic_args_t@1@AEAPEAV?$tuple@P6APEAXPEAX@ZPEAX@1@@Z
pdata	ENDS
;	COMDAT pdata
pdata	SEGMENT
$pdata$??$forward@PEAV?$tuple@P6APEAXPEAX@ZPEAX@std@@@std@@YA$$QEAPEAV?$tuple@P6APEAXPEAX@ZPEAX@0@AEAPEAV10@@Z DD imagerel $LN3
	DD	imagerel $LN3+71
	DD	imagerel $unwind$??$forward@PEAV?$tuple@P6APEAXPEAX@ZPEAX@std@@@std@@YA$$QEAPEAV?$tuple@P6APEAXPEAX@ZPEAX@0@AEAPEAV10@@Z
pdata	ENDS
;	COMDAT pdata
pdata	SEGMENT
$pdata$??$?0U_Exact_args_t@std@@AEAPEAX$$V$0A@@?$tuple@PEAX@std@@QEAA@U_Exact_args_t@1@AEAPEAX@Z DD imagerel $LN3
	DD	imagerel $LN3+145
	DD	imagerel $unwind$??$?0U_Exact_args_t@std@@AEAPEAX$$V$0A@@?$tuple@PEAX@std@@QEAA@U_Exact_args_t@1@AEAPEAX@Z
pdata	ENDS
;	COMDAT pdata
pdata	SEGMENT
$pdata$??$?0AEAP6APEAXPEAX@Z@?$_Tuple_val@P6APEAXPEAX@Z@std@@QEAA@AEAP6APEAXPEAX@Z@Z DD imagerel $LN3
	DD	imagerel $LN3+101
	DD	imagerel $unwind$??$?0AEAP6APEAXPEAX@Z@?$_Tuple_val@P6APEAXPEAX@Z@std@@QEAA@AEAP6APEAXPEAX@Z@Z
pdata	ENDS
;	COMDAT pdata
pdata	SEGMENT
$pdata$??$forward@AEAPEAV?$tuple@P6APEAXPEAX@ZPEAX@std@@@std@@YAAEAPEAV?$tuple@P6APEAXPEAX@ZPEAX@0@AEAPEAV10@@Z DD imagerel $LN3
	DD	imagerel $LN3+71
	DD	imagerel $unwind$??$forward@AEAPEAV?$tuple@P6APEAXPEAX@ZPEAX@std@@@std@@YAAEAPEAV?$tuple@P6APEAXPEAX@ZPEAX@0@AEAPEAV10@@Z
pdata	ENDS
;	COMDAT pdata
pdata	SEGMENT
$pdata$??$?0U_Exact_args_t@std@@$0A@@?$tuple@$$V@std@@QEAA@U_Exact_args_t@1@@Z DD imagerel $LN3
	DD	imagerel $LN3+75
	DD	imagerel $unwind$??$?0U_Exact_args_t@std@@$0A@@?$tuple@$$V@std@@QEAA@U_Exact_args_t@1@@Z
pdata	ENDS
;	COMDAT pdata
pdata	SEGMENT
$pdata$??$?0AEAPEAX@?$_Tuple_val@PEAX@std@@QEAA@AEAPEAX@Z DD imagerel $LN3
	DD	imagerel $LN3+101
	DD	imagerel $unwind$??$?0AEAPEAX@?$_Tuple_val@PEAX@std@@QEAA@AEAPEAX@Z
pdata	ENDS
;	COMDAT rtc$TMZ
rtc$TMZ	SEGMENT
_RTC_Shutdown.rtc$TMZ DQ FLAT:_RTC_Shutdown
rtc$TMZ	ENDS
;	COMDAT rtc$IMZ
rtc$IMZ	SEGMENT
_RTC_InitBase.rtc$IMZ DQ FLAT:_RTC_InitBase
rtc$IMZ	ENDS
;	COMDAT xdata
xdata	SEGMENT
$unwind$??$?0AEAPEAX@?$_Tuple_val@PEAX@std@@QEAA@AEAPEAX@Z DD 025052f01H
	DD	01132318H
	DD	0700c001dH
	DD	0500bH
xdata	ENDS
;	COMDAT xdata
xdata	SEGMENT
$ip2state$??$?0U_Exact_args_t@std@@$0A@@?$tuple@$$V@std@@QEAA@U_Exact_args_t@1@@Z DB 02H
	DB	00H
	DB	00H
xdata	ENDS
;	COMDAT xdata
xdata	SEGMENT
$cppxdata$??$?0U_Exact_args_t@std@@$0A@@?$tuple@$$V@std@@QEAA@U_Exact_args_t@1@@Z DB 060H
	DD	imagerel $ip2state$??$?0U_Exact_args_t@std@@$0A@@?$tuple@$$V@std@@QEAA@U_Exact_args_t@1@@Z
xdata	ENDS
;	COMDAT xdata
xdata	SEGMENT
$unwind$??$?0U_Exact_args_t@std@@$0A@@?$tuple@$$V@std@@QEAA@U_Exact_args_t@1@@Z DD 025052e19H
	DD	01122317H
	DD	0700b001dH
	DD	0500aH
	DD	imagerel __CxxFrameHandler4
	DD	imagerel $cppxdata$??$?0U_Exact_args_t@std@@$0A@@?$tuple@$$V@std@@QEAA@U_Exact_args_t@1@@Z
xdata	ENDS
;	COMDAT xdata
xdata	SEGMENT
$ip2state$??$forward@AEAPEAV?$tuple@P6APEAXPEAX@ZPEAX@std@@@std@@YAAEAPEAV?$tuple@P6APEAXPEAX@ZPEAX@0@AEAPEAV10@@Z DB 02H
	DB	00H
	DB	00H
xdata	ENDS
;	COMDAT xdata
xdata	SEGMENT
$cppxdata$??$forward@AEAPEAV?$tuple@P6APEAXPEAX@ZPEAX@std@@@std@@YAAEAPEAV?$tuple@P6APEAXPEAX@ZPEAX@0@AEAPEAV10@@Z DB 060H
	DD	imagerel $ip2state$??$forward@AEAPEAV?$tuple@P6APEAXPEAX@ZPEAX@std@@@std@@YAAEAPEAV?$tuple@P6APEAXPEAX@ZPEAX@0@AEAPEAV10@@Z
xdata	ENDS
;	COMDAT xdata
xdata	SEGMENT
$unwind$??$forward@AEAPEAV?$tuple@P6APEAXPEAX@ZPEAX@std@@@std@@YAAEAPEAV?$tuple@P6APEAXPEAX@ZPEAX@0@AEAPEAV10@@Z DD 025052a19H
	DD	010e2313H
	DD	07007001dH
	DD	05006H
	DD	imagerel __CxxFrameHandler4
	DD	imagerel $cppxdata$??$forward@AEAPEAV?$tuple@P6APEAXPEAX@ZPEAX@std@@@std@@YAAEAPEAV?$tuple@P6APEAXPEAX@ZPEAX@0@AEAPEAV10@@Z
xdata	ENDS
;	COMDAT xdata
xdata	SEGMENT
$unwind$??$?0AEAP6APEAXPEAX@Z@?$_Tuple_val@P6APEAXPEAX@Z@std@@QEAA@AEAP6APEAXPEAX@Z@Z DD 025052f01H
	DD	01132318H
	DD	0700c001dH
	DD	0500bH
xdata	ENDS
;	COMDAT xdata
xdata	SEGMENT
$unwind$??$?0U_Exact_args_t@std@@AEAPEAX$$V$0A@@?$tuple@PEAX@std@@QEAA@U_Exact_args_t@1@AEAPEAX@Z DD 025053301H
	DD	0117231cH
	DD	070100021H
	DD	0500fH
xdata	ENDS
;	COMDAT xdata
xdata	SEGMENT
$ip2state$??$forward@PEAV?$tuple@P6APEAXPEAX@ZPEAX@std@@@std@@YA$$QEAPEAV?$tuple@P6APEAXPEAX@ZPEAX@0@AEAPEAV10@@Z DB 02H
	DB	00H
	DB	00H
xdata	ENDS
;	COMDAT xdata
xdata	SEGMENT
$cppxdata$??$forward@PEAV?$tuple@P6APEAXPEAX@ZPEAX@std@@@std@@YA$$QEAPEAV?$tuple@P6APEAXPEAX@ZPEAX@0@AEAPEAV10@@Z DB 060H
	DD	imagerel $ip2state$??$forward@PEAV?$tuple@P6APEAXPEAX@ZPEAX@std@@@std@@YA$$QEAPEAV?$tuple@P6APEAXPEAX@ZPEAX@0@AEAPEAV10@@Z
xdata	ENDS
;	COMDAT xdata
xdata	SEGMENT
$unwind$??$forward@PEAV?$tuple@P6APEAXPEAX@ZPEAX@std@@@std@@YA$$QEAPEAV?$tuple@P6APEAXPEAX@ZPEAX@0@AEAPEAV10@@Z DD 025052a19H
	DD	010e2313H
	DD	07007001dH
	DD	05006H
	DD	imagerel __CxxFrameHandler4
	DD	imagerel $cppxdata$??$forward@PEAV?$tuple@P6APEAXPEAX@ZPEAX@std@@@std@@YA$$QEAPEAV?$tuple@P6APEAXPEAX@ZPEAX@0@AEAPEAV10@@Z
xdata	ENDS
;	COMDAT xdata
xdata	SEGMENT
$ip2state$??$?0AEAPEAV?$tuple@P6APEAXPEAX@ZPEAX@std@@@?$_Compressed_pair@U?$default_delete@V?$tuple@P6APEAXPEAX@ZPEAX@std@@@std@@PEAV?$tuple@P6APEAXPEAX@ZPEAX@2@$00@std@@QEAA@U_Zero_then_variadic_args_t@1@AEAPEAV?$tuple@P6APEAXPEAX@ZPEAX@1@@Z DB 02H
	DB	00H
	DB	00H
xdata	ENDS
;	COMDAT xdata
xdata	SEGMENT
$cppxdata$??$?0AEAPEAV?$tuple@P6APEAXPEAX@ZPEAX@std@@@?$_Compressed_pair@U?$default_delete@V?$tuple@P6APEAXPEAX@ZPEAX@std@@@std@@PEAV?$tuple@P6APEAXPEAX@ZPEAX@2@$00@std@@QEAA@U_Zero_then_variadic_args_t@1@AEAPEAV?$tuple@P6APEAXPEAX@ZPEAX@1@@Z DB 060H
	DD	imagerel $ip2state$??$?0AEAPEAV?$tuple@P6APEAXPEAX@ZPEAX@std@@@?$_Compressed_pair@U?$default_delete@V?$tuple@P6APEAXPEAX@ZPEAX@std@@@std@@PEAV?$tuple@P6APEAXPEAX@ZPEAX@2@$00@std@@QEAA@U_Zero_then_variadic_args_t@1@AEAPEAV?$tuple@P6APEAXPEAX@ZPEAX@1@@Z
xdata	ENDS
;	COMDAT xdata
xdata	SEGMENT
$unwind$??$?0AEAPEAV?$tuple@P6APEAXPEAX@ZPEAX@std@@@?$_Compressed_pair@U?$default_delete@V?$tuple@P6APEAXPEAX@ZPEAX@std@@@std@@PEAV?$tuple@P6APEAXPEAX@ZPEAX@2@$00@std@@QEAA@U_Zero_then_variadic_args_t@1@AEAPEAV?$tuple@P6APEAXPEAX@ZPEAX@1@@Z DD 025053319H
	DD	0117231cH
	DD	07010001dH
	DD	0500fH
	DD	imagerel __CxxFrameHandler4
	DD	imagerel $cppxdata$??$?0AEAPEAV?$tuple@P6APEAXPEAX@ZPEAX@std@@@?$_Compressed_pair@U?$default_delete@V?$tuple@P6APEAXPEAX@ZPEAX@std@@@std@@PEAV?$tuple@P6APEAXPEAX@ZPEAX@2@$00@std@@QEAA@U_Zero_then_variadic_args_t@1@AEAPEAV?$tuple@P6APEAXPEAX@ZPEAX@1@@Z
xdata	ENDS
;	COMDAT xdata
xdata	SEGMENT
$unwind$??$?0U_Exact_args_t@std@@AEAP6APEAXPEAX@ZAEAPEAX$0A@@?$tuple@P6APEAXPEAX@ZPEAX@std@@QEAA@U_Exact_args_t@1@AEAP6APEAXPEAX@ZAEAPEAX@Z DD 025053801H
	DD	011c2321H
	DD	070150021H
	DD	05014H
xdata	ENDS
;	COMDAT xdata
xdata	SEGMENT
$unwind$??$invoke@P6APEAXPEAX@ZPEAX@std@@YAPEAX$$QEAP6APEAXPEAX@Z$$QEAPEAX@Z DD 025052f01H
	DD	01132318H
	DD	0700c001fH
	DD	0500bH
xdata	ENDS
;	COMDAT xdata
xdata	SEGMENT
$unwind$??$_Call@P6APEAXPEAX@ZPEAX@_Invoker_functor@std@@SAPEAX$$QEAP6APEAXPEAX@Z$$QEAPEAX@Z DD 025052f01H
	DD	01132318H
	DD	0700c001fH
	DD	0500bH
xdata	ENDS
;	COMDAT xdata
xdata	SEGMENT
$ip2state$??$forward@PEAX@std@@YA$$QEAPEAXAEAPEAX@Z DB 02H
	DB	00H
	DB	00H
xdata	ENDS
;	COMDAT xdata
xdata	SEGMENT
$cppxdata$??$forward@PEAX@std@@YA$$QEAPEAXAEAPEAX@Z DB 060H
	DD	imagerel $ip2state$??$forward@PEAX@std@@YA$$QEAPEAXAEAPEAX@Z
xdata	ENDS
;	COMDAT xdata
xdata	SEGMENT
$unwind$??$forward@PEAX@std@@YA$$QEAPEAXAEAPEAX@Z DD 025052a19H
	DD	010e2313H
	DD	07007001dH
	DD	05006H
	DD	imagerel __CxxFrameHandler4
	DD	imagerel $cppxdata$??$forward@PEAX@std@@YA$$QEAPEAXAEAPEAX@Z
xdata	ENDS
;	COMDAT xdata
xdata	SEGMENT
$ip2state$??$forward@P6APEAXPEAX@Z@std@@YA$$QEAP6APEAXPEAX@ZAEAP6APEAX0@Z@Z DB 02H
	DB	00H
	DB	00H
xdata	ENDS
;	COMDAT xdata
xdata	SEGMENT
$cppxdata$??$forward@P6APEAXPEAX@Z@std@@YA$$QEAP6APEAXPEAX@ZAEAP6APEAX0@Z@Z DB 060H
	DD	imagerel $ip2state$??$forward@P6APEAXPEAX@Z@std@@YA$$QEAP6APEAXPEAX@ZAEAP6APEAX0@Z@Z
xdata	ENDS
;	COMDAT xdata
xdata	SEGMENT
$unwind$??$forward@P6APEAXPEAX@Z@std@@YA$$QEAP6APEAXPEAX@ZAEAP6APEAX0@Z@Z DD 025052a19H
	DD	010e2313H
	DD	07007001dH
	DD	05006H
	DD	imagerel __CxxFrameHandler4
	DD	imagerel $cppxdata$??$forward@P6APEAXPEAX@Z@std@@YA$$QEAP6APEAXPEAX@ZAEAP6APEAX0@Z@Z
xdata	ENDS
;	COMDAT xdata
xdata	SEGMENT
$ip2state$??$move@AEAPEAX@std@@YA$$QEAPEAXAEAPEAX@Z DB 02H
	DB	00H
	DB	00H
xdata	ENDS
;	COMDAT xdata
xdata	SEGMENT
$cppxdata$??$move@AEAPEAX@std@@YA$$QEAPEAXAEAPEAX@Z DB 060H
	DD	imagerel $ip2state$??$move@AEAPEAX@std@@YA$$QEAPEAXAEAPEAX@Z
xdata	ENDS
;	COMDAT xdata
xdata	SEGMENT
$unwind$??$move@AEAPEAX@std@@YA$$QEAPEAXAEAPEAX@Z DD 025052a19H
	DD	010e2313H
	DD	07007001dH
	DD	05006H
	DD	imagerel __CxxFrameHandler4
	DD	imagerel $cppxdata$??$move@AEAPEAX@std@@YA$$QEAPEAXAEAPEAX@Z
xdata	ENDS
;	COMDAT xdata
xdata	SEGMENT
$ip2state$??$get@$00P6APEAXPEAX@ZPEAX@std@@YAAEAPEAXAEAV?$tuple@P6APEAXPEAX@ZPEAX@0@@Z DB 02H
	DB	00H
	DB	00H
xdata	ENDS
;	COMDAT xdata
xdata	SEGMENT
$cppxdata$??$get@$00P6APEAXPEAX@ZPEAX@std@@YAAEAPEAXAEAV?$tuple@P6APEAXPEAX@ZPEAX@0@@Z DB 060H
	DD	imagerel $ip2state$??$get@$00P6APEAXPEAX@ZPEAX@std@@YAAEAPEAXAEAV?$tuple@P6APEAXPEAX@ZPEAX@0@@Z
xdata	ENDS
;	COMDAT xdata
xdata	SEGMENT
$unwind$??$get@$00P6APEAXPEAX@ZPEAX@std@@YAAEAPEAXAEAV?$tuple@P6APEAXPEAX@ZPEAX@0@@Z DD 025052a19H
	DD	010e2313H
	DD	07007001dH
	DD	05006H
	DD	imagerel __CxxFrameHandler4
	DD	imagerel $cppxdata$??$get@$00P6APEAXPEAX@ZPEAX@std@@YAAEAPEAXAEAV?$tuple@P6APEAXPEAX@ZPEAX@0@@Z
xdata	ENDS
;	COMDAT xdata
xdata	SEGMENT
$ip2state$??$move@AEAP6APEAXPEAX@Z@std@@YA$$QEAP6APEAXPEAX@ZAEAP6APEAX0@Z@Z DB 02H
	DB	00H
	DB	00H
xdata	ENDS
;	COMDAT xdata
xdata	SEGMENT
$cppxdata$??$move@AEAP6APEAXPEAX@Z@std@@YA$$QEAP6APEAXPEAX@ZAEAP6APEAX0@Z@Z DB 060H
	DD	imagerel $ip2state$??$move@AEAP6APEAXPEAX@Z@std@@YA$$QEAP6APEAXPEAX@ZAEAP6APEAX0@Z@Z
xdata	ENDS
;	COMDAT xdata
xdata	SEGMENT
$unwind$??$move@AEAP6APEAXPEAX@Z@std@@YA$$QEAP6APEAXPEAX@ZAEAP6APEAX0@Z@Z DD 025052a19H
	DD	010e2313H
	DD	07007001dH
	DD	05006H
	DD	imagerel __CxxFrameHandler4
	DD	imagerel $cppxdata$??$move@AEAP6APEAXPEAX@Z@std@@YA$$QEAP6APEAXPEAX@ZAEAP6APEAX0@Z@Z
xdata	ENDS
;	COMDAT xdata
xdata	SEGMENT
$ip2state$??$get@$0A@P6APEAXPEAX@ZPEAX@std@@YAAEAP6APEAXPEAX@ZAEAV?$tuple@P6APEAXPEAX@ZPEAX@0@@Z DB 02H
	DB	00H
	DB	00H
xdata	ENDS
;	COMDAT xdata
xdata	SEGMENT
$cppxdata$??$get@$0A@P6APEAXPEAX@ZPEAX@std@@YAAEAP6APEAXPEAX@ZAEAV?$tuple@P6APEAXPEAX@ZPEAX@0@@Z DB 060H
	DD	imagerel $ip2state$??$get@$0A@P6APEAXPEAX@ZPEAX@std@@YAAEAP6APEAXPEAX@ZAEAV?$tuple@P6APEAXPEAX@ZPEAX@0@@Z
xdata	ENDS
;	COMDAT xdata
xdata	SEGMENT
$unwind$??$get@$0A@P6APEAXPEAX@ZPEAX@std@@YAAEAP6APEAXPEAX@ZAEAV?$tuple@P6APEAXPEAX@ZPEAX@0@@Z DD 025052a19H
	DD	010e2313H
	DD	07007001dH
	DD	05006H
	DD	imagerel __CxxFrameHandler4
	DD	imagerel $cppxdata$??$get@$0A@P6APEAXPEAX@ZPEAX@std@@YAAEAP6APEAXPEAX@ZAEAV?$tuple@P6APEAXPEAX@ZPEAX@0@@Z
xdata	ENDS
;	COMDAT xdata
xdata	SEGMENT
$ip2state$??$?0U?$default_delete@V?$tuple@P6APEAXPEAX@ZPEAX@std@@@std@@PEAV?$tuple@P6APEAXPEAX@ZPEAX@1@@?$_Compressed_pair@U?$default_delete@V?$tuple@P6APEAXPEAX@ZPEAX@std@@@std@@PEAV?$tuple@P6APEAXPEAX@ZPEAX@2@$00@std@@QEAA@U_One_then_variadic_args_t@1@$$QEAU?$default_delete@V?$tuple@P6APEAXPEAX@ZPEAX@std@@@1@$$QEAPEAV?$tuple@P6APEAXPEAX@ZPEAX@1@@Z DB 02H
	DB	00H
	DB	00H
xdata	ENDS
;	COMDAT xdata
xdata	SEGMENT
$cppxdata$??$?0U?$default_delete@V?$tuple@P6APEAXPEAX@ZPEAX@std@@@std@@PEAV?$tuple@P6APEAXPEAX@ZPEAX@1@@?$_Compressed_pair@U?$default_delete@V?$tuple@P6APEAXPEAX@ZPEAX@std@@@std@@PEAV?$tuple@P6APEAXPEAX@ZPEAX@2@$00@std@@QEAA@U_One_then_variadic_args_t@1@$$QEAU?$default_delete@V?$tuple@P6APEAXPEAX@ZPEAX@std@@@1@$$QEAPEAV?$tuple@P6APEAXPEAX@ZPEAX@1@@Z DB 060H
	DD	imagerel $ip2state$??$?0U?$default_delete@V?$tuple@P6APEAXPEAX@ZPEAX@std@@@std@@PEAV?$tuple@P6APEAXPEAX@ZPEAX@1@@?$_Compressed_pair@U?$default_delete@V?$tuple@P6APEAXPEAX@ZPEAX@std@@@std@@PEAV?$tuple@P6APEAXPEAX@ZPEAX@2@$00@std@@QEAA@U_One_then_variadic_args_t@1@$$QEAU?$default_delete@V?$tuple@P6APEAXPEAX@ZPEAX@std@@@1@$$QEAPEAV?$tuple@P6APEAXPEAX@ZPEAX@1@@Z
xdata	ENDS
;	COMDAT xdata
xdata	SEGMENT
$unwind$??$?0U?$default_delete@V?$tuple@P6APEAXPEAX@ZPEAX@std@@@std@@PEAV?$tuple@P6APEAXPEAX@ZPEAX@1@@?$_Compressed_pair@U?$default_delete@V?$tuple@P6APEAXPEAX@ZPEAX@std@@@std@@PEAV?$tuple@P6APEAXPEAX@ZPEAX@2@$00@std@@QEAA@U_One_then_variadic_args_t@1@$$QEAU?$default_delete@V?$tuple@P6APEAXPEAX@ZPEAX@std@@@1@$$QEAPEAV?$tuple@P6APEAXPEAX@ZPEAX@1@@Z DD 025053819H
	DD	011c2321H
	DD	07015001dH
	DD	05014H
	DD	imagerel __CxxFrameHandler4
	DD	imagerel $cppxdata$??$?0U?$default_delete@V?$tuple@P6APEAXPEAX@ZPEAX@std@@@std@@PEAV?$tuple@P6APEAXPEAX@ZPEAX@1@@?$_Compressed_pair@U?$default_delete@V?$tuple@P6APEAXPEAX@ZPEAX@std@@@std@@PEAV?$tuple@P6APEAXPEAX@ZPEAX@2@$00@std@@QEAA@U_One_then_variadic_args_t@1@$$QEAU?$default_delete@V?$tuple@P6APEAXPEAX@ZPEAX@std@@@1@$$QEAPEAV?$tuple@P6APEAXPEAX@ZPEAX@1@@Z
xdata	ENDS
;	COMDAT xdata
xdata	SEGMENT
$ip2state$??$forward@U?$default_delete@V?$tuple@P6APEAXPEAX@ZPEAX@std@@@std@@@std@@YA$$QEAU?$default_delete@V?$tuple@P6APEAXPEAX@ZPEAX@std@@@0@AEAU10@@Z DB 02H
	DB	00H
	DB	00H
xdata	ENDS
;	COMDAT xdata
xdata	SEGMENT
$cppxdata$??$forward@U?$default_delete@V?$tuple@P6APEAXPEAX@ZPEAX@std@@@std@@@std@@YA$$QEAU?$default_delete@V?$tuple@P6APEAXPEAX@ZPEAX@std@@@0@AEAU10@@Z DB 060H
	DD	imagerel $ip2state$??$forward@U?$default_delete@V?$tuple@P6APEAXPEAX@ZPEAX@std@@@std@@@std@@YA$$QEAU?$default_delete@V?$tuple@P6APEAXPEAX@ZPEAX@std@@@0@AEAU10@@Z
xdata	ENDS
;	COMDAT xdata
xdata	SEGMENT
$unwind$??$forward@U?$default_delete@V?$tuple@P6APEAXPEAX@ZPEAX@std@@@std@@@std@@YA$$QEAU?$default_delete@V?$tuple@P6APEAXPEAX@ZPEAX@std@@@0@AEAU10@@Z DD 025052a19H
	DD	010e2313H
	DD	07007001dH
	DD	05006H
	DD	imagerel __CxxFrameHandler4
	DD	imagerel $cppxdata$??$forward@U?$default_delete@V?$tuple@P6APEAXPEAX@ZPEAX@std@@@std@@@std@@YA$$QEAU?$default_delete@V?$tuple@P6APEAXPEAX@ZPEAX@std@@@0@AEAU10@@Z
xdata	ENDS
;	COMDAT xdata
xdata	SEGMENT
$ip2state$??$?0U?$default_delete@V?$tuple@P6APEAXPEAX@ZPEAX@std@@@std@@$0A@@?$unique_ptr@V?$tuple@P6APEAXPEAX@ZPEAX@std@@U?$default_delete@V?$tuple@P6APEAXPEAX@ZPEAX@std@@@2@@std@@QEAA@PEAV?$tuple@P6APEAXPEAX@ZPEAX@1@@Z DB 02H
	DB	00H
	DB	00H
xdata	ENDS
;	COMDAT xdata
xdata	SEGMENT
$cppxdata$??$?0U?$default_delete@V?$tuple@P6APEAXPEAX@ZPEAX@std@@@std@@$0A@@?$unique_ptr@V?$tuple@P6APEAXPEAX@ZPEAX@std@@U?$default_delete@V?$tuple@P6APEAXPEAX@ZPEAX@std@@@2@@std@@QEAA@PEAV?$tuple@P6APEAXPEAX@ZPEAX@1@@Z DB 060H
	DD	imagerel $ip2state$??$?0U?$default_delete@V?$tuple@P6APEAXPEAX@ZPEAX@std@@@std@@$0A@@?$unique_ptr@V?$tuple@P6APEAXPEAX@ZPEAX@std@@U?$default_delete@V?$tuple@P6APEAXPEAX@ZPEAX@std@@@2@@std@@QEAA@PEAV?$tuple@P6APEAXPEAX@ZPEAX@1@@Z
xdata	ENDS
;	COMDAT xdata
xdata	SEGMENT
$unwind$??$?0U?$default_delete@V?$tuple@P6APEAXPEAX@ZPEAX@std@@@std@@$0A@@?$unique_ptr@V?$tuple@P6APEAXPEAX@ZPEAX@std@@U?$default_delete@V?$tuple@P6APEAXPEAX@ZPEAX@std@@@2@@std@@QEAA@PEAV?$tuple@P6APEAXPEAX@ZPEAX@1@@Z DD 025052f19H
	DD	01132318H
	DD	0700c0021H
	DD	0500bH
	DD	imagerel __CxxFrameHandler4
	DD	imagerel $cppxdata$??$?0U?$default_delete@V?$tuple@P6APEAXPEAX@ZPEAX@std@@@std@@$0A@@?$unique_ptr@V?$tuple@P6APEAXPEAX@ZPEAX@std@@U?$default_delete@V?$tuple@P6APEAXPEAX@ZPEAX@std@@@2@@std@@QEAA@PEAV?$tuple@P6APEAXPEAX@ZPEAX@1@@Z
xdata	ENDS
;	COMDAT xdata
xdata	SEGMENT
$ip2state$??$?0AEAP6APEAXPEAX@ZAEAPEAX$0A@@?$tuple@P6APEAXPEAX@ZPEAX@std@@QEAA@AEAP6APEAXPEAX@ZAEAPEAX@Z DB 02H
	DB	00H
	DB	00H
xdata	ENDS
;	COMDAT xdata
xdata	SEGMENT
$cppxdata$??$?0AEAP6APEAXPEAX@ZAEAPEAX$0A@@?$tuple@P6APEAXPEAX@ZPEAX@std@@QEAA@AEAP6APEAXPEAX@ZAEAPEAX@Z DB 060H
	DD	imagerel $ip2state$??$?0AEAP6APEAXPEAX@ZAEAPEAX$0A@@?$tuple@P6APEAXPEAX@ZPEAX@std@@QEAA@AEAP6APEAXPEAX@ZAEAPEAX@Z
xdata	ENDS
;	COMDAT xdata
xdata	SEGMENT
$unwind$??$?0AEAP6APEAXPEAX@ZAEAPEAX$0A@@?$tuple@P6APEAXPEAX@ZPEAX@std@@QEAA@AEAP6APEAXPEAX@ZAEAPEAX@Z DD 025053419H
	DD	0118231dH
	DD	070110021H
	DD	05010H
	DD	imagerel __CxxFrameHandler4
	DD	imagerel $cppxdata$??$?0AEAP6APEAXPEAX@ZAEAPEAX$0A@@?$tuple@P6APEAXPEAX@ZPEAX@std@@QEAA@AEAP6APEAXPEAX@ZAEAPEAX@Z
xdata	ENDS
;	COMDAT xdata
xdata	SEGMENT
$ip2state$??$exchange@PEAV?$tuple@P6APEAXPEAX@ZPEAX@std@@PEAV12@@std@@YAPEAV?$tuple@P6APEAXPEAX@ZPEAX@0@AEAPEAV10@$$QEAPEAV10@@Z DB 02H
	DB	00H
	DB	00H
xdata	ENDS
;	COMDAT xdata
xdata	SEGMENT
$cppxdata$??$exchange@PEAV?$tuple@P6APEAXPEAX@ZPEAX@std@@PEAV12@@std@@YAPEAV?$tuple@P6APEAXPEAX@ZPEAX@0@AEAPEAV10@$$QEAPEAV10@@Z DB 060H
	DD	imagerel $ip2state$??$exchange@PEAV?$tuple@P6APEAXPEAX@ZPEAX@std@@PEAV12@@std@@YAPEAV?$tuple@P6APEAXPEAX@ZPEAX@0@AEAPEAV10@$$QEAPEAV10@@Z
xdata	ENDS
;	COMDAT xdata
xdata	SEGMENT
$unwind$??$exchange@PEAV?$tuple@P6APEAXPEAX@ZPEAX@std@@PEAV12@@std@@YAPEAV?$tuple@P6APEAXPEAX@ZPEAX@0@AEAPEAV10@$$QEAPEAV10@@Z DD 025052f19H
	DD	01132318H
	DD	0700c0021H
	DD	0500bH
	DD	imagerel __CxxFrameHandler4
	DD	imagerel $cppxdata$??$exchange@PEAV?$tuple@P6APEAXPEAX@ZPEAX@std@@PEAV12@@std@@YAPEAV?$tuple@P6APEAXPEAX@ZPEAX@0@AEAPEAV10@$$QEAPEAV10@@Z
xdata	ENDS
;	COMDAT xdata
xdata	SEGMENT
$ip2state$??$_Invoke@V?$tuple@P6APEAXPEAX@ZPEAX@std@@$0A@$00@thread@std@@CAIPEAX@Z DB 02H
	DB	00H
	DB	00H
xdata	ENDS
;	COMDAT xdata
xdata	SEGMENT
$cppxdata$??$_Invoke@V?$tuple@P6APEAXPEAX@ZPEAX@std@@$0A@$00@thread@std@@CAIPEAX@Z DB 060H
	DD	imagerel $ip2state$??$_Invoke@V?$tuple@P6APEAXPEAX@ZPEAX@std@@$0A@$00@thread@std@@CAIPEAX@Z
xdata	ENDS
;	COMDAT xdata
xdata	SEGMENT
$unwind$??$_Invoke@V?$tuple@P6APEAXPEAX@ZPEAX@std@@$0A@$00@thread@std@@CAIPEAX@Z DD 025052a19H
	DD	010e2313H
	DD	070070029H
	DD	05006H
	DD	imagerel __CxxFrameHandler4
	DD	imagerel $cppxdata$??$_Invoke@V?$tuple@P6APEAXPEAX@ZPEAX@std@@$0A@$00@thread@std@@CAIPEAX@Z
xdata	ENDS
;	COMDAT CONST
CONST	SEGMENT
??$_Invoke@V?$tuple@P6APEAXPEAX@ZPEAX@std@@$0A@$00@thread@std@@CAIPEAX@Z$rtcName$0 DB 05fH ; std::thread::_Invoke<std::tuple<void * (__cdecl*)(void *),void *>,0,1>
	DB	046H
	DB	06eH
	DB	056H
	DB	061H
	DB	06cH
	DB	073H
	DB	00H
	ORG $+8
??$_Invoke@V?$tuple@P6APEAXPEAX@ZPEAX@std@@$0A@$00@thread@std@@CAIPEAX@Z$rtcVarDesc DD 028H ; std::thread::_Invoke<std::tuple<void * (__cdecl*)(void *),void *>,0,1>
	DD	08H
	DQ	FLAT:??$_Invoke@V?$tuple@P6APEAXPEAX@ZPEAX@std@@$0A@$00@thread@std@@CAIPEAX@Z$rtcName$0
	ORG $+48
??$_Invoke@V?$tuple@P6APEAXPEAX@ZPEAX@std@@$0A@$00@thread@std@@CAIPEAX@Z$rtcFrameData DD 01H ; std::thread::_Invoke<std::tuple<void * (__cdecl*)(void *),void *>,0,1>
	DD	00H
	DQ	FLAT:??$_Invoke@V?$tuple@P6APEAXPEAX@ZPEAX@std@@$0A@$00@thread@std@@CAIPEAX@Z$rtcVarDesc
CONST	ENDS
;	COMDAT xdata
xdata	SEGMENT
$ip2state$??$?0U?$default_delete@V?$tuple@P6APEAXPEAX@ZPEAX@std@@@std@@$0A@@?$unique_ptr@V?$tuple@P6APEAXPEAX@ZPEAX@std@@U?$default_delete@V?$tuple@P6APEAXPEAX@ZPEAX@std@@@2@@std@@QEAA@$$QEAV01@@Z DB 02H
	DB	00H
	DB	00H
xdata	ENDS
;	COMDAT xdata
xdata	SEGMENT
$cppxdata$??$?0U?$default_delete@V?$tuple@P6APEAXPEAX@ZPEAX@std@@@std@@$0A@@?$unique_ptr@V?$tuple@P6APEAXPEAX@ZPEAX@std@@U?$default_delete@V?$tuple@P6APEAXPEAX@ZPEAX@std@@@2@@std@@QEAA@$$QEAV01@@Z DB 060H
	DD	imagerel $ip2state$??$?0U?$default_delete@V?$tuple@P6APEAXPEAX@ZPEAX@std@@@std@@$0A@@?$unique_ptr@V?$tuple@P6APEAXPEAX@ZPEAX@std@@U?$default_delete@V?$tuple@P6APEAXPEAX@ZPEAX@std@@@2@@std@@QEAA@$$QEAV01@@Z
xdata	ENDS
;	COMDAT xdata
xdata	SEGMENT
$unwind$??$?0U?$default_delete@V?$tuple@P6APEAXPEAX@ZPEAX@std@@@std@@$0A@@?$unique_ptr@V?$tuple@P6APEAXPEAX@ZPEAX@std@@U?$default_delete@V?$tuple@P6APEAXPEAX@ZPEAX@std@@@2@@std@@QEAA@$$QEAV01@@Z DD 025052f19H
	DD	01132318H
	DD	0700c0025H
	DD	0500bH
	DD	imagerel __CxxFrameHandler4
	DD	imagerel $cppxdata$??$?0U?$default_delete@V?$tuple@P6APEAXPEAX@ZPEAX@std@@@std@@$0A@@?$unique_ptr@V?$tuple@P6APEAXPEAX@ZPEAX@std@@U?$default_delete@V?$tuple@P6APEAXPEAX@ZPEAX@std@@@2@@std@@QEAA@$$QEAV01@@Z
xdata	ENDS
;	COMDAT xdata
xdata	SEGMENT
$ip2state$?_Get_first@?$_Compressed_pair@U?$default_delete@V?$tuple@P6APEAXPEAX@ZPEAX@std@@@std@@PEAV?$tuple@P6APEAXPEAX@ZPEAX@2@$00@std@@QEAAAEAU?$default_delete@V?$tuple@P6APEAXPEAX@ZPEAX@std@@@2@XZ DB 02H
	DB	00H
	DB	00H
xdata	ENDS
;	COMDAT xdata
xdata	SEGMENT
$cppxdata$?_Get_first@?$_Compressed_pair@U?$default_delete@V?$tuple@P6APEAXPEAX@ZPEAX@std@@@std@@PEAV?$tuple@P6APEAXPEAX@ZPEAX@2@$00@std@@QEAAAEAU?$default_delete@V?$tuple@P6APEAXPEAX@ZPEAX@std@@@2@XZ DB 060H
	DD	imagerel $ip2state$?_Get_first@?$_Compressed_pair@U?$default_delete@V?$tuple@P6APEAXPEAX@ZPEAX@std@@@std@@PEAV?$tuple@P6APEAXPEAX@ZPEAX@2@$00@std@@QEAAAEAU?$default_delete@V?$tuple@P6APEAXPEAX@ZPEAX@std@@@2@XZ
xdata	ENDS
;	COMDAT xdata
xdata	SEGMENT
$unwind$?_Get_first@?$_Compressed_pair@U?$default_delete@V?$tuple@P6APEAXPEAX@ZPEAX@std@@@std@@PEAV?$tuple@P6APEAXPEAX@ZPEAX@2@$00@std@@QEAAAEAU?$default_delete@V?$tuple@P6APEAXPEAX@ZPEAX@std@@@2@XZ DD 025052a19H
	DD	010e2313H
	DD	07007001dH
	DD	05006H
	DD	imagerel __CxxFrameHandler4
	DD	imagerel $cppxdata$?_Get_first@?$_Compressed_pair@U?$default_delete@V?$tuple@P6APEAXPEAX@ZPEAX@std@@@std@@PEAV?$tuple@P6APEAXPEAX@ZPEAX@2@$00@std@@QEAAAEAU?$default_delete@V?$tuple@P6APEAXPEAX@ZPEAX@std@@@2@XZ
xdata	ENDS
;	COMDAT xdata
xdata	SEGMENT
$ip2state$?release@?$unique_ptr@V?$tuple@P6APEAXPEAX@ZPEAX@std@@U?$default_delete@V?$tuple@P6APEAXPEAX@ZPEAX@std@@@2@@std@@QEAAPEAV?$tuple@P6APEAXPEAX@ZPEAX@2@XZ DB 02H
	DB	00H
	DB	00H
xdata	ENDS
;	COMDAT xdata
xdata	SEGMENT
$cppxdata$?release@?$unique_ptr@V?$tuple@P6APEAXPEAX@ZPEAX@std@@U?$default_delete@V?$tuple@P6APEAXPEAX@ZPEAX@std@@@2@@std@@QEAAPEAV?$tuple@P6APEAXPEAX@ZPEAX@2@XZ DB 060H
	DD	imagerel $ip2state$?release@?$unique_ptr@V?$tuple@P6APEAXPEAX@ZPEAX@std@@U?$default_delete@V?$tuple@P6APEAXPEAX@ZPEAX@std@@@2@@std@@QEAAPEAV?$tuple@P6APEAXPEAX@ZPEAX@2@XZ
xdata	ENDS
;	COMDAT xdata
xdata	SEGMENT
$unwind$?release@?$unique_ptr@V?$tuple@P6APEAXPEAX@ZPEAX@std@@U?$default_delete@V?$tuple@P6APEAXPEAX@ZPEAX@std@@@2@@std@@QEAAPEAV?$tuple@P6APEAXPEAX@ZPEAX@2@XZ DD 025052a19H
	DD	010e2313H
	DD	070070021H
	DD	05006H
	DD	imagerel __CxxFrameHandler4
	DD	imagerel $cppxdata$?release@?$unique_ptr@V?$tuple@P6APEAXPEAX@ZPEAX@std@@U?$default_delete@V?$tuple@P6APEAXPEAX@ZPEAX@std@@@2@@std@@QEAAPEAV?$tuple@P6APEAXPEAX@ZPEAX@2@XZ
xdata	ENDS
;	COMDAT xdata
xdata	SEGMENT
$ip2state$?get@?$unique_ptr@V?$tuple@P6APEAXPEAX@ZPEAX@std@@U?$default_delete@V?$tuple@P6APEAXPEAX@ZPEAX@std@@@2@@std@@QEBAPEAV?$tuple@P6APEAXPEAX@ZPEAX@2@XZ DB 02H
	DB	00H
	DB	00H
xdata	ENDS
;	COMDAT xdata
xdata	SEGMENT
$cppxdata$?get@?$unique_ptr@V?$tuple@P6APEAXPEAX@ZPEAX@std@@U?$default_delete@V?$tuple@P6APEAXPEAX@ZPEAX@std@@@2@@std@@QEBAPEAV?$tuple@P6APEAXPEAX@ZPEAX@2@XZ DB 060H
	DD	imagerel $ip2state$?get@?$unique_ptr@V?$tuple@P6APEAXPEAX@ZPEAX@std@@U?$default_delete@V?$tuple@P6APEAXPEAX@ZPEAX@std@@@2@@std@@QEBAPEAV?$tuple@P6APEAXPEAX@ZPEAX@2@XZ
xdata	ENDS
;	COMDAT xdata
xdata	SEGMENT
$unwind$?get@?$unique_ptr@V?$tuple@P6APEAXPEAX@ZPEAX@std@@U?$default_delete@V?$tuple@P6APEAXPEAX@ZPEAX@std@@@2@@std@@QEBAPEAV?$tuple@P6APEAXPEAX@ZPEAX@2@XZ DD 025052a19H
	DD	010e2313H
	DD	07007001dH
	DD	05006H
	DD	imagerel __CxxFrameHandler4
	DD	imagerel $cppxdata$?get@?$unique_ptr@V?$tuple@P6APEAXPEAX@ZPEAX@std@@U?$default_delete@V?$tuple@P6APEAXPEAX@ZPEAX@std@@@2@@std@@QEBAPEAV?$tuple@P6APEAXPEAX@ZPEAX@2@XZ
xdata	ENDS
;	COMDAT xdata
xdata	SEGMENT
$ip2state$??D?$unique_ptr@V?$tuple@P6APEAXPEAX@ZPEAX@std@@U?$default_delete@V?$tuple@P6APEAXPEAX@ZPEAX@std@@@2@@std@@QEBAAEAV?$tuple@P6APEAXPEAX@ZPEAX@1@XZ DB 02H
	DB	00H
	DB	00H
xdata	ENDS
;	COMDAT xdata
xdata	SEGMENT
$cppxdata$??D?$unique_ptr@V?$tuple@P6APEAXPEAX@ZPEAX@std@@U?$default_delete@V?$tuple@P6APEAXPEAX@ZPEAX@std@@@2@@std@@QEBAAEAV?$tuple@P6APEAXPEAX@ZPEAX@1@XZ DB 060H
	DD	imagerel $ip2state$??D?$unique_ptr@V?$tuple@P6APEAXPEAX@ZPEAX@std@@U?$default_delete@V?$tuple@P6APEAXPEAX@ZPEAX@std@@@2@@std@@QEBAAEAV?$tuple@P6APEAXPEAX@ZPEAX@1@XZ
xdata	ENDS
;	COMDAT xdata
xdata	SEGMENT
$unwind$??D?$unique_ptr@V?$tuple@P6APEAXPEAX@ZPEAX@std@@U?$default_delete@V?$tuple@P6APEAXPEAX@ZPEAX@std@@@2@@std@@QEBAAEAV?$tuple@P6APEAXPEAX@ZPEAX@1@XZ DD 025052a19H
	DD	010e2313H
	DD	07007001dH
	DD	05006H
	DD	imagerel __CxxFrameHandler4
	DD	imagerel $cppxdata$??D?$unique_ptr@V?$tuple@P6APEAXPEAX@ZPEAX@std@@U?$default_delete@V?$tuple@P6APEAXPEAX@ZPEAX@std@@@2@@std@@QEBAAEAV?$tuple@P6APEAXPEAX@ZPEAX@1@XZ
xdata	ENDS
;	COMDAT xdata
xdata	SEGMENT
$ip2state$?get_deleter@?$unique_ptr@V?$tuple@P6APEAXPEAX@ZPEAX@std@@U?$default_delete@V?$tuple@P6APEAXPEAX@ZPEAX@std@@@2@@std@@QEAAAEAU?$default_delete@V?$tuple@P6APEAXPEAX@ZPEAX@std@@@2@XZ DB 02H
	DB	00H
	DB	00H
xdata	ENDS
;	COMDAT xdata
xdata	SEGMENT
$cppxdata$?get_deleter@?$unique_ptr@V?$tuple@P6APEAXPEAX@ZPEAX@std@@U?$default_delete@V?$tuple@P6APEAXPEAX@ZPEAX@std@@@2@@std@@QEAAAEAU?$default_delete@V?$tuple@P6APEAXPEAX@ZPEAX@std@@@2@XZ DB 060H
	DD	imagerel $ip2state$?get_deleter@?$unique_ptr@V?$tuple@P6APEAXPEAX@ZPEAX@std@@U?$default_delete@V?$tuple@P6APEAXPEAX@ZPEAX@std@@@2@@std@@QEAAAEAU?$default_delete@V?$tuple@P6APEAXPEAX@ZPEAX@std@@@2@XZ
xdata	ENDS
;	COMDAT xdata
xdata	SEGMENT
$unwind$?get_deleter@?$unique_ptr@V?$tuple@P6APEAXPEAX@ZPEAX@std@@U?$default_delete@V?$tuple@P6APEAXPEAX@ZPEAX@std@@@2@@std@@QEAAAEAU?$default_delete@V?$tuple@P6APEAXPEAX@ZPEAX@std@@@2@XZ DD 025052a19H
	DD	010e2313H
	DD	07007001dH
	DD	05006H
	DD	imagerel __CxxFrameHandler4
	DD	imagerel $cppxdata$?get_deleter@?$unique_ptr@V?$tuple@P6APEAXPEAX@ZPEAX@std@@U?$default_delete@V?$tuple@P6APEAXPEAX@ZPEAX@std@@@2@@std@@QEAAAEAU?$default_delete@V?$tuple@P6APEAXPEAX@ZPEAX@std@@@2@XZ
xdata	ENDS
;	COMDAT xdata
xdata	SEGMENT
$ip2state$??1?$unique_ptr@V?$tuple@P6APEAXPEAX@ZPEAX@std@@U?$default_delete@V?$tuple@P6APEAXPEAX@ZPEAX@std@@@2@@std@@QEAA@XZ DB 02H
	DB	00H
	DB	00H
xdata	ENDS
;	COMDAT xdata
xdata	SEGMENT
$cppxdata$??1?$unique_ptr@V?$tuple@P6APEAXPEAX@ZPEAX@std@@U?$default_delete@V?$tuple@P6APEAXPEAX@ZPEAX@std@@@2@@std@@QEAA@XZ DB 060H
	DD	imagerel $ip2state$??1?$unique_ptr@V?$tuple@P6APEAXPEAX@ZPEAX@std@@U?$default_delete@V?$tuple@P6APEAXPEAX@ZPEAX@std@@@2@@std@@QEAA@XZ
xdata	ENDS
;	COMDAT xdata
xdata	SEGMENT
$unwind$??1?$unique_ptr@V?$tuple@P6APEAXPEAX@ZPEAX@std@@U?$default_delete@V?$tuple@P6APEAXPEAX@ZPEAX@std@@@2@@std@@QEAA@XZ DD 025052a19H
	DD	010e2313H
	DD	07007001dH
	DD	05006H
	DD	imagerel __CxxFrameHandler4
	DD	imagerel $cppxdata$??1?$unique_ptr@V?$tuple@P6APEAXPEAX@ZPEAX@std@@U?$default_delete@V?$tuple@P6APEAXPEAX@ZPEAX@std@@@2@@std@@QEAA@XZ
xdata	ENDS
;	COMDAT xdata
xdata	SEGMENT
$ip2state$??R?$default_delete@V?$tuple@P6APEAXPEAX@ZPEAX@std@@@std@@QEBAXPEAV?$tuple@P6APEAXPEAX@ZPEAX@1@@Z DB 02H
	DB	00H
	DB	00H
xdata	ENDS
;	COMDAT xdata
xdata	SEGMENT
$cppxdata$??R?$default_delete@V?$tuple@P6APEAXPEAX@ZPEAX@std@@@std@@QEBAXPEAV?$tuple@P6APEAXPEAX@ZPEAX@1@@Z DB 060H
	DD	imagerel $ip2state$??R?$default_delete@V?$tuple@P6APEAXPEAX@ZPEAX@std@@@std@@QEBAXPEAV?$tuple@P6APEAXPEAX@ZPEAX@1@@Z
xdata	ENDS
;	COMDAT xdata
xdata	SEGMENT
$unwind$??R?$default_delete@V?$tuple@P6APEAXPEAX@ZPEAX@std@@@std@@QEBAXPEAV?$tuple@P6APEAXPEAX@ZPEAX@1@@Z DD 025052f19H
	DD	01132318H
	DD	0700c0021H
	DD	0500bH
	DD	imagerel __CxxFrameHandler4
	DD	imagerel $cppxdata$??R?$default_delete@V?$tuple@P6APEAXPEAX@ZPEAX@std@@@std@@QEBAXPEAV?$tuple@P6APEAXPEAX@ZPEAX@1@@Z
xdata	ENDS
;	COMDAT xdata
xdata	SEGMENT
$unwind$??$make_unique@V?$tuple@P6APEAXPEAX@ZPEAX@std@@AEAP6APEAXPEAX@ZAEAPEAX$0A@@std@@YA?AV?$unique_ptr@V?$tuple@P6APEAXPEAX@ZPEAX@std@@U?$default_delete@V?$tuple@P6APEAXPEAX@ZPEAX@std@@@2@@0@AEAP6APEAXPEAX@ZAEAPEAX@Z DD 025053401H
	DD	0118231dH
	DD	07011002bH
	DD	05010H
xdata	ENDS
;	COMDAT xdata
xdata	SEGMENT
$ip2state$??$forward@AEAPEAX@std@@YAAEAPEAXAEAPEAX@Z DB 02H
	DB	00H
	DB	00H
xdata	ENDS
;	COMDAT xdata
xdata	SEGMENT
$cppxdata$??$forward@AEAPEAX@std@@YAAEAPEAXAEAPEAX@Z DB 060H
	DD	imagerel $ip2state$??$forward@AEAPEAX@std@@YAAEAPEAXAEAPEAX@Z
xdata	ENDS
;	COMDAT xdata
xdata	SEGMENT
$unwind$??$forward@AEAPEAX@std@@YAAEAPEAXAEAPEAX@Z DD 025052a19H
	DD	010e2313H
	DD	07007001dH
	DD	05006H
	DD	imagerel __CxxFrameHandler4
	DD	imagerel $cppxdata$??$forward@AEAPEAX@std@@YAAEAPEAXAEAPEAX@Z
xdata	ENDS
;	COMDAT xdata
xdata	SEGMENT
$ip2state$??$forward@AEAP6APEAXPEAX@Z@std@@YAAEAP6APEAXPEAX@ZAEAP6APEAX0@Z@Z DB 02H
	DB	00H
	DB	00H
xdata	ENDS
;	COMDAT xdata
xdata	SEGMENT
$cppxdata$??$forward@AEAP6APEAXPEAX@Z@std@@YAAEAP6APEAXPEAX@ZAEAP6APEAX0@Z@Z DB 060H
	DD	imagerel $ip2state$??$forward@AEAP6APEAXPEAX@Z@std@@YAAEAP6APEAXPEAX@ZAEAP6APEAX0@Z@Z
xdata	ENDS
;	COMDAT xdata
xdata	SEGMENT
$unwind$??$forward@AEAP6APEAXPEAX@Z@std@@YAAEAP6APEAXPEAX@ZAEAP6APEAX0@Z@Z DD 025052a19H
	DD	010e2313H
	DD	07007001dH
	DD	05006H
	DD	imagerel __CxxFrameHandler4
	DD	imagerel $cppxdata$??$forward@AEAP6APEAXPEAX@Z@std@@YAAEAP6APEAXPEAX@ZAEAP6APEAX0@Z@Z
xdata	ENDS
;	COMDAT xdata
xdata	SEGMENT
$ip2state$??$addressof@Vmutex@std@@@std@@YAPEAVmutex@0@AEAV10@@Z DB 02H
	DB	00H
	DB	00H
xdata	ENDS
;	COMDAT xdata
xdata	SEGMENT
$cppxdata$??$addressof@Vmutex@std@@@std@@YAPEAVmutex@0@AEAV10@@Z DB 060H
	DD	imagerel $ip2state$??$addressof@Vmutex@std@@@std@@YAPEAVmutex@0@AEAV10@@Z
xdata	ENDS
;	COMDAT xdata
xdata	SEGMENT
$unwind$??$addressof@Vmutex@std@@@std@@YAPEAVmutex@0@AEAV10@@Z DD 025052a19H
	DD	010e2313H
	DD	07007001dH
	DD	05006H
	DD	imagerel __CxxFrameHandler4
	DD	imagerel $cppxdata$??$addressof@Vmutex@std@@@std@@YAPEAVmutex@0@AEAV10@@Z
xdata	ENDS
;	COMDAT xdata
xdata	SEGMENT
$unwind$?dtor$1@?0???$?0AEAP6APEAXPEAX@ZAEAPEAX$0A@@thread@std@@QEAA@AEAP6APEAXPEAX@ZAEAPEAX@Z@4HA DD 031001H
	DD	0700c4210H
	DD	0500bH
xdata	ENDS
;	COMDAT xdata
xdata	SEGMENT
$ip2state$??$?0AEAP6APEAXPEAX@ZAEAPEAX$0A@@thread@std@@QEAA@AEAP6APEAXPEAX@ZAEAPEAX@Z DB 06H
	DB	00H
	DB	00H
	DB	'A', 02H
	DB	02H
	DB	'I', 02H
	DB	00H
xdata	ENDS
;	COMDAT xdata
xdata	SEGMENT
$stateUnwindMap$??$?0AEAP6APEAXPEAX@ZAEAPEAX$0A@@thread@std@@QEAA@AEAP6APEAXPEAX@ZAEAPEAX@Z DB 02H
	DB	0eH
	DD	imagerel ?dtor$1@?0???$?0AEAP6APEAXPEAX@ZAEAPEAX$0A@@thread@std@@QEAA@AEAP6APEAXPEAX@ZAEAPEAX@Z@4HA
xdata	ENDS
;	COMDAT xdata
xdata	SEGMENT
$cppxdata$??$?0AEAP6APEAXPEAX@ZAEAPEAX$0A@@thread@std@@QEAA@AEAP6APEAXPEAX@ZAEAPEAX@Z DB 028H
	DD	imagerel $stateUnwindMap$??$?0AEAP6APEAXPEAX@ZAEAPEAX$0A@@thread@std@@QEAA@AEAP6APEAXPEAX@ZAEAPEAX@Z
	DD	imagerel $ip2state$??$?0AEAP6APEAXPEAX@ZAEAPEAX$0A@@thread@std@@QEAA@AEAP6APEAXPEAX@ZAEAPEAX@Z
xdata	ENDS
;	COMDAT xdata
xdata	SEGMENT
$unwind$??$?0AEAP6APEAXPEAX@ZAEAPEAX$0A@@thread@std@@QEAA@AEAP6APEAXPEAX@ZAEAPEAX@Z DD 035053411H
	DD	0118331dH
	DD	07011002dH
	DD	05010H
	DD	imagerel __CxxFrameHandler4
	DD	imagerel $cppxdata$??$?0AEAP6APEAXPEAX@ZAEAPEAX$0A@@thread@std@@QEAA@AEAP6APEAXPEAX@ZAEAPEAX@Z
xdata	ENDS
;	COMDAT CONST
CONST	SEGMENT
??$?0AEAP6APEAXPEAX@ZAEAPEAX$0A@@thread@std@@QEAA@AEAP6APEAXPEAX@ZAEAPEAX@Z$rtcName$0 DB 05fH ; std::thread::thread<void * (__cdecl*&)(void *),void * &,0>
	DB	044H
	DB	065H
	DB	063H
	DB	061H
	DB	079H
	DB	05fH
	DB	063H
	DB	06fH
	DB	070H
	DB	069H
	DB	065H
	DB	064H
	DB	00H
	ORG $+2
??$?0AEAP6APEAXPEAX@ZAEAPEAX$0A@@thread@std@@QEAA@AEAP6APEAXPEAX@ZAEAPEAX@Z$rtcVarDesc DD 038H ; std::thread::thread<void * (__cdecl*&)(void *),void * &,0>
	DD	08H
	DQ	FLAT:??$?0AEAP6APEAXPEAX@ZAEAPEAX$0A@@thread@std@@QEAA@AEAP6APEAXPEAX@ZAEAPEAX@Z$rtcName$0
	ORG $+48
??$?0AEAP6APEAXPEAX@ZAEAPEAX$0A@@thread@std@@QEAA@AEAP6APEAXPEAX@ZAEAPEAX@Z$rtcFrameData DD 01H ; std::thread::thread<void * (__cdecl*&)(void *),void * &,0>
	DD	00H
	DQ	FLAT:??$?0AEAP6APEAXPEAX@ZAEAPEAX$0A@@thread@std@@QEAA@AEAP6APEAXPEAX@ZAEAPEAX@Z$rtcVarDesc
CONST	ENDS
;	COMDAT xdata
xdata	SEGMENT
$unwind$??_Gshared_mutex@std@@QEAAPEAXI@Z DD 025052e01H
	DD	01122317H
	DD	0700b001dH
	DD	0500aH
xdata	ENDS
;	COMDAT xdata
xdata	SEGMENT
$ip2state$?unlock_shared@shared_mutex@std@@QEAAXXZ DB 02H
	DB	00H
	DB	00H
xdata	ENDS
;	COMDAT xdata
xdata	SEGMENT
$cppxdata$?unlock_shared@shared_mutex@std@@QEAAXXZ DB 060H
	DD	imagerel $ip2state$?unlock_shared@shared_mutex@std@@QEAAXXZ
xdata	ENDS
;	COMDAT xdata
xdata	SEGMENT
$unwind$?unlock_shared@shared_mutex@std@@QEAAXXZ DD 025052a19H
	DD	010e2313H
	DD	07007001dH
	DD	05006H
	DD	imagerel __CxxFrameHandler4
	DD	imagerel $cppxdata$?unlock_shared@shared_mutex@std@@QEAAXXZ
xdata	ENDS
;	COMDAT xdata
xdata	SEGMENT
$ip2state$?lock_shared@shared_mutex@std@@QEAAXXZ DB 02H
	DB	00H
	DB	00H
xdata	ENDS
;	COMDAT xdata
xdata	SEGMENT
$cppxdata$?lock_shared@shared_mutex@std@@QEAAXXZ DB 060H
	DD	imagerel $ip2state$?lock_shared@shared_mutex@std@@QEAAXXZ
xdata	ENDS
;	COMDAT xdata
xdata	SEGMENT
$unwind$?lock_shared@shared_mutex@std@@QEAAXXZ DD 025052a19H
	DD	010e2313H
	DD	07007001dH
	DD	05006H
	DD	imagerel __CxxFrameHandler4
	DD	imagerel $cppxdata$?lock_shared@shared_mutex@std@@QEAAXXZ
xdata	ENDS
;	COMDAT xdata
xdata	SEGMENT
$ip2state$?unlock@shared_mutex@std@@QEAAXXZ DB 02H
	DB	00H
	DB	00H
xdata	ENDS
;	COMDAT xdata
xdata	SEGMENT
$cppxdata$?unlock@shared_mutex@std@@QEAAXXZ DB 060H
	DD	imagerel $ip2state$?unlock@shared_mutex@std@@QEAAXXZ
xdata	ENDS
;	COMDAT xdata
xdata	SEGMENT
$unwind$?unlock@shared_mutex@std@@QEAAXXZ DD 025052a19H
	DD	010e2313H
	DD	07007001dH
	DD	05006H
	DD	imagerel __CxxFrameHandler4
	DD	imagerel $cppxdata$?unlock@shared_mutex@std@@QEAAXXZ
xdata	ENDS
;	COMDAT xdata
xdata	SEGMENT
$ip2state$?lock@shared_mutex@std@@QEAAXXZ DB 02H
	DB	00H
	DB	00H
xdata	ENDS
;	COMDAT xdata
xdata	SEGMENT
$cppxdata$?lock@shared_mutex@std@@QEAAXXZ DB 060H
	DD	imagerel $ip2state$?lock@shared_mutex@std@@QEAAXXZ
xdata	ENDS
;	COMDAT xdata
xdata	SEGMENT
$unwind$?lock@shared_mutex@std@@QEAAXXZ DD 025052a19H
	DD	010e2313H
	DD	07007001dH
	DD	05006H
	DD	imagerel __CxxFrameHandler4
	DD	imagerel $cppxdata$?lock@shared_mutex@std@@QEAAXXZ
xdata	ENDS
;	COMDAT xdata
xdata	SEGMENT
$ip2state$??1shared_mutex@std@@QEAA@XZ DB 02H
	DB	00H
	DB	00H
xdata	ENDS
;	COMDAT xdata
xdata	SEGMENT
$cppxdata$??1shared_mutex@std@@QEAA@XZ DB 060H
	DD	imagerel $ip2state$??1shared_mutex@std@@QEAA@XZ
xdata	ENDS
;	COMDAT xdata
xdata	SEGMENT
$unwind$??1shared_mutex@std@@QEAA@XZ DD 025052a19H
	DD	010e2313H
	DD	07007001dH
	DD	05006H
	DD	imagerel __CxxFrameHandler4
	DD	imagerel $cppxdata$??1shared_mutex@std@@QEAA@XZ
xdata	ENDS
;	COMDAT xdata
xdata	SEGMENT
$ip2state$??0shared_mutex@std@@QEAA@XZ DB 02H
	DB	00H
	DB	00H
xdata	ENDS
;	COMDAT xdata
xdata	SEGMENT
$cppxdata$??0shared_mutex@std@@QEAA@XZ DB 060H
	DD	imagerel $ip2state$??0shared_mutex@std@@QEAA@XZ
xdata	ENDS
;	COMDAT xdata
xdata	SEGMENT
$unwind$??0shared_mutex@std@@QEAA@XZ DD 025052a19H
	DD	010e2313H
	DD	07007001dH
	DD	05006H
	DD	imagerel __CxxFrameHandler4
	DD	imagerel $cppxdata$??0shared_mutex@std@@QEAA@XZ
xdata	ENDS
;	COMDAT xdata
xdata	SEGMENT
$ip2state$?mutex@?$unique_lock@Vmutex@std@@@std@@QEBAPEAV02@XZ DB 02H
	DB	00H
	DB	00H
xdata	ENDS
;	COMDAT xdata
xdata	SEGMENT
$cppxdata$?mutex@?$unique_lock@Vmutex@std@@@std@@QEBAPEAV02@XZ DB 060H
	DD	imagerel $ip2state$?mutex@?$unique_lock@Vmutex@std@@@std@@QEBAPEAV02@XZ
xdata	ENDS
;	COMDAT xdata
xdata	SEGMENT
$unwind$?mutex@?$unique_lock@Vmutex@std@@@std@@QEBAPEAV02@XZ DD 025052a19H
	DD	010e2313H
	DD	07007001dH
	DD	05006H
	DD	imagerel __CxxFrameHandler4
	DD	imagerel $cppxdata$?mutex@?$unique_lock@Vmutex@std@@@std@@QEBAPEAV02@XZ
xdata	ENDS
;	COMDAT xdata
xdata	SEGMENT
$ip2state$?release@?$unique_lock@Vmutex@std@@@std@@QEAAPEAVmutex@2@XZ DB 02H
	DB	00H
	DB	00H
xdata	ENDS
;	COMDAT xdata
xdata	SEGMENT
$cppxdata$?release@?$unique_lock@Vmutex@std@@@std@@QEAAPEAVmutex@2@XZ DB 060H
	DD	imagerel $ip2state$?release@?$unique_lock@Vmutex@std@@@std@@QEAAPEAVmutex@2@XZ
xdata	ENDS
;	COMDAT xdata
xdata	SEGMENT
$unwind$?release@?$unique_lock@Vmutex@std@@@std@@QEAAPEAVmutex@2@XZ DD 025052a19H
	DD	010e2313H
	DD	070070021H
	DD	05006H
	DD	imagerel __CxxFrameHandler4
	DD	imagerel $cppxdata$?release@?$unique_lock@Vmutex@std@@@std@@QEAAPEAVmutex@2@XZ
xdata	ENDS
;	COMDAT xdata
xdata	SEGMENT
$ip2state$??1?$unique_lock@Vmutex@std@@@std@@QEAA@XZ DB 02H
	DB	00H
	DB	00H
xdata	ENDS
;	COMDAT xdata
xdata	SEGMENT
$cppxdata$??1?$unique_lock@Vmutex@std@@@std@@QEAA@XZ DB 060H
	DD	imagerel $ip2state$??1?$unique_lock@Vmutex@std@@@std@@QEAA@XZ
xdata	ENDS
;	COMDAT xdata
xdata	SEGMENT
$unwind$??1?$unique_lock@Vmutex@std@@@std@@QEAA@XZ DD 025052a19H
	DD	010e2313H
	DD	07007001dH
	DD	05006H
	DD	imagerel __CxxFrameHandler4
	DD	imagerel $cppxdata$??1?$unique_lock@Vmutex@std@@@std@@QEAA@XZ
xdata	ENDS
;	COMDAT xdata
xdata	SEGMENT
$unwind$??0?$unique_lock@Vmutex@std@@@std@@QEAA@AEAVmutex@1@Uadopt_lock_t@1@@Z DD 025053401H
	DD	0118231dH
	DD	07011001dH
	DD	05010H
xdata	ENDS
;	COMDAT xdata
xdata	SEGMENT
$unwind$??_Gcondition_variable@std@@QEAAPEAXI@Z DD 025052e01H
	DD	01122317H
	DD	0700b001dH
	DD	0500aH
xdata	ENDS
;	COMDAT xdata
xdata	SEGMENT
$ip2state$?_Mycnd@condition_variable@std@@AEAAPEAU_Cnd_internal_imp_t@@XZ DB 02H
	DB	00H
	DB	00H
xdata	ENDS
;	COMDAT xdata
xdata	SEGMENT
$cppxdata$?_Mycnd@condition_variable@std@@AEAAPEAU_Cnd_internal_imp_t@@XZ DB 060H
	DD	imagerel $ip2state$?_Mycnd@condition_variable@std@@AEAAPEAU_Cnd_internal_imp_t@@XZ
xdata	ENDS
;	COMDAT xdata
xdata	SEGMENT
$unwind$?_Mycnd@condition_variable@std@@AEAAPEAU_Cnd_internal_imp_t@@XZ DD 025052a19H
	DD	010e2313H
	DD	07007001dH
	DD	05006H
	DD	imagerel __CxxFrameHandler4
	DD	imagerel $cppxdata$?_Mycnd@condition_variable@std@@AEAAPEAU_Cnd_internal_imp_t@@XZ
xdata	ENDS
;	COMDAT xdata
xdata	SEGMENT
$unwind$?wait@condition_variable@std@@QEAAXAEAV?$unique_lock@Vmutex@std@@@2@@Z DD 025052f01H
	DD	01132318H
	DD	0700c001fH
	DD	0500bH
xdata	ENDS
;	COMDAT xdata
xdata	SEGMENT
$ip2state$?notify_all@condition_variable@std@@QEAAXXZ DB 02H
	DB	00H
	DB	00H
xdata	ENDS
;	COMDAT xdata
xdata	SEGMENT
$cppxdata$?notify_all@condition_variable@std@@QEAAXXZ DB 060H
	DD	imagerel $ip2state$?notify_all@condition_variable@std@@QEAAXXZ
xdata	ENDS
;	COMDAT xdata
xdata	SEGMENT
$unwind$?notify_all@condition_variable@std@@QEAAXXZ DD 025052a19H
	DD	010e2313H
	DD	07007001dH
	DD	05006H
	DD	imagerel __CxxFrameHandler4
	DD	imagerel $cppxdata$?notify_all@condition_variable@std@@QEAAXXZ
xdata	ENDS
;	COMDAT xdata
xdata	SEGMENT
$ip2state$?notify_one@condition_variable@std@@QEAAXXZ DB 02H
	DB	00H
	DB	00H
xdata	ENDS
;	COMDAT xdata
xdata	SEGMENT
$cppxdata$?notify_one@condition_variable@std@@QEAAXXZ DB 060H
	DD	imagerel $ip2state$?notify_one@condition_variable@std@@QEAAXXZ
xdata	ENDS
;	COMDAT xdata
xdata	SEGMENT
$unwind$?notify_one@condition_variable@std@@QEAAXXZ DD 025052a19H
	DD	010e2313H
	DD	07007001dH
	DD	05006H
	DD	imagerel __CxxFrameHandler4
	DD	imagerel $cppxdata$?notify_one@condition_variable@std@@QEAAXXZ
xdata	ENDS
;	COMDAT xdata
xdata	SEGMENT
$ip2state$??1condition_variable@std@@QEAA@XZ DB 02H
	DB	00H
	DB	00H
xdata	ENDS
;	COMDAT xdata
xdata	SEGMENT
$cppxdata$??1condition_variable@std@@QEAA@XZ DB 060H
	DD	imagerel $ip2state$??1condition_variable@std@@QEAA@XZ
xdata	ENDS
;	COMDAT xdata
xdata	SEGMENT
$unwind$??1condition_variable@std@@QEAA@XZ DD 025052a19H
	DD	010e2313H
	DD	07007001dH
	DD	05006H
	DD	imagerel __CxxFrameHandler4
	DD	imagerel $cppxdata$??1condition_variable@std@@QEAA@XZ
xdata	ENDS
;	COMDAT xdata
xdata	SEGMENT
$unwind$??0condition_variable@std@@QEAA@XZ DD 025052a01H
	DD	010e2313H
	DD	07007001dH
	DD	05006H
xdata	ENDS
;	COMDAT xdata
xdata	SEGMENT
$unwind$??_Gmutex@std@@QEAAPEAXI@Z DD 025052e01H
	DD	01122317H
	DD	0700b001dH
	DD	0500aH
xdata	ENDS
;	COMDAT xdata
xdata	SEGMENT
$unwind$??1mutex@std@@QEAA@XZ DD 025052a01H
	DD	010e2313H
	DD	07007001dH
	DD	05006H
xdata	ENDS
;	COMDAT xdata
xdata	SEGMENT
$ip2state$??0mutex@std@@QEAA@XZ DB 02H
	DB	00H
	DB	00H
xdata	ENDS
;	COMDAT xdata
xdata	SEGMENT
$cppxdata$??0mutex@std@@QEAA@XZ DB 060H
	DD	imagerel $ip2state$??0mutex@std@@QEAA@XZ
xdata	ENDS
;	COMDAT xdata
xdata	SEGMENT
$unwind$??0mutex@std@@QEAA@XZ DD 025052a19H
	DD	010e2313H
	DD	07007001dH
	DD	05006H
	DD	imagerel __CxxFrameHandler4
	DD	imagerel $cppxdata$??0mutex@std@@QEAA@XZ
xdata	ENDS
;	COMDAT xdata
xdata	SEGMENT
$ip2state$?_Mymtx@_Mutex_base@std@@AEAAPEAU_Mtx_internal_imp_t@@XZ DB 02H
	DB	00H
	DB	00H
xdata	ENDS
;	COMDAT xdata
xdata	SEGMENT
$cppxdata$?_Mymtx@_Mutex_base@std@@AEAAPEAU_Mtx_internal_imp_t@@XZ DB 060H
	DD	imagerel $ip2state$?_Mymtx@_Mutex_base@std@@AEAAPEAU_Mtx_internal_imp_t@@XZ
xdata	ENDS
;	COMDAT xdata
xdata	SEGMENT
$unwind$?_Mymtx@_Mutex_base@std@@AEAAPEAU_Mtx_internal_imp_t@@XZ DD 025052a19H
	DD	010e2313H
	DD	07007001dH
	DD	05006H
	DD	imagerel __CxxFrameHandler4
	DD	imagerel $cppxdata$?_Mymtx@_Mutex_base@std@@AEAAPEAU_Mtx_internal_imp_t@@XZ
xdata	ENDS
;	COMDAT xdata
xdata	SEGMENT
$unwind$?unlock@_Mutex_base@std@@QEAAXXZ DD 025052a01H
	DD	010e2313H
	DD	07007001dH
	DD	05006H
xdata	ENDS
;	COMDAT xdata
xdata	SEGMENT
$unwind$?lock@_Mutex_base@std@@QEAAXXZ DD 025052a01H
	DD	010e2313H
	DD	07007001dH
	DD	05006H
xdata	ENDS
;	COMDAT xdata
xdata	SEGMENT
$ip2state$??1_Mutex_base@std@@QEAA@XZ DB 02H
	DB	00H
	DB	00H
xdata	ENDS
;	COMDAT xdata
xdata	SEGMENT
$cppxdata$??1_Mutex_base@std@@QEAA@XZ DB 060H
	DD	imagerel $ip2state$??1_Mutex_base@std@@QEAA@XZ
xdata	ENDS
;	COMDAT xdata
xdata	SEGMENT
$unwind$??1_Mutex_base@std@@QEAA@XZ DD 025052a19H
	DD	010e2313H
	DD	07007001dH
	DD	05006H
	DD	imagerel __CxxFrameHandler4
	DD	imagerel $cppxdata$??1_Mutex_base@std@@QEAA@XZ
xdata	ENDS
;	COMDAT xdata
xdata	SEGMENT
$ip2state$??0_Mutex_base@std@@QEAA@H@Z DB 02H
	DB	00H
	DB	00H
xdata	ENDS
;	COMDAT xdata
xdata	SEGMENT
$cppxdata$??0_Mutex_base@std@@QEAA@H@Z DB 060H
	DD	imagerel $ip2state$??0_Mutex_base@std@@QEAA@H@Z
xdata	ENDS
;	COMDAT xdata
xdata	SEGMENT
$unwind$??0_Mutex_base@std@@QEAA@H@Z DD 025052e19H
	DD	01122317H
	DD	0700b001fH
	DD	0500aH
	DD	imagerel __CxxFrameHandler4
	DD	imagerel $cppxdata$??0_Mutex_base@std@@QEAA@H@Z
xdata	ENDS
;	COMDAT xdata
xdata	SEGMENT
$unwind$??_Gthread@std@@QEAAPEAXI@Z DD 025052e01H
	DD	01122317H
	DD	0700b001dH
	DD	0500aH
xdata	ENDS
;	COMDAT xdata
xdata	SEGMENT
$unwind$?join@thread@std@@QEAAXXZ DD 025062b01H
	DD	010f2314H
	DD	070080028H
	DD	050066007H
xdata	ENDS
;	COMDAT xdata
xdata	SEGMENT
$ip2state$?joinable@thread@std@@QEBA_NXZ DB 02H
	DB	00H
	DB	00H
xdata	ENDS
;	COMDAT xdata
xdata	SEGMENT
$cppxdata$?joinable@thread@std@@QEBA_NXZ DB 060H
	DD	imagerel $ip2state$?joinable@thread@std@@QEBA_NXZ
xdata	ENDS
;	COMDAT xdata
xdata	SEGMENT
$unwind$?joinable@thread@std@@QEBA_NXZ DD 025052a19H
	DD	010e2313H
	DD	07007001fH
	DD	05006H
	DD	imagerel __CxxFrameHandler4
	DD	imagerel $cppxdata$?joinable@thread@std@@QEBA_NXZ
xdata	ENDS
;	COMDAT xdata
xdata	SEGMENT
$ip2state$??1thread@std@@QEAA@XZ DB 02H
	DB	00H
	DB	00H
xdata	ENDS
;	COMDAT xdata
xdata	SEGMENT
$cppxdata$??1thread@std@@QEAA@XZ DB 060H
	DD	imagerel $ip2state$??1thread@std@@QEAA@XZ
xdata	ENDS
;	COMDAT xdata
xdata	SEGMENT
$unwind$??1thread@std@@QEAA@XZ DD 025052a19H
	DD	010e2313H
	DD	07007001dH
	DD	05006H
	DD	imagerel __CxxFrameHandler4
	DD	imagerel $cppxdata$??1thread@std@@QEAA@XZ
xdata	ENDS
;	COMDAT xdata
xdata	SEGMENT
$unwind$?_Check_C_return@std@@YAHH@Z DD 025052801H
	DD	010d2312H
	DD	07006001dH
	DD	05005H
xdata	ENDS
;	COMDAT xdata
xdata	SEGMENT
$unwind$pthread_rwlock_unlock DD 025052a01H
	DD	010e2313H
	DD	07007001dH
	DD	05006H
xdata	ENDS
;	COMDAT xdata
xdata	SEGMENT
$unwind$pthread_rwlock_wrlock DD 025052a01H
	DD	010e2313H
	DD	07007001dH
	DD	05006H
xdata	ENDS
;	COMDAT xdata
xdata	SEGMENT
$unwind$pthread_rwlock_rdlock DD 025052a01H
	DD	010e2313H
	DD	07007001dH
	DD	05006H
xdata	ENDS
;	COMDAT xdata
xdata	SEGMENT
$unwind$pthread_rwlock_destroy DD 025052a01H
	DD	010e2313H
	DD	070070025H
	DD	05006H
xdata	ENDS
;	COMDAT xdata
xdata	SEGMENT
$unwind$pthread_rwlock_init DD 025052f01H
	DD	01132318H
	DD	0700c0025H
	DD	0500bH
xdata	ENDS
;	COMDAT xdata
xdata	SEGMENT
$unwind$pthread_mutex_unlock DD 025052a01H
	DD	010e2313H
	DD	07007001dH
	DD	05006H
xdata	ENDS
;	COMDAT xdata
xdata	SEGMENT
$unwind$pthread_mutex_lock DD 025052a01H
	DD	010e2313H
	DD	07007001dH
	DD	05006H
xdata	ENDS
;	COMDAT xdata
xdata	SEGMENT
$unwind$pthread_mutex_init DD 025052f01H
	DD	01132318H
	DD	0700c0021H
	DD	0500bH
xdata	ENDS
;	COMDAT xdata
xdata	SEGMENT
$unwind$pthread_mutex_destroy DD 025052a01H
	DD	010e2313H
	DD	070070021H
	DD	05006H
xdata	ENDS
;	COMDAT xdata
xdata	SEGMENT
$unwind$pthread_join DD 025052f01H
	DD	01132318H
	DD	0700c0025H
	DD	0500bH
xdata	ENDS
;	COMDAT xdata
xdata	SEGMENT
$unwind$pthread_exit DD 025052a01H
	DD	010e2313H
	DD	07007001dH
	DD	05006H
xdata	ENDS
;	COMDAT xdata
xdata	SEGMENT
$unwind$pthread_create DD 025053901H
	DD	011d2322H
	DD	070160025H
	DD	05015H
xdata	ENDS
;	COMDAT xdata
xdata	SEGMENT
$unwind$pthread_cond_wait DD 025052f01H
	DD	01132318H
	DD	0700c002bH
	DD	0500bH
xdata	ENDS
;	COMDAT CONST
CONST	SEGMENT
pthread_cond_wait$rtcName$0 DB 06cH
	DB	06fH
	DB	063H
	DB	06bH
	DB	00H
	ORG $+11
pthread_cond_wait$rtcVarDesc DD 048H
	DD	010H
	DQ	FLAT:pthread_cond_wait$rtcName$0
	ORG $+48
pthread_cond_wait$rtcFrameData DD 01H
	DD	00H
	DQ	FLAT:pthread_cond_wait$rtcVarDesc
CONST	ENDS
;	COMDAT xdata
xdata	SEGMENT
$unwind$pthread_cond_signal DD 025052a01H
	DD	010e2313H
	DD	07007001dH
	DD	05006H
xdata	ENDS
;	COMDAT xdata
xdata	SEGMENT
$unwind$pthread_cond_init DD 025052f01H
	DD	01132318H
	DD	0700c0025H
	DD	0500bH
xdata	ENDS
;	COMDAT xdata
xdata	SEGMENT
$unwind$pthread_cond_destroy DD 025052a01H
	DD	010e2313H
	DD	070070021H
	DD	05006H
xdata	ENDS
;	COMDAT xdata
xdata	SEGMENT
$unwind$pthread_cond_broadcast DD 025052a01H
	DD	010e2313H
	DD	07007001dH
	DD	05006H
xdata	ENDS
; Function compile flags: /Odt
;	COMDAT __JustMyCode_Default
_TEXT	SEGMENT
__JustMyCode_Default PROC				; COMDAT
	ret	0
__JustMyCode_Default ENDP
_TEXT	ENDS
; Function compile flags: /Odtp /RTCsu /ZI
; File D:\software_install\VS2019\VC\Tools\MSVC\14.26.28801\include\tuple
;	COMDAT ??$?0AEAPEAX@?$_Tuple_val@PEAX@std@@QEAA@AEAPEAX@Z
_TEXT	SEGMENT
this$ = 224
_Arg$ = 232
??$?0AEAPEAX@?$_Tuple_val@PEAX@std@@QEAA@AEAPEAX@Z PROC	; std::_Tuple_val<void *>::_Tuple_val<void *><void * &>, COMDAT

; 163  :     constexpr _Tuple_val(_Other&& _Arg) : _Val(_STD forward<_Other>(_Arg)) {}

$LN3:
	mov	QWORD PTR [rsp+16], rdx
	mov	QWORD PTR [rsp+8], rcx
	push	rbp
	push	rdi
	sub	rsp, 232				; 000000e8H
	lea	rbp, QWORD PTR [rsp+32]
	mov	rdi, rsp
	mov	ecx, 58					; 0000003aH
	mov	eax, -858993460				; ccccccccH
	rep stosd
	mov	rcx, QWORD PTR [rsp+264]
	lea	rcx, OFFSET FLAT:__78273460_tuple
	call	__CheckForDebuggerJustMyCode
	mov	rcx, QWORD PTR _Arg$[rbp]
	call	??$forward@AEAPEAX@std@@YAAEAPEAXAEAPEAX@Z ; std::forward<void * &>
	mov	rcx, QWORD PTR this$[rbp]
	mov	rax, QWORD PTR [rax]
	mov	QWORD PTR [rcx], rax
	mov	rax, QWORD PTR this$[rbp]
	lea	rsp, QWORD PTR [rbp+200]
	pop	rdi
	pop	rbp
	ret	0
??$?0AEAPEAX@?$_Tuple_val@PEAX@std@@QEAA@AEAPEAX@Z ENDP	; std::_Tuple_val<void *>::_Tuple_val<void *><void * &>
_TEXT	ENDS
; Function compile flags: /Odtp /RTCsu /ZI
; File D:\software_install\VS2019\VC\Tools\MSVC\14.26.28801\include\tuple
;	COMDAT ??$?0U_Exact_args_t@std@@$0A@@?$tuple@$$V@std@@QEAA@U_Exact_args_t@1@@Z
_TEXT	SEGMENT
this$ = 224
__formal$ = 232
??$?0U_Exact_args_t@std@@$0A@@?$tuple@$$V@std@@QEAA@U_Exact_args_t@1@@Z PROC ; std::tuple<>::tuple<><std::_Exact_args_t,0>, COMDAT

; 210  :     constexpr tuple(_Tag) noexcept /* strengthened */ {}

$LN3:
	mov	BYTE PTR [rsp+16], dl
	mov	QWORD PTR [rsp+8], rcx
	push	rbp
	push	rdi
	sub	rsp, 232				; 000000e8H
	lea	rbp, QWORD PTR [rsp+32]
	mov	rdi, rsp
	mov	ecx, 58					; 0000003aH
	mov	eax, -858993460				; ccccccccH
	rep stosd
	mov	rcx, QWORD PTR [rsp+264]
	lea	rcx, OFFSET FLAT:__78273460_tuple
	call	__CheckForDebuggerJustMyCode
	mov	rax, QWORD PTR this$[rbp]
	lea	rsp, QWORD PTR [rbp+200]
	pop	rdi
	pop	rbp
	ret	0
??$?0U_Exact_args_t@std@@$0A@@?$tuple@$$V@std@@QEAA@U_Exact_args_t@1@@Z ENDP ; std::tuple<>::tuple<><std::_Exact_args_t,0>
_TEXT	ENDS
; Function compile flags: /Odtp /RTCsu /ZI
; File D:\software_install\VS2019\VC\Tools\MSVC\14.26.28801\include\type_traits
;	COMDAT ??$forward@AEAPEAV?$tuple@P6APEAXPEAX@ZPEAX@std@@@std@@YAAEAPEAV?$tuple@P6APEAXPEAX@ZPEAX@0@AEAPEAV10@@Z
_TEXT	SEGMENT
_Arg$ = 224
??$forward@AEAPEAV?$tuple@P6APEAXPEAX@ZPEAX@std@@@std@@YAAEAPEAV?$tuple@P6APEAXPEAX@ZPEAX@0@AEAPEAV10@@Z PROC ; std::forward<std::tuple<void * (__cdecl*)(void *),void *> * &>, COMDAT

; 1454 :     remove_reference_t<_Ty>& _Arg) noexcept { // forward an lvalue as either an lvalue or an rvalue

$LN3:
	mov	QWORD PTR [rsp+8], rcx
	push	rbp
	push	rdi
	sub	rsp, 232				; 000000e8H
	lea	rbp, QWORD PTR [rsp+32]
	mov	rdi, rsp
	mov	ecx, 58					; 0000003aH
	mov	eax, -858993460				; ccccccccH
	rep stosd
	mov	rcx, QWORD PTR [rsp+264]
	lea	rcx, OFFSET FLAT:__6750BE0F_type_traits
	call	__CheckForDebuggerJustMyCode

; 1455 :     return static_cast<_Ty&&>(_Arg);

	mov	rax, QWORD PTR _Arg$[rbp]

; 1456 : }

	lea	rsp, QWORD PTR [rbp+200]
	pop	rdi
	pop	rbp
	ret	0
??$forward@AEAPEAV?$tuple@P6APEAXPEAX@ZPEAX@std@@@std@@YAAEAPEAV?$tuple@P6APEAXPEAX@ZPEAX@0@AEAPEAV10@@Z ENDP ; std::forward<std::tuple<void * (__cdecl*)(void *),void *> * &>
_TEXT	ENDS
; Function compile flags: /Odtp /RTCsu /ZI
; File D:\software_install\VS2019\VC\Tools\MSVC\14.26.28801\include\tuple
;	COMDAT ??$?0AEAP6APEAXPEAX@Z@?$_Tuple_val@P6APEAXPEAX@Z@std@@QEAA@AEAP6APEAXPEAX@Z@Z
_TEXT	SEGMENT
this$ = 224
_Arg$ = 232
??$?0AEAP6APEAXPEAX@Z@?$_Tuple_val@P6APEAXPEAX@Z@std@@QEAA@AEAP6APEAXPEAX@Z@Z PROC ; std::_Tuple_val<void * (__cdecl*)(void *)>::_Tuple_val<void * (__cdecl*)(void *)><void * (__cdecl*&)(void *)>, COMDAT

; 163  :     constexpr _Tuple_val(_Other&& _Arg) : _Val(_STD forward<_Other>(_Arg)) {}

$LN3:
	mov	QWORD PTR [rsp+16], rdx
	mov	QWORD PTR [rsp+8], rcx
	push	rbp
	push	rdi
	sub	rsp, 232				; 000000e8H
	lea	rbp, QWORD PTR [rsp+32]
	mov	rdi, rsp
	mov	ecx, 58					; 0000003aH
	mov	eax, -858993460				; ccccccccH
	rep stosd
	mov	rcx, QWORD PTR [rsp+264]
	lea	rcx, OFFSET FLAT:__78273460_tuple
	call	__CheckForDebuggerJustMyCode
	mov	rcx, QWORD PTR _Arg$[rbp]
	call	??$forward@AEAP6APEAXPEAX@Z@std@@YAAEAP6APEAXPEAX@ZAEAP6APEAX0@Z@Z ; std::forward<void * (__cdecl*&)(void *)>
	mov	rcx, QWORD PTR this$[rbp]
	mov	rax, QWORD PTR [rax]
	mov	QWORD PTR [rcx], rax
	mov	rax, QWORD PTR this$[rbp]
	lea	rsp, QWORD PTR [rbp+200]
	pop	rdi
	pop	rbp
	ret	0
??$?0AEAP6APEAXPEAX@Z@?$_Tuple_val@P6APEAXPEAX@Z@std@@QEAA@AEAP6APEAXPEAX@Z@Z ENDP ; std::_Tuple_val<void * (__cdecl*)(void *)>::_Tuple_val<void * (__cdecl*)(void *)><void * (__cdecl*&)(void *)>
_TEXT	ENDS
; Function compile flags: /Odtp /RTCsu /ZI
; File D:\software_install\VS2019\VC\Tools\MSVC\14.26.28801\include\tuple
;	COMDAT ??$?0U_Exact_args_t@std@@AEAPEAX$$V$0A@@?$tuple@PEAX@std@@QEAA@U_Exact_args_t@1@AEAPEAX@Z
_TEXT	SEGMENT
$T1 = 196
this$ = 256
__formal$ = 264
_This_arg$ = 272
??$?0U_Exact_args_t@std@@AEAPEAX$$V$0A@@?$tuple@PEAX@std@@QEAA@U_Exact_args_t@1@AEAPEAX@Z PROC ; std::tuple<void *>::tuple<void *><std::_Exact_args_t,void * &,0>, COMDAT

; 234  :         : _Mybase(_Exact_args_t{}, _STD forward<_Rest2>(_Rest_arg)...), _Myfirst(_STD forward<_This2>(_This_arg)) {}

$LN3:
	mov	QWORD PTR [rsp+24], r8
	mov	BYTE PTR [rsp+16], dl
	mov	QWORD PTR [rsp+8], rcx
	push	rbp
	push	rdi
	sub	rsp, 264				; 00000108H
	lea	rbp, QWORD PTR [rsp+32]
	mov	rdi, rsp
	mov	ecx, 66					; 00000042H
	mov	eax, -858993460				; ccccccccH
	rep stosd
	mov	rcx, QWORD PTR [rsp+296]
	lea	rcx, OFFSET FLAT:__78273460_tuple
	call	__CheckForDebuggerJustMyCode
	lea	rax, QWORD PTR $T1[rbp]
	mov	rdi, rax
	xor	eax, eax
	mov	ecx, 1
	rep stosb
	movzx	edx, BYTE PTR $T1[rbp]
	mov	rcx, QWORD PTR this$[rbp]
	call	??$?0U_Exact_args_t@std@@$0A@@?$tuple@$$V@std@@QEAA@U_Exact_args_t@1@@Z ; std::tuple<>::tuple<><std::_Exact_args_t,0>
	mov	rcx, QWORD PTR _This_arg$[rbp]
	call	??$forward@AEAPEAX@std@@YAAEAPEAXAEAPEAX@Z ; std::forward<void * &>
	mov	rcx, QWORD PTR this$[rbp]
	mov	rdx, rax
	call	??$?0AEAPEAX@?$_Tuple_val@PEAX@std@@QEAA@AEAPEAX@Z ; std::_Tuple_val<void *>::_Tuple_val<void *><void * &>
	mov	rax, QWORD PTR this$[rbp]
	lea	rsp, QWORD PTR [rbp+232]
	pop	rdi
	pop	rbp
	ret	0
??$?0U_Exact_args_t@std@@AEAPEAX$$V$0A@@?$tuple@PEAX@std@@QEAA@U_Exact_args_t@1@AEAPEAX@Z ENDP ; std::tuple<void *>::tuple<void *><std::_Exact_args_t,void * &,0>
_TEXT	ENDS
; Function compile flags: /Odtp /RTCsu /ZI
; File D:\software_install\VS2019\VC\Tools\MSVC\14.26.28801\include\type_traits
;	COMDAT ??$forward@PEAV?$tuple@P6APEAXPEAX@ZPEAX@std@@@std@@YA$$QEAPEAV?$tuple@P6APEAXPEAX@ZPEAX@0@AEAPEAV10@@Z
_TEXT	SEGMENT
_Arg$ = 224
??$forward@PEAV?$tuple@P6APEAXPEAX@ZPEAX@std@@@std@@YA$$QEAPEAV?$tuple@P6APEAXPEAX@ZPEAX@0@AEAPEAV10@@Z PROC ; std::forward<std::tuple<void * (__cdecl*)(void *),void *> *>, COMDAT

; 1454 :     remove_reference_t<_Ty>& _Arg) noexcept { // forward an lvalue as either an lvalue or an rvalue

$LN3:
	mov	QWORD PTR [rsp+8], rcx
	push	rbp
	push	rdi
	sub	rsp, 232				; 000000e8H
	lea	rbp, QWORD PTR [rsp+32]
	mov	rdi, rsp
	mov	ecx, 58					; 0000003aH
	mov	eax, -858993460				; ccccccccH
	rep stosd
	mov	rcx, QWORD PTR [rsp+264]
	lea	rcx, OFFSET FLAT:__6750BE0F_type_traits
	call	__CheckForDebuggerJustMyCode

; 1455 :     return static_cast<_Ty&&>(_Arg);

	mov	rax, QWORD PTR _Arg$[rbp]

; 1456 : }

	lea	rsp, QWORD PTR [rbp+200]
	pop	rdi
	pop	rbp
	ret	0
??$forward@PEAV?$tuple@P6APEAXPEAX@ZPEAX@std@@@std@@YA$$QEAPEAV?$tuple@P6APEAXPEAX@ZPEAX@0@AEAPEAV10@@Z ENDP ; std::forward<std::tuple<void * (__cdecl*)(void *),void *> *>
_TEXT	ENDS
; Function compile flags: /Odtp /RTCsu /ZI
; File D:\software_install\VS2019\VC\Tools\MSVC\14.26.28801\include\xmemory
;	COMDAT ??$?0AEAPEAV?$tuple@P6APEAXPEAX@ZPEAX@std@@@?$_Compressed_pair@U?$default_delete@V?$tuple@P6APEAXPEAX@ZPEAX@std@@@std@@PEAV?$tuple@P6APEAXPEAX@ZPEAX@2@$00@std@@QEAA@U_Zero_then_variadic_args_t@1@AEAPEAV?$tuple@P6APEAXPEAX@ZPEAX@1@@Z
_TEXT	SEGMENT
this$ = 224
__formal$ = 232
<_Val2_0>$ = 240
??$?0AEAPEAV?$tuple@P6APEAXPEAX@ZPEAX@std@@@?$_Compressed_pair@U?$default_delete@V?$tuple@P6APEAXPEAX@ZPEAX@std@@@std@@PEAV?$tuple@P6APEAXPEAX@ZPEAX@2@$00@std@@QEAA@U_Zero_then_variadic_args_t@1@AEAPEAV?$tuple@P6APEAXPEAX@ZPEAX@1@@Z PROC ; std::_Compressed_pair<std::default_delete<std::tuple<void * (__cdecl*)(void *),void *> >,std::tuple<void * (__cdecl*)(void *),void *> *,1>::_Compressed_pair<std::default_delete<std::tuple<void * (__cdecl*)(void *),void *> >,std::tuple<void * (__cdecl*)(void *),void *> *,1><std::tuple<void * (__cdecl*)(void *),void *> * &>, COMDAT

; 1328 :         : _Ty1(), _Myval2(_STD forward<_Other2>(_Val2)...) {}

$LN3:
	mov	QWORD PTR [rsp+24], r8
	mov	BYTE PTR [rsp+16], dl
	mov	QWORD PTR [rsp+8], rcx
	push	rbp
	push	rdi
	sub	rsp, 232				; 000000e8H
	lea	rbp, QWORD PTR [rsp+32]
	mov	rdi, rsp
	mov	ecx, 58					; 0000003aH
	mov	eax, -858993460				; ccccccccH
	rep stosd
	mov	rcx, QWORD PTR [rsp+264]
	lea	rcx, OFFSET FLAT:__4597251A_xmemory
	call	__CheckForDebuggerJustMyCode
	mov	rcx, QWORD PTR <_Val2_0>$[rbp]
	call	??$forward@AEAPEAV?$tuple@P6APEAXPEAX@ZPEAX@std@@@std@@YAAEAPEAV?$tuple@P6APEAXPEAX@ZPEAX@0@AEAPEAV10@@Z ; std::forward<std::tuple<void * (__cdecl*)(void *),void *> * &>
	mov	rcx, QWORD PTR this$[rbp]
	mov	rax, QWORD PTR [rax]
	mov	QWORD PTR [rcx], rax
	mov	rax, QWORD PTR this$[rbp]
	lea	rsp, QWORD PTR [rbp+200]
	pop	rdi
	pop	rbp
	ret	0
??$?0AEAPEAV?$tuple@P6APEAXPEAX@ZPEAX@std@@@?$_Compressed_pair@U?$default_delete@V?$tuple@P6APEAXPEAX@ZPEAX@std@@@std@@PEAV?$tuple@P6APEAXPEAX@ZPEAX@2@$00@std@@QEAA@U_Zero_then_variadic_args_t@1@AEAPEAV?$tuple@P6APEAXPEAX@ZPEAX@1@@Z ENDP ; std::_Compressed_pair<std::default_delete<std::tuple<void * (__cdecl*)(void *),void *> >,std::tuple<void * (__cdecl*)(void *),void *> *,1>::_Compressed_pair<std::default_delete<std::tuple<void * (__cdecl*)(void *),void *> >,std::tuple<void * (__cdecl*)(void *),void *> *,1><std::tuple<void * (__cdecl*)(void *),void *> * &>
_TEXT	ENDS
; Function compile flags: /Odtp /RTCsu /ZI
; File D:\software_install\VS2019\VC\Tools\MSVC\14.26.28801\include\tuple
;	COMDAT ??$?0U_Exact_args_t@std@@AEAP6APEAXPEAX@ZAEAPEAX$0A@@?$tuple@P6APEAXPEAX@ZPEAX@std@@QEAA@U_Exact_args_t@1@AEAP6APEAXPEAX@ZAEAPEAX@Z
_TEXT	SEGMENT
$T1 = 196
this$ = 256
__formal$ = 264
_This_arg$ = 272
<_Rest_arg_0>$ = 280
??$?0U_Exact_args_t@std@@AEAP6APEAXPEAX@ZAEAPEAX$0A@@?$tuple@P6APEAXPEAX@ZPEAX@std@@QEAA@U_Exact_args_t@1@AEAP6APEAXPEAX@ZAEAPEAX@Z PROC ; std::tuple<void * (__cdecl*)(void *),void *>::tuple<void * (__cdecl*)(void *),void *><std::_Exact_args_t,void * (__cdecl*&)(void *),void * &,0>, COMDAT

; 234  :         : _Mybase(_Exact_args_t{}, _STD forward<_Rest2>(_Rest_arg)...), _Myfirst(_STD forward<_This2>(_This_arg)) {}

$LN3:
	mov	QWORD PTR [rsp+32], r9
	mov	QWORD PTR [rsp+24], r8
	mov	BYTE PTR [rsp+16], dl
	mov	QWORD PTR [rsp+8], rcx
	push	rbp
	push	rdi
	sub	rsp, 264				; 00000108H
	lea	rbp, QWORD PTR [rsp+32]
	mov	rdi, rsp
	mov	ecx, 66					; 00000042H
	mov	eax, -858993460				; ccccccccH
	rep stosd
	mov	rcx, QWORD PTR [rsp+296]
	lea	rcx, OFFSET FLAT:__78273460_tuple
	call	__CheckForDebuggerJustMyCode
	lea	rax, QWORD PTR $T1[rbp]
	mov	rdi, rax
	xor	eax, eax
	mov	ecx, 1
	rep stosb
	mov	rcx, QWORD PTR <_Rest_arg_0>$[rbp]
	call	??$forward@AEAPEAX@std@@YAAEAPEAXAEAPEAX@Z ; std::forward<void * &>
	mov	r8, rax
	movzx	edx, BYTE PTR $T1[rbp]
	mov	rcx, QWORD PTR this$[rbp]
	call	??$?0U_Exact_args_t@std@@AEAPEAX$$V$0A@@?$tuple@PEAX@std@@QEAA@U_Exact_args_t@1@AEAPEAX@Z ; std::tuple<void *>::tuple<void *><std::_Exact_args_t,void * &,0>
	mov	rcx, QWORD PTR _This_arg$[rbp]
	call	??$forward@AEAP6APEAXPEAX@Z@std@@YAAEAP6APEAXPEAX@ZAEAP6APEAX0@Z@Z ; std::forward<void * (__cdecl*&)(void *)>
	mov	rcx, QWORD PTR this$[rbp]
	add	rcx, 8
	mov	rdx, rax
	call	??$?0AEAP6APEAXPEAX@Z@?$_Tuple_val@P6APEAXPEAX@Z@std@@QEAA@AEAP6APEAXPEAX@Z@Z ; std::_Tuple_val<void * (__cdecl*)(void *)>::_Tuple_val<void * (__cdecl*)(void *)><void * (__cdecl*&)(void *)>
	mov	rax, QWORD PTR this$[rbp]
	lea	rsp, QWORD PTR [rbp+232]
	pop	rdi
	pop	rbp
	ret	0
??$?0U_Exact_args_t@std@@AEAP6APEAXPEAX@ZAEAPEAX$0A@@?$tuple@P6APEAXPEAX@ZPEAX@std@@QEAA@U_Exact_args_t@1@AEAP6APEAXPEAX@ZAEAPEAX@Z ENDP ; std::tuple<void * (__cdecl*)(void *),void *>::tuple<void * (__cdecl*)(void *),void *><std::_Exact_args_t,void * (__cdecl*&)(void *),void * &,0>
_TEXT	ENDS
; Function compile flags: /Odtp /RTCsu /ZI
; File D:\software_install\VS2019\VC\Tools\MSVC\14.26.28801\include\type_traits
;	COMDAT ??$invoke@P6APEAXPEAX@ZPEAX@std@@YAPEAX$$QEAP6APEAXPEAX@Z$$QEAPEAX@Z
_TEXT	SEGMENT
tv65 = 192
_Obj$ = 240
<_Args_0>$ = 248
??$invoke@P6APEAXPEAX@ZPEAX@std@@YAPEAX$$QEAP6APEAXPEAX@Z$$QEAPEAX@Z PROC ; std::invoke<void * (__cdecl*)(void *),void *>, COMDAT

; 1612 : _IMPLEMENT_INVOKE(_EMPTY_ARGUMENT, inline)

$LN3:
	mov	QWORD PTR [rsp+16], rdx
	mov	QWORD PTR [rsp+8], rcx
	push	rbp
	push	rdi
	sub	rsp, 248				; 000000f8H
	lea	rbp, QWORD PTR [rsp+32]
	mov	rdi, rsp
	mov	ecx, 62					; 0000003eH
	mov	eax, -858993460				; ccccccccH
	rep stosd
	mov	rcx, QWORD PTR [rsp+280]
	lea	rcx, OFFSET FLAT:__6750BE0F_type_traits
	call	__CheckForDebuggerJustMyCode
	mov	rcx, QWORD PTR <_Args_0>$[rbp]
	call	??$forward@PEAX@std@@YA$$QEAPEAXAEAPEAX@Z ; std::forward<void *>
	mov	QWORD PTR tv65[rbp], rax
	mov	rcx, QWORD PTR _Obj$[rbp]
	call	??$forward@P6APEAXPEAX@Z@std@@YA$$QEAP6APEAXPEAX@ZAEAP6APEAX0@Z@Z ; std::forward<void * (__cdecl*)(void *)>
	mov	rcx, QWORD PTR tv65[rbp]
	mov	rdx, rcx
	mov	rcx, rax
	call	??$_Call@P6APEAXPEAX@ZPEAX@_Invoker_functor@std@@SAPEAX$$QEAP6APEAXPEAX@Z$$QEAPEAX@Z ; std::_Invoker_functor::_Call<void * (__cdecl*)(void *),void *>
	lea	rsp, QWORD PTR [rbp+216]
	pop	rdi
	pop	rbp
	ret	0
??$invoke@P6APEAXPEAX@ZPEAX@std@@YAPEAX$$QEAP6APEAXPEAX@Z$$QEAPEAX@Z ENDP ; std::invoke<void * (__cdecl*)(void *),void *>
_TEXT	ENDS
; Function compile flags: /Odtp /RTCsu /ZI
; File D:\software_install\VS2019\VC\Tools\MSVC\14.26.28801\include\type_traits
;	COMDAT ??$_Call@P6APEAXPEAX@ZPEAX@_Invoker_functor@std@@SAPEAX$$QEAP6APEAXPEAX@Z$$QEAPEAX@Z
_TEXT	SEGMENT
tv67 = 192
_Obj$ = 240
<_Args_0>$ = 248
??$_Call@P6APEAXPEAX@ZPEAX@_Invoker_functor@std@@SAPEAX$$QEAP6APEAXPEAX@Z$$QEAPEAX@Z PROC ; std::_Invoker_functor::_Call<void * (__cdecl*)(void *),void *>, COMDAT

; 1612 : _IMPLEMENT_INVOKE(_EMPTY_ARGUMENT, inline)

$LN3:
	mov	QWORD PTR [rsp+16], rdx
	mov	QWORD PTR [rsp+8], rcx
	push	rbp
	push	rdi
	sub	rsp, 248				; 000000f8H
	lea	rbp, QWORD PTR [rsp+32]
	mov	rdi, rsp
	mov	ecx, 62					; 0000003eH
	mov	eax, -858993460				; ccccccccH
	rep stosd
	mov	rcx, QWORD PTR [rsp+280]
	lea	rcx, OFFSET FLAT:__6750BE0F_type_traits
	call	__CheckForDebuggerJustMyCode
	mov	rcx, QWORD PTR <_Args_0>$[rbp]
	call	??$forward@PEAX@std@@YA$$QEAPEAXAEAPEAX@Z ; std::forward<void *>
	mov	QWORD PTR tv67[rbp], rax
	mov	rcx, QWORD PTR _Obj$[rbp]
	call	??$forward@P6APEAXPEAX@Z@std@@YA$$QEAP6APEAXPEAX@ZAEAP6APEAX0@Z@Z ; std::forward<void * (__cdecl*)(void *)>
	mov	rcx, QWORD PTR tv67[rbp]
	mov	rcx, QWORD PTR [rcx]
	call	QWORD PTR [rax]
	lea	rsp, QWORD PTR [rbp+216]
	pop	rdi
	pop	rbp
	ret	0
??$_Call@P6APEAXPEAX@ZPEAX@_Invoker_functor@std@@SAPEAX$$QEAP6APEAXPEAX@Z$$QEAPEAX@Z ENDP ; std::_Invoker_functor::_Call<void * (__cdecl*)(void *),void *>
_TEXT	ENDS
; Function compile flags: /Odtp /RTCsu /ZI
; File D:\software_install\VS2019\VC\Tools\MSVC\14.26.28801\include\type_traits
;	COMDAT ??$forward@PEAX@std@@YA$$QEAPEAXAEAPEAX@Z
_TEXT	SEGMENT
_Arg$ = 224
??$forward@PEAX@std@@YA$$QEAPEAXAEAPEAX@Z PROC		; std::forward<void *>, COMDAT

; 1454 :     remove_reference_t<_Ty>& _Arg) noexcept { // forward an lvalue as either an lvalue or an rvalue

$LN3:
	mov	QWORD PTR [rsp+8], rcx
	push	rbp
	push	rdi
	sub	rsp, 232				; 000000e8H
	lea	rbp, QWORD PTR [rsp+32]
	mov	rdi, rsp
	mov	ecx, 58					; 0000003aH
	mov	eax, -858993460				; ccccccccH
	rep stosd
	mov	rcx, QWORD PTR [rsp+264]
	lea	rcx, OFFSET FLAT:__6750BE0F_type_traits
	call	__CheckForDebuggerJustMyCode

; 1455 :     return static_cast<_Ty&&>(_Arg);

	mov	rax, QWORD PTR _Arg$[rbp]

; 1456 : }

	lea	rsp, QWORD PTR [rbp+200]
	pop	rdi
	pop	rbp
	ret	0
??$forward@PEAX@std@@YA$$QEAPEAXAEAPEAX@Z ENDP		; std::forward<void *>
_TEXT	ENDS
; Function compile flags: /Odtp /RTCsu /ZI
; File D:\software_install\VS2019\VC\Tools\MSVC\14.26.28801\include\type_traits
;	COMDAT ??$forward@P6APEAXPEAX@Z@std@@YA$$QEAP6APEAXPEAX@ZAEAP6APEAX0@Z@Z
_TEXT	SEGMENT
_Arg$ = 224
??$forward@P6APEAXPEAX@Z@std@@YA$$QEAP6APEAXPEAX@ZAEAP6APEAX0@Z@Z PROC ; std::forward<void * (__cdecl*)(void *)>, COMDAT

; 1454 :     remove_reference_t<_Ty>& _Arg) noexcept { // forward an lvalue as either an lvalue or an rvalue

$LN3:
	mov	QWORD PTR [rsp+8], rcx
	push	rbp
	push	rdi
	sub	rsp, 232				; 000000e8H
	lea	rbp, QWORD PTR [rsp+32]
	mov	rdi, rsp
	mov	ecx, 58					; 0000003aH
	mov	eax, -858993460				; ccccccccH
	rep stosd
	mov	rcx, QWORD PTR [rsp+264]
	lea	rcx, OFFSET FLAT:__6750BE0F_type_traits
	call	__CheckForDebuggerJustMyCode

; 1455 :     return static_cast<_Ty&&>(_Arg);

	mov	rax, QWORD PTR _Arg$[rbp]

; 1456 : }

	lea	rsp, QWORD PTR [rbp+200]
	pop	rdi
	pop	rbp
	ret	0
??$forward@P6APEAXPEAX@Z@std@@YA$$QEAP6APEAXPEAX@ZAEAP6APEAX0@Z@Z ENDP ; std::forward<void * (__cdecl*)(void *)>
_TEXT	ENDS
; Function compile flags: /Odtp /RTCsu /ZI
; File D:\software_install\VS2019\VC\Tools\MSVC\14.26.28801\include\type_traits
;	COMDAT ??$move@AEAPEAX@std@@YA$$QEAPEAXAEAPEAX@Z
_TEXT	SEGMENT
_Arg$ = 224
??$move@AEAPEAX@std@@YA$$QEAPEAXAEAPEAX@Z PROC		; std::move<void * &>, COMDAT

; 1466 : _NODISCARD constexpr remove_reference_t<_Ty>&& move(_Ty&& _Arg) noexcept { // forward _Arg as movable

$LN3:
	mov	QWORD PTR [rsp+8], rcx
	push	rbp
	push	rdi
	sub	rsp, 232				; 000000e8H
	lea	rbp, QWORD PTR [rsp+32]
	mov	rdi, rsp
	mov	ecx, 58					; 0000003aH
	mov	eax, -858993460				; ccccccccH
	rep stosd
	mov	rcx, QWORD PTR [rsp+264]
	lea	rcx, OFFSET FLAT:__6750BE0F_type_traits
	call	__CheckForDebuggerJustMyCode

; 1467 :     return static_cast<remove_reference_t<_Ty>&&>(_Arg);

	mov	rax, QWORD PTR _Arg$[rbp]

; 1468 : }

	lea	rsp, QWORD PTR [rbp+200]
	pop	rdi
	pop	rbp
	ret	0
??$move@AEAPEAX@std@@YA$$QEAPEAXAEAPEAX@Z ENDP		; std::move<void * &>
_TEXT	ENDS
; Function compile flags: /Odtp /RTCsu /ZI
; File D:\software_install\VS2019\VC\Tools\MSVC\14.26.28801\include\tuple
;	COMDAT ??$get@$00P6APEAXPEAX@ZPEAX@std@@YAAEAPEAXAEAV?$tuple@P6APEAXPEAX@ZPEAX@0@@Z
_TEXT	SEGMENT
_Tuple$ = 224
??$get@$00P6APEAXPEAX@ZPEAX@std@@YAAEAPEAXAEAV?$tuple@P6APEAXPEAX@ZPEAX@0@@Z PROC ; std::get<1,void * (__cdecl*)(void *),void *>, COMDAT

; 761  : _NODISCARD constexpr tuple_element_t<_Index, tuple<_Types...>>& get(tuple<_Types...>& _Tuple) noexcept {

$LN3:
	mov	QWORD PTR [rsp+8], rcx
	push	rbp
	push	rdi
	sub	rsp, 232				; 000000e8H
	lea	rbp, QWORD PTR [rsp+32]
	mov	rdi, rsp
	mov	ecx, 58					; 0000003aH
	mov	eax, -858993460				; ccccccccH
	rep stosd
	mov	rcx, QWORD PTR [rsp+264]
	lea	rcx, OFFSET FLAT:__78273460_tuple
	call	__CheckForDebuggerJustMyCode

; 762  :     using _Ttype = typename tuple_element<_Index, tuple<_Types...>>::_Ttype;
; 763  :     return static_cast<_Ttype&>(_Tuple)._Myfirst._Val;

	mov	rax, QWORD PTR _Tuple$[rbp]

; 764  : }

	lea	rsp, QWORD PTR [rbp+200]
	pop	rdi
	pop	rbp
	ret	0
??$get@$00P6APEAXPEAX@ZPEAX@std@@YAAEAPEAXAEAV?$tuple@P6APEAXPEAX@ZPEAX@0@@Z ENDP ; std::get<1,void * (__cdecl*)(void *),void *>
_TEXT	ENDS
; Function compile flags: /Odtp /RTCsu /ZI
; File D:\software_install\VS2019\VC\Tools\MSVC\14.26.28801\include\type_traits
;	COMDAT ??$move@AEAP6APEAXPEAX@Z@std@@YA$$QEAP6APEAXPEAX@ZAEAP6APEAX0@Z@Z
_TEXT	SEGMENT
_Arg$ = 224
??$move@AEAP6APEAXPEAX@Z@std@@YA$$QEAP6APEAXPEAX@ZAEAP6APEAX0@Z@Z PROC ; std::move<void * (__cdecl*&)(void *)>, COMDAT

; 1466 : _NODISCARD constexpr remove_reference_t<_Ty>&& move(_Ty&& _Arg) noexcept { // forward _Arg as movable

$LN3:
	mov	QWORD PTR [rsp+8], rcx
	push	rbp
	push	rdi
	sub	rsp, 232				; 000000e8H
	lea	rbp, QWORD PTR [rsp+32]
	mov	rdi, rsp
	mov	ecx, 58					; 0000003aH
	mov	eax, -858993460				; ccccccccH
	rep stosd
	mov	rcx, QWORD PTR [rsp+264]
	lea	rcx, OFFSET FLAT:__6750BE0F_type_traits
	call	__CheckForDebuggerJustMyCode

; 1467 :     return static_cast<remove_reference_t<_Ty>&&>(_Arg);

	mov	rax, QWORD PTR _Arg$[rbp]

; 1468 : }

	lea	rsp, QWORD PTR [rbp+200]
	pop	rdi
	pop	rbp
	ret	0
??$move@AEAP6APEAXPEAX@Z@std@@YA$$QEAP6APEAXPEAX@ZAEAP6APEAX0@Z@Z ENDP ; std::move<void * (__cdecl*&)(void *)>
_TEXT	ENDS
; Function compile flags: /Odtp /RTCsu /ZI
; File D:\software_install\VS2019\VC\Tools\MSVC\14.26.28801\include\tuple
;	COMDAT ??$get@$0A@P6APEAXPEAX@ZPEAX@std@@YAAEAP6APEAXPEAX@ZAEAV?$tuple@P6APEAXPEAX@ZPEAX@0@@Z
_TEXT	SEGMENT
_Tuple$ = 224
??$get@$0A@P6APEAXPEAX@ZPEAX@std@@YAAEAP6APEAXPEAX@ZAEAV?$tuple@P6APEAXPEAX@ZPEAX@0@@Z PROC ; std::get<0,void * (__cdecl*)(void *),void *>, COMDAT

; 761  : _NODISCARD constexpr tuple_element_t<_Index, tuple<_Types...>>& get(tuple<_Types...>& _Tuple) noexcept {

$LN3:
	mov	QWORD PTR [rsp+8], rcx
	push	rbp
	push	rdi
	sub	rsp, 232				; 000000e8H
	lea	rbp, QWORD PTR [rsp+32]
	mov	rdi, rsp
	mov	ecx, 58					; 0000003aH
	mov	eax, -858993460				; ccccccccH
	rep stosd
	mov	rcx, QWORD PTR [rsp+264]
	lea	rcx, OFFSET FLAT:__78273460_tuple
	call	__CheckForDebuggerJustMyCode

; 762  :     using _Ttype = typename tuple_element<_Index, tuple<_Types...>>::_Ttype;
; 763  :     return static_cast<_Ttype&>(_Tuple)._Myfirst._Val;

	mov	rax, QWORD PTR _Tuple$[rbp]
	add	rax, 8

; 764  : }

	lea	rsp, QWORD PTR [rbp+200]
	pop	rdi
	pop	rbp
	ret	0
??$get@$0A@P6APEAXPEAX@ZPEAX@std@@YAAEAP6APEAXPEAX@ZAEAV?$tuple@P6APEAXPEAX@ZPEAX@0@@Z ENDP ; std::get<0,void * (__cdecl*)(void *),void *>
_TEXT	ENDS
; Function compile flags: /Odtp /RTCsu /ZI
; File D:\software_install\VS2019\VC\Tools\MSVC\14.26.28801\include\xmemory
;	COMDAT ??$?0U?$default_delete@V?$tuple@P6APEAXPEAX@ZPEAX@std@@@std@@PEAV?$tuple@P6APEAXPEAX@ZPEAX@1@@?$_Compressed_pair@U?$default_delete@V?$tuple@P6APEAXPEAX@ZPEAX@std@@@std@@PEAV?$tuple@P6APEAXPEAX@ZPEAX@2@$00@std@@QEAA@U_One_then_variadic_args_t@1@$$QEAU?$default_delete@V?$tuple@P6APEAXPEAX@ZPEAX@std@@@1@$$QEAPEAV?$tuple@P6APEAXPEAX@ZPEAX@1@@Z
_TEXT	SEGMENT
this$ = 224
__formal$ = 232
_Val1$ = 240
<_Val2_0>$ = 248
??$?0U?$default_delete@V?$tuple@P6APEAXPEAX@ZPEAX@std@@@std@@PEAV?$tuple@P6APEAXPEAX@ZPEAX@1@@?$_Compressed_pair@U?$default_delete@V?$tuple@P6APEAXPEAX@ZPEAX@std@@@std@@PEAV?$tuple@P6APEAXPEAX@ZPEAX@2@$00@std@@QEAA@U_One_then_variadic_args_t@1@$$QEAU?$default_delete@V?$tuple@P6APEAXPEAX@ZPEAX@std@@@1@$$QEAPEAV?$tuple@P6APEAXPEAX@ZPEAX@1@@Z PROC ; std::_Compressed_pair<std::default_delete<std::tuple<void * (__cdecl*)(void *),void *> >,std::tuple<void * (__cdecl*)(void *),void *> *,1>::_Compressed_pair<std::default_delete<std::tuple<void * (__cdecl*)(void *),void *> >,std::tuple<void * (__cdecl*)(void *),void *> *,1><std::default_delete<std::tuple<void * (__cdecl*)(void *),void *> >,std::tuple<void * (__cdecl*)(void *),void *> *>, COMDAT

; 1333 :         : _Ty1(_STD forward<_Other1>(_Val1)), _Myval2(_STD forward<_Other2>(_Val2)...) {}

$LN3:
	mov	QWORD PTR [rsp+32], r9
	mov	QWORD PTR [rsp+24], r8
	mov	BYTE PTR [rsp+16], dl
	mov	QWORD PTR [rsp+8], rcx
	push	rbp
	push	rdi
	sub	rsp, 232				; 000000e8H
	lea	rbp, QWORD PTR [rsp+32]
	mov	rdi, rsp
	mov	ecx, 58					; 0000003aH
	mov	eax, -858993460				; ccccccccH
	rep stosd
	mov	rcx, QWORD PTR [rsp+264]
	lea	rcx, OFFSET FLAT:__4597251A_xmemory
	call	__CheckForDebuggerJustMyCode
	mov	rcx, QWORD PTR _Val1$[rbp]
	call	??$forward@U?$default_delete@V?$tuple@P6APEAXPEAX@ZPEAX@std@@@std@@@std@@YA$$QEAU?$default_delete@V?$tuple@P6APEAXPEAX@ZPEAX@std@@@0@AEAU10@@Z ; std::forward<std::default_delete<std::tuple<void * (__cdecl*)(void *),void *> > >
	mov	rcx, QWORD PTR <_Val2_0>$[rbp]
	call	??$forward@PEAV?$tuple@P6APEAXPEAX@ZPEAX@std@@@std@@YA$$QEAPEAV?$tuple@P6APEAXPEAX@ZPEAX@0@AEAPEAV10@@Z ; std::forward<std::tuple<void * (__cdecl*)(void *),void *> *>
	mov	rcx, QWORD PTR this$[rbp]
	mov	rax, QWORD PTR [rax]
	mov	QWORD PTR [rcx], rax
	mov	rax, QWORD PTR this$[rbp]
	lea	rsp, QWORD PTR [rbp+200]
	pop	rdi
	pop	rbp
	ret	0
??$?0U?$default_delete@V?$tuple@P6APEAXPEAX@ZPEAX@std@@@std@@PEAV?$tuple@P6APEAXPEAX@ZPEAX@1@@?$_Compressed_pair@U?$default_delete@V?$tuple@P6APEAXPEAX@ZPEAX@std@@@std@@PEAV?$tuple@P6APEAXPEAX@ZPEAX@2@$00@std@@QEAA@U_One_then_variadic_args_t@1@$$QEAU?$default_delete@V?$tuple@P6APEAXPEAX@ZPEAX@std@@@1@$$QEAPEAV?$tuple@P6APEAXPEAX@ZPEAX@1@@Z ENDP ; std::_Compressed_pair<std::default_delete<std::tuple<void * (__cdecl*)(void *),void *> >,std::tuple<void * (__cdecl*)(void *),void *> *,1>::_Compressed_pair<std::default_delete<std::tuple<void * (__cdecl*)(void *),void *> >,std::tuple<void * (__cdecl*)(void *),void *> *,1><std::default_delete<std::tuple<void * (__cdecl*)(void *),void *> >,std::tuple<void * (__cdecl*)(void *),void *> *>
_TEXT	ENDS
; Function compile flags: /Odtp /RTCsu /ZI
; File D:\software_install\VS2019\VC\Tools\MSVC\14.26.28801\include\type_traits
;	COMDAT ??$forward@U?$default_delete@V?$tuple@P6APEAXPEAX@ZPEAX@std@@@std@@@std@@YA$$QEAU?$default_delete@V?$tuple@P6APEAXPEAX@ZPEAX@std@@@0@AEAU10@@Z
_TEXT	SEGMENT
_Arg$ = 224
??$forward@U?$default_delete@V?$tuple@P6APEAXPEAX@ZPEAX@std@@@std@@@std@@YA$$QEAU?$default_delete@V?$tuple@P6APEAXPEAX@ZPEAX@std@@@0@AEAU10@@Z PROC ; std::forward<std::default_delete<std::tuple<void * (__cdecl*)(void *),void *> > >, COMDAT

; 1454 :     remove_reference_t<_Ty>& _Arg) noexcept { // forward an lvalue as either an lvalue or an rvalue

$LN3:
	mov	QWORD PTR [rsp+8], rcx
	push	rbp
	push	rdi
	sub	rsp, 232				; 000000e8H
	lea	rbp, QWORD PTR [rsp+32]
	mov	rdi, rsp
	mov	ecx, 58					; 0000003aH
	mov	eax, -858993460				; ccccccccH
	rep stosd
	mov	rcx, QWORD PTR [rsp+264]
	lea	rcx, OFFSET FLAT:__6750BE0F_type_traits
	call	__CheckForDebuggerJustMyCode

; 1455 :     return static_cast<_Ty&&>(_Arg);

	mov	rax, QWORD PTR _Arg$[rbp]

; 1456 : }

	lea	rsp, QWORD PTR [rbp+200]
	pop	rdi
	pop	rbp
	ret	0
??$forward@U?$default_delete@V?$tuple@P6APEAXPEAX@ZPEAX@std@@@std@@@std@@YA$$QEAU?$default_delete@V?$tuple@P6APEAXPEAX@ZPEAX@std@@@0@AEAU10@@Z ENDP ; std::forward<std::default_delete<std::tuple<void * (__cdecl*)(void *),void *> > >
_TEXT	ENDS
; Function compile flags: /Odtp /RTCsu /ZI
; File D:\software_install\VS2019\VC\Tools\MSVC\14.26.28801\include\memory
;	COMDAT ??$?0U?$default_delete@V?$tuple@P6APEAXPEAX@ZPEAX@std@@@std@@$0A@@?$unique_ptr@V?$tuple@P6APEAXPEAX@ZPEAX@std@@U?$default_delete@V?$tuple@P6APEAXPEAX@ZPEAX@std@@@2@@std@@QEAA@PEAV?$tuple@P6APEAXPEAX@ZPEAX@1@@Z
_TEXT	SEGMENT
$T1 = 196
this$ = 256
_Ptr$ = 264
??$?0U?$default_delete@V?$tuple@P6APEAXPEAX@ZPEAX@std@@@std@@$0A@@?$unique_ptr@V?$tuple@P6APEAXPEAX@ZPEAX@std@@U?$default_delete@V?$tuple@P6APEAXPEAX@ZPEAX@std@@@2@@std@@QEAA@PEAV?$tuple@P6APEAXPEAX@ZPEAX@1@@Z PROC ; std::unique_ptr<std::tuple<void * (__cdecl*)(void *),void *>,std::default_delete<std::tuple<void * (__cdecl*)(void *),void *> > >::unique_ptr<std::tuple<void * (__cdecl*)(void *),void *>,std::default_delete<std::tuple<void * (__cdecl*)(void *),void *> > ><std::default_delete<std::tuple<void * (__cdecl*)(void *),void *> >,0>, COMDAT

; 1815 :     explicit unique_ptr(pointer _Ptr) noexcept : _Mypair(_Zero_then_variadic_args_t(), _Ptr) {}

$LN3:
	mov	QWORD PTR [rsp+16], rdx
	mov	QWORD PTR [rsp+8], rcx
	push	rbp
	push	rdi
	sub	rsp, 264				; 00000108H
	lea	rbp, QWORD PTR [rsp+32]
	mov	rdi, rsp
	mov	ecx, 66					; 00000042H
	mov	eax, -858993460				; ccccccccH
	rep stosd
	mov	rcx, QWORD PTR [rsp+296]
	lea	rcx, OFFSET FLAT:__859CFEA8_memory
	call	__CheckForDebuggerJustMyCode
	mov	rax, QWORD PTR this$[rbp]
	lea	r8, QWORD PTR _Ptr$[rbp]
	movzx	edx, BYTE PTR $T1[rbp]
	mov	rcx, rax
	call	??$?0AEAPEAV?$tuple@P6APEAXPEAX@ZPEAX@std@@@?$_Compressed_pair@U?$default_delete@V?$tuple@P6APEAXPEAX@ZPEAX@std@@@std@@PEAV?$tuple@P6APEAXPEAX@ZPEAX@2@$00@std@@QEAA@U_Zero_then_variadic_args_t@1@AEAPEAV?$tuple@P6APEAXPEAX@ZPEAX@1@@Z ; std::_Compressed_pair<std::default_delete<std::tuple<void * (__cdecl*)(void *),void *> >,std::tuple<void * (__cdecl*)(void *),void *> *,1>::_Compressed_pair<std::default_delete<std::tuple<void * (__cdecl*)(void *),void *> >,std::tuple<void * (__cdecl*)(void *),void *> *,1><std::tuple<void * (__cdecl*)(void *),void *> * &>
	mov	rax, QWORD PTR this$[rbp]
	lea	rsp, QWORD PTR [rbp+232]
	pop	rdi
	pop	rbp
	ret	0
??$?0U?$default_delete@V?$tuple@P6APEAXPEAX@ZPEAX@std@@@std@@$0A@@?$unique_ptr@V?$tuple@P6APEAXPEAX@ZPEAX@std@@U?$default_delete@V?$tuple@P6APEAXPEAX@ZPEAX@std@@@2@@std@@QEAA@PEAV?$tuple@P6APEAXPEAX@ZPEAX@1@@Z ENDP ; std::unique_ptr<std::tuple<void * (__cdecl*)(void *),void *>,std::default_delete<std::tuple<void * (__cdecl*)(void *),void *> > >::unique_ptr<std::tuple<void * (__cdecl*)(void *),void *>,std::default_delete<std::tuple<void * (__cdecl*)(void *),void *> > ><std::default_delete<std::tuple<void * (__cdecl*)(void *),void *> >,0>
_TEXT	ENDS
; Function compile flags: /Odtp /RTCsu /ZI
; File D:\software_install\VS2019\VC\Tools\MSVC\14.26.28801\include\tuple
;	COMDAT ??$?0AEAP6APEAXPEAX@ZAEAPEAX$0A@@?$tuple@P6APEAXPEAX@ZPEAX@std@@QEAA@AEAP6APEAXPEAX@ZAEAPEAX@Z
_TEXT	SEGMENT
$T1 = 196
tv66 = 216
this$ = 256
_This_arg$ = 264
<_Rest_arg_0>$ = 272
??$?0AEAP6APEAXPEAX@ZAEAPEAX$0A@@?$tuple@P6APEAXPEAX@ZPEAX@std@@QEAA@AEAP6APEAXPEAX@ZAEAPEAX@Z PROC ; std::tuple<void * (__cdecl*)(void *),void *>::tuple<void * (__cdecl*)(void *),void *><void * (__cdecl*&)(void *),void * &,0>, COMDAT

; 315  :         : tuple(_Exact_args_t{}, _STD forward<_This2>(_This_arg), _STD forward<_Rest2>(_Rest_arg)...) {}

$LN3:
	mov	QWORD PTR [rsp+24], r8
	mov	QWORD PTR [rsp+16], rdx
	mov	QWORD PTR [rsp+8], rcx
	push	rbp
	push	rdi
	sub	rsp, 264				; 00000108H
	lea	rbp, QWORD PTR [rsp+32]
	mov	rdi, rsp
	mov	ecx, 66					; 00000042H
	mov	eax, -858993460				; ccccccccH
	rep stosd
	mov	rcx, QWORD PTR [rsp+296]
	lea	rcx, OFFSET FLAT:__78273460_tuple
	call	__CheckForDebuggerJustMyCode
	lea	rax, QWORD PTR $T1[rbp]
	mov	rdi, rax
	xor	eax, eax
	mov	ecx, 1
	rep stosb
	mov	rcx, QWORD PTR <_Rest_arg_0>$[rbp]
	call	??$forward@AEAPEAX@std@@YAAEAPEAXAEAPEAX@Z ; std::forward<void * &>
	mov	QWORD PTR tv66[rbp], rax
	mov	rcx, QWORD PTR _This_arg$[rbp]
	call	??$forward@AEAP6APEAXPEAX@Z@std@@YAAEAP6APEAXPEAX@ZAEAP6APEAX0@Z@Z ; std::forward<void * (__cdecl*&)(void *)>
	mov	rcx, QWORD PTR tv66[rbp]
	mov	r9, rcx
	mov	r8, rax
	movzx	edx, BYTE PTR $T1[rbp]
	mov	rcx, QWORD PTR this$[rbp]
	call	??$?0U_Exact_args_t@std@@AEAP6APEAXPEAX@ZAEAPEAX$0A@@?$tuple@P6APEAXPEAX@ZPEAX@std@@QEAA@U_Exact_args_t@1@AEAP6APEAXPEAX@ZAEAPEAX@Z ; std::tuple<void * (__cdecl*)(void *),void *>::tuple<void * (__cdecl*)(void *),void *><std::_Exact_args_t,void * (__cdecl*&)(void *),void * &,0>
	mov	rax, QWORD PTR this$[rbp]
	lea	rsp, QWORD PTR [rbp+232]
	pop	rdi
	pop	rbp
	ret	0
??$?0AEAP6APEAXPEAX@ZAEAPEAX$0A@@?$tuple@P6APEAXPEAX@ZPEAX@std@@QEAA@AEAP6APEAXPEAX@ZAEAPEAX@Z ENDP ; std::tuple<void * (__cdecl*)(void *),void *>::tuple<void * (__cdecl*)(void *),void *><void * (__cdecl*&)(void *),void * &,0>
_TEXT	ENDS
; Function compile flags: /Odtp /RTCsu /ZI
; File D:\software_install\VS2019\VC\Tools\MSVC\14.26.28801\include\utility
;	COMDAT ??$exchange@PEAV?$tuple@P6APEAXPEAX@ZPEAX@std@@PEAV12@@std@@YAPEAV?$tuple@P6APEAXPEAX@ZPEAX@0@AEAPEAV10@$$QEAPEAV10@@Z
_TEXT	SEGMENT
_Old_val$ = 8
_Val$ = 256
_New_val$ = 264
??$exchange@PEAV?$tuple@P6APEAXPEAX@ZPEAX@std@@PEAV12@@std@@YAPEAV?$tuple@P6APEAXPEAX@ZPEAX@0@AEAPEAV10@$$QEAPEAV10@@Z PROC ; std::exchange<std::tuple<void * (__cdecl*)(void *),void *> *,std::tuple<void * (__cdecl*)(void *),void *> *>, COMDAT

; 571  :     conjunction_v<is_nothrow_move_constructible<_Ty>, is_nothrow_assignable<_Ty&, _Other>>) /* strengthened */ {

$LN3:
	mov	QWORD PTR [rsp+16], rdx
	mov	QWORD PTR [rsp+8], rcx
	push	rbp
	push	rdi
	sub	rsp, 264				; 00000108H
	lea	rbp, QWORD PTR [rsp+32]
	mov	rdi, rsp
	mov	ecx, 66					; 00000042H
	mov	eax, -858993460				; ccccccccH
	rep stosd
	mov	rcx, QWORD PTR [rsp+296]
	lea	rcx, OFFSET FLAT:__2F0246D9_utility
	call	__CheckForDebuggerJustMyCode

; 572  :     // assign _New_val to _Val, return previous _Val
; 573  :     _Ty _Old_val = static_cast<_Ty&&>(_Val);

	mov	rax, QWORD PTR _Val$[rbp]
	mov	rax, QWORD PTR [rax]
	mov	QWORD PTR _Old_val$[rbp], rax

; 574  :     _Val         = static_cast<_Other&&>(_New_val);

	mov	rax, QWORD PTR _Val$[rbp]
	mov	rcx, QWORD PTR _New_val$[rbp]
	mov	rcx, QWORD PTR [rcx]
	mov	QWORD PTR [rax], rcx

; 575  :     return _Old_val;

	mov	rax, QWORD PTR _Old_val$[rbp]

; 576  : }

	lea	rsp, QWORD PTR [rbp+232]
	pop	rdi
	pop	rbp
	ret	0
??$exchange@PEAV?$tuple@P6APEAXPEAX@ZPEAX@std@@PEAV12@@std@@YAPEAV?$tuple@P6APEAXPEAX@ZPEAX@0@AEAPEAV10@$$QEAPEAV10@@Z ENDP ; std::exchange<std::tuple<void * (__cdecl*)(void *),void *> *,std::tuple<void * (__cdecl*)(void *),void *> *>
_TEXT	ENDS
; Function compile flags: /Odtp /RTCsu /ZI
; File D:\software_install\VS2019\VC\Tools\MSVC\14.26.28801\include\thread
;	COMDAT ??$_Invoke@V?$tuple@P6APEAXPEAX@ZPEAX@std@@$0A@$00@thread@std@@CAIPEAX@Z
_TEXT	SEGMENT
_FnVals$ = 8
_Tup$ = 40
$T4 = 260
tv71 = 280
_RawVals$ = 320
??$_Invoke@V?$tuple@P6APEAXPEAX@ZPEAX@std@@$0A@$00@thread@std@@CAIPEAX@Z PROC ; std::thread::_Invoke<std::tuple<void * (__cdecl*)(void *),void *>,0,1>, COMDAT

; 39   :     static unsigned int __stdcall _Invoke(void* _RawVals) noexcept /* terminates */ {

$LN3:
	mov	QWORD PTR [rsp+8], rcx
	push	rbp
	push	rdi
	sub	rsp, 328				; 00000148H
	lea	rbp, QWORD PTR [rsp+32]
	mov	rdi, rsp
	mov	ecx, 82					; 00000052H
	mov	eax, -858993460				; ccccccccH
	rep stosd
	mov	rcx, QWORD PTR [rsp+360]
	lea	rcx, OFFSET FLAT:__5ED1861E_thread
	call	__CheckForDebuggerJustMyCode

; 40   :         // adapt invoke of user's callable object to _beginthreadex's thread procedure
; 41   :         const unique_ptr<_Tuple> _FnVals(static_cast<_Tuple*>(_RawVals));

	mov	rdx, QWORD PTR _RawVals$[rbp]
	lea	rcx, QWORD PTR _FnVals$[rbp]
	call	??$?0U?$default_delete@V?$tuple@P6APEAXPEAX@ZPEAX@std@@@std@@$0A@@?$unique_ptr@V?$tuple@P6APEAXPEAX@ZPEAX@std@@U?$default_delete@V?$tuple@P6APEAXPEAX@ZPEAX@std@@@2@@std@@QEAA@PEAV?$tuple@P6APEAXPEAX@ZPEAX@1@@Z ; std::unique_ptr<std::tuple<void * (__cdecl*)(void *),void *>,std::default_delete<std::tuple<void * (__cdecl*)(void *),void *> > >::unique_ptr<std::tuple<void * (__cdecl*)(void *),void *>,std::default_delete<std::tuple<void * (__cdecl*)(void *),void *> > ><std::default_delete<std::tuple<void * (__cdecl*)(void *),void *> >,0>

; 42   :         _Tuple& _Tup = *_FnVals;

	lea	rcx, QWORD PTR _FnVals$[rbp]
	call	??D?$unique_ptr@V?$tuple@P6APEAXPEAX@ZPEAX@std@@U?$default_delete@V?$tuple@P6APEAXPEAX@ZPEAX@std@@@2@@std@@QEBAAEAV?$tuple@P6APEAXPEAX@ZPEAX@1@XZ ; std::unique_ptr<std::tuple<void * (__cdecl*)(void *),void *>,std::default_delete<std::tuple<void * (__cdecl*)(void *),void *> > >::operator*
	mov	QWORD PTR _Tup$[rbp], rax

; 43   :         _STD invoke(_STD move(_STD get<_Indices>(_Tup))...);

	mov	rcx, QWORD PTR _Tup$[rbp]
	call	??$get@$00P6APEAXPEAX@ZPEAX@std@@YAAEAPEAXAEAV?$tuple@P6APEAXPEAX@ZPEAX@0@@Z ; std::get<1,void * (__cdecl*)(void *),void *>
	mov	rcx, rax
	call	??$move@AEAPEAX@std@@YA$$QEAPEAXAEAPEAX@Z ; std::move<void * &>
	mov	QWORD PTR tv71[rbp], rax
	mov	rcx, QWORD PTR _Tup$[rbp]
	call	??$get@$0A@P6APEAXPEAX@ZPEAX@std@@YAAEAP6APEAXPEAX@ZAEAV?$tuple@P6APEAXPEAX@ZPEAX@0@@Z ; std::get<0,void * (__cdecl*)(void *),void *>
	mov	rcx, rax
	call	??$move@AEAP6APEAXPEAX@Z@std@@YA$$QEAP6APEAXPEAX@ZAEAP6APEAX0@Z@Z ; std::move<void * (__cdecl*&)(void *)>
	mov	rcx, QWORD PTR tv71[rbp]
	mov	rdx, rcx
	mov	rcx, rax
	call	??$invoke@P6APEAXPEAX@ZPEAX@std@@YAPEAX$$QEAP6APEAXPEAX@Z$$QEAPEAX@Z ; std::invoke<void * (__cdecl*)(void *),void *>

; 44   :         _Cnd_do_broadcast_at_thread_exit(); // TRANSITION, ABI

	call	_Cnd_do_broadcast_at_thread_exit

; 45   :         return 0;

	mov	DWORD PTR $T4[rbp], 0
	lea	rcx, QWORD PTR _FnVals$[rbp]
	call	??1?$unique_ptr@V?$tuple@P6APEAXPEAX@ZPEAX@std@@U?$default_delete@V?$tuple@P6APEAXPEAX@ZPEAX@std@@@2@@std@@QEAA@XZ ; std::unique_ptr<std::tuple<void * (__cdecl*)(void *),void *>,std::default_delete<std::tuple<void * (__cdecl*)(void *),void *> > >::~unique_ptr<std::tuple<void * (__cdecl*)(void *),void *>,std::default_delete<std::tuple<void * (__cdecl*)(void *),void *> > >
	mov	eax, DWORD PTR $T4[rbp]

; 46   :     }

	mov	edi, eax
	lea	rcx, QWORD PTR [rbp-32]
	lea	rdx, OFFSET FLAT:??$_Invoke@V?$tuple@P6APEAXPEAX@ZPEAX@std@@$0A@$00@thread@std@@CAIPEAX@Z$rtcFrameData
	call	_RTC_CheckStackVars
	mov	eax, edi
	lea	rsp, QWORD PTR [rbp+296]
	pop	rdi
	pop	rbp
	ret	0
??$_Invoke@V?$tuple@P6APEAXPEAX@ZPEAX@std@@$0A@$00@thread@std@@CAIPEAX@Z ENDP ; std::thread::_Invoke<std::tuple<void * (__cdecl*)(void *),void *>,0,1>
_TEXT	ENDS
; Function compile flags: /Odtp /RTCsu /ZI
; File D:\software_install\VS2019\VC\Tools\MSVC\14.26.28801\include\memory
;	COMDAT ??$?0U?$default_delete@V?$tuple@P6APEAXPEAX@ZPEAX@std@@@std@@$0A@@?$unique_ptr@V?$tuple@P6APEAXPEAX@ZPEAX@std@@U?$default_delete@V?$tuple@P6APEAXPEAX@ZPEAX@std@@@2@@std@@QEAA@$$QEAV01@@Z
_TEXT	SEGMENT
$T1 = 200
$T2 = 228
this$ = 288
_Right$ = 296
??$?0U?$default_delete@V?$tuple@P6APEAXPEAX@ZPEAX@std@@@std@@$0A@@?$unique_ptr@V?$tuple@P6APEAXPEAX@ZPEAX@std@@U?$default_delete@V?$tuple@P6APEAXPEAX@ZPEAX@std@@@2@@std@@QEAA@$$QEAV01@@Z PROC ; std::unique_ptr<std::tuple<void * (__cdecl*)(void *),void *>,std::default_delete<std::tuple<void * (__cdecl*)(void *),void *> > >::unique_ptr<std::tuple<void * (__cdecl*)(void *),void *>,std::default_delete<std::tuple<void * (__cdecl*)(void *),void *> > ><std::default_delete<std::tuple<void * (__cdecl*)(void *),void *> >,0>, COMDAT

; 1832 :         : _Mypair(_One_then_variadic_args_t(), _STD forward<_Dx>(_Right.get_deleter()), _Right.release()) {

$LN3:
	mov	QWORD PTR [rsp+16], rdx
	mov	QWORD PTR [rsp+8], rcx
	push	rbp
	push	rdi
	sub	rsp, 296				; 00000128H
	lea	rbp, QWORD PTR [rsp+32]
	mov	rdi, rsp
	mov	ecx, 74					; 0000004aH
	mov	eax, -858993460				; ccccccccH
	rep stosd
	mov	rcx, QWORD PTR [rsp+328]
	lea	rcx, OFFSET FLAT:__859CFEA8_memory
	call	__CheckForDebuggerJustMyCode
	mov	rcx, QWORD PTR _Right$[rbp]
	call	?release@?$unique_ptr@V?$tuple@P6APEAXPEAX@ZPEAX@std@@U?$default_delete@V?$tuple@P6APEAXPEAX@ZPEAX@std@@@2@@std@@QEAAPEAV?$tuple@P6APEAXPEAX@ZPEAX@2@XZ ; std::unique_ptr<std::tuple<void * (__cdecl*)(void *),void *>,std::default_delete<std::tuple<void * (__cdecl*)(void *),void *> > >::release
	mov	QWORD PTR $T1[rbp], rax
	mov	rcx, QWORD PTR _Right$[rbp]
	call	?get_deleter@?$unique_ptr@V?$tuple@P6APEAXPEAX@ZPEAX@std@@U?$default_delete@V?$tuple@P6APEAXPEAX@ZPEAX@std@@@2@@std@@QEAAAEAU?$default_delete@V?$tuple@P6APEAXPEAX@ZPEAX@std@@@2@XZ ; std::unique_ptr<std::tuple<void * (__cdecl*)(void *),void *>,std::default_delete<std::tuple<void * (__cdecl*)(void *),void *> > >::get_deleter
	mov	rcx, rax
	call	??$forward@U?$default_delete@V?$tuple@P6APEAXPEAX@ZPEAX@std@@@std@@@std@@YA$$QEAU?$default_delete@V?$tuple@P6APEAXPEAX@ZPEAX@std@@@0@AEAU10@@Z ; std::forward<std::default_delete<std::tuple<void * (__cdecl*)(void *),void *> > >
	mov	rcx, QWORD PTR this$[rbp]
	lea	r9, QWORD PTR $T1[rbp]
	mov	r8, rax
	movzx	edx, BYTE PTR $T2[rbp]
	call	??$?0U?$default_delete@V?$tuple@P6APEAXPEAX@ZPEAX@std@@@std@@PEAV?$tuple@P6APEAXPEAX@ZPEAX@1@@?$_Compressed_pair@U?$default_delete@V?$tuple@P6APEAXPEAX@ZPEAX@std@@@std@@PEAV?$tuple@P6APEAXPEAX@ZPEAX@2@$00@std@@QEAA@U_One_then_variadic_args_t@1@$$QEAU?$default_delete@V?$tuple@P6APEAXPEAX@ZPEAX@std@@@1@$$QEAPEAV?$tuple@P6APEAXPEAX@ZPEAX@1@@Z ; std::_Compressed_pair<std::default_delete<std::tuple<void * (__cdecl*)(void *),void *> >,std::tuple<void * (__cdecl*)(void *),void *> *,1>::_Compressed_pair<std::default_delete<std::tuple<void * (__cdecl*)(void *),void *> >,std::tuple<void * (__cdecl*)(void *),void *> *,1><std::default_delete<std::tuple<void * (__cdecl*)(void *),void *> >,std::tuple<void * (__cdecl*)(void *),void *> *>

; 1833 :     }

	mov	rax, QWORD PTR this$[rbp]
	lea	rsp, QWORD PTR [rbp+264]
	pop	rdi
	pop	rbp
	ret	0
??$?0U?$default_delete@V?$tuple@P6APEAXPEAX@ZPEAX@std@@@std@@$0A@@?$unique_ptr@V?$tuple@P6APEAXPEAX@ZPEAX@std@@U?$default_delete@V?$tuple@P6APEAXPEAX@ZPEAX@std@@@2@@std@@QEAA@$$QEAV01@@Z ENDP ; std::unique_ptr<std::tuple<void * (__cdecl*)(void *),void *>,std::default_delete<std::tuple<void * (__cdecl*)(void *),void *> > >::unique_ptr<std::tuple<void * (__cdecl*)(void *),void *>,std::default_delete<std::tuple<void * (__cdecl*)(void *),void *> > ><std::default_delete<std::tuple<void * (__cdecl*)(void *),void *> >,0>
_TEXT	ENDS
; Function compile flags: /Odtp /RTCsu /ZI
; File D:\software_install\VS2019\VC\Tools\MSVC\14.26.28801\include\xmemory
;	COMDAT ?_Get_first@?$_Compressed_pair@U?$default_delete@V?$tuple@P6APEAXPEAX@ZPEAX@std@@@std@@PEAV?$tuple@P6APEAXPEAX@ZPEAX@2@$00@std@@QEAAAEAU?$default_delete@V?$tuple@P6APEAXPEAX@ZPEAX@std@@@2@XZ
_TEXT	SEGMENT
this$ = 224
?_Get_first@?$_Compressed_pair@U?$default_delete@V?$tuple@P6APEAXPEAX@ZPEAX@std@@@std@@PEAV?$tuple@P6APEAXPEAX@ZPEAX@2@$00@std@@QEAAAEAU?$default_delete@V?$tuple@P6APEAXPEAX@ZPEAX@std@@@2@XZ PROC ; std::_Compressed_pair<std::default_delete<std::tuple<void * (__cdecl*)(void *),void *> >,std::tuple<void * (__cdecl*)(void *),void *> *,1>::_Get_first, COMDAT

; 1335 :     constexpr _Ty1& _Get_first() noexcept {

$LN3:
	mov	QWORD PTR [rsp+8], rcx
	push	rbp
	push	rdi
	sub	rsp, 232				; 000000e8H
	lea	rbp, QWORD PTR [rsp+32]
	mov	rdi, rsp
	mov	ecx, 58					; 0000003aH
	mov	eax, -858993460				; ccccccccH
	rep stosd
	mov	rcx, QWORD PTR [rsp+264]
	lea	rcx, OFFSET FLAT:__4597251A_xmemory
	call	__CheckForDebuggerJustMyCode

; 1336 :         return *this;

	mov	rax, QWORD PTR this$[rbp]

; 1337 :     }

	lea	rsp, QWORD PTR [rbp+200]
	pop	rdi
	pop	rbp
	ret	0
?_Get_first@?$_Compressed_pair@U?$default_delete@V?$tuple@P6APEAXPEAX@ZPEAX@std@@@std@@PEAV?$tuple@P6APEAXPEAX@ZPEAX@2@$00@std@@QEAAAEAU?$default_delete@V?$tuple@P6APEAXPEAX@ZPEAX@std@@@2@XZ ENDP ; std::_Compressed_pair<std::default_delete<std::tuple<void * (__cdecl*)(void *),void *> >,std::tuple<void * (__cdecl*)(void *),void *> *,1>::_Get_first
_TEXT	ENDS
; Function compile flags: /Odtp /RTCsu /ZI
; File D:\software_install\VS2019\VC\Tools\MSVC\14.26.28801\include\memory
;	COMDAT ?release@?$unique_ptr@V?$tuple@P6APEAXPEAX@ZPEAX@std@@U?$default_delete@V?$tuple@P6APEAXPEAX@ZPEAX@std@@@2@@std@@QEAAPEAV?$tuple@P6APEAXPEAX@ZPEAX@2@XZ
_TEXT	SEGMENT
$T1 = 200
this$ = 256
?release@?$unique_ptr@V?$tuple@P6APEAXPEAX@ZPEAX@std@@U?$default_delete@V?$tuple@P6APEAXPEAX@ZPEAX@std@@@2@@std@@QEAAPEAV?$tuple@P6APEAXPEAX@ZPEAX@2@XZ PROC ; std::unique_ptr<std::tuple<void * (__cdecl*)(void *),void *>,std::default_delete<std::tuple<void * (__cdecl*)(void *),void *> > >::release, COMDAT

; 1905 :     pointer release() noexcept {

$LN3:
	mov	QWORD PTR [rsp+8], rcx
	push	rbp
	push	rdi
	sub	rsp, 264				; 00000108H
	lea	rbp, QWORD PTR [rsp+32]
	mov	rdi, rsp
	mov	ecx, 66					; 00000042H
	mov	eax, -858993460				; ccccccccH
	rep stosd
	mov	rcx, QWORD PTR [rsp+296]
	lea	rcx, OFFSET FLAT:__859CFEA8_memory
	call	__CheckForDebuggerJustMyCode

; 1906 :         return _STD exchange(_Mypair._Myval2, pointer());

	mov	QWORD PTR $T1[rbp], 0
	mov	rax, QWORD PTR this$[rbp]
	lea	rdx, QWORD PTR $T1[rbp]
	mov	rcx, rax
	call	??$exchange@PEAV?$tuple@P6APEAXPEAX@ZPEAX@std@@PEAV12@@std@@YAPEAV?$tuple@P6APEAXPEAX@ZPEAX@0@AEAPEAV10@$$QEAPEAV10@@Z ; std::exchange<std::tuple<void * (__cdecl*)(void *),void *> *,std::tuple<void * (__cdecl*)(void *),void *> *>
	npad	1

; 1907 :     }

	lea	rsp, QWORD PTR [rbp+232]
	pop	rdi
	pop	rbp
	ret	0
?release@?$unique_ptr@V?$tuple@P6APEAXPEAX@ZPEAX@std@@U?$default_delete@V?$tuple@P6APEAXPEAX@ZPEAX@std@@@2@@std@@QEAAPEAV?$tuple@P6APEAXPEAX@ZPEAX@2@XZ ENDP ; std::unique_ptr<std::tuple<void * (__cdecl*)(void *),void *>,std::default_delete<std::tuple<void * (__cdecl*)(void *),void *> > >::release
_TEXT	ENDS
; Function compile flags: /Odtp /RTCsu /ZI
; File D:\software_install\VS2019\VC\Tools\MSVC\14.26.28801\include\memory
;	COMDAT ?get@?$unique_ptr@V?$tuple@P6APEAXPEAX@ZPEAX@std@@U?$default_delete@V?$tuple@P6APEAXPEAX@ZPEAX@std@@@2@@std@@QEBAPEAV?$tuple@P6APEAXPEAX@ZPEAX@2@XZ
_TEXT	SEGMENT
this$ = 224
?get@?$unique_ptr@V?$tuple@P6APEAXPEAX@ZPEAX@std@@U?$default_delete@V?$tuple@P6APEAXPEAX@ZPEAX@std@@@2@@std@@QEBAPEAV?$tuple@P6APEAXPEAX@ZPEAX@2@XZ PROC ; std::unique_ptr<std::tuple<void * (__cdecl*)(void *),void *>,std::default_delete<std::tuple<void * (__cdecl*)(void *),void *> > >::get, COMDAT

; 1897 :     _NODISCARD pointer get() const noexcept {

$LN3:
	mov	QWORD PTR [rsp+8], rcx
	push	rbp
	push	rdi
	sub	rsp, 232				; 000000e8H
	lea	rbp, QWORD PTR [rsp+32]
	mov	rdi, rsp
	mov	ecx, 58					; 0000003aH
	mov	eax, -858993460				; ccccccccH
	rep stosd
	mov	rcx, QWORD PTR [rsp+264]
	lea	rcx, OFFSET FLAT:__859CFEA8_memory
	call	__CheckForDebuggerJustMyCode

; 1898 :         return _Mypair._Myval2;

	mov	rax, QWORD PTR this$[rbp]
	mov	rax, QWORD PTR [rax]

; 1899 :     }

	lea	rsp, QWORD PTR [rbp+200]
	pop	rdi
	pop	rbp
	ret	0
?get@?$unique_ptr@V?$tuple@P6APEAXPEAX@ZPEAX@std@@U?$default_delete@V?$tuple@P6APEAXPEAX@ZPEAX@std@@@2@@std@@QEBAPEAV?$tuple@P6APEAXPEAX@ZPEAX@2@XZ ENDP ; std::unique_ptr<std::tuple<void * (__cdecl*)(void *),void *>,std::default_delete<std::tuple<void * (__cdecl*)(void *),void *> > >::get
_TEXT	ENDS
; Function compile flags: /Odtp /RTCsu /ZI
; File D:\software_install\VS2019\VC\Tools\MSVC\14.26.28801\include\memory
;	COMDAT ??D?$unique_ptr@V?$tuple@P6APEAXPEAX@ZPEAX@std@@U?$default_delete@V?$tuple@P6APEAXPEAX@ZPEAX@std@@@2@@std@@QEBAAEAV?$tuple@P6APEAXPEAX@ZPEAX@1@XZ
_TEXT	SEGMENT
this$ = 224
??D?$unique_ptr@V?$tuple@P6APEAXPEAX@ZPEAX@std@@U?$default_delete@V?$tuple@P6APEAXPEAX@ZPEAX@std@@@2@@std@@QEBAAEAV?$tuple@P6APEAXPEAX@ZPEAX@1@XZ PROC ; std::unique_ptr<std::tuple<void * (__cdecl*)(void *),void *>,std::default_delete<std::tuple<void * (__cdecl*)(void *),void *> > >::operator*, COMDAT

; 1889 :     _NODISCARD add_lvalue_reference_t<_Ty> operator*() const noexcept /* strengthened */ {

$LN3:
	mov	QWORD PTR [rsp+8], rcx
	push	rbp
	push	rdi
	sub	rsp, 232				; 000000e8H
	lea	rbp, QWORD PTR [rsp+32]
	mov	rdi, rsp
	mov	ecx, 58					; 0000003aH
	mov	eax, -858993460				; ccccccccH
	rep stosd
	mov	rcx, QWORD PTR [rsp+264]
	lea	rcx, OFFSET FLAT:__859CFEA8_memory
	call	__CheckForDebuggerJustMyCode

; 1890 :         return *_Mypair._Myval2;

	mov	rax, QWORD PTR this$[rbp]
	mov	rax, QWORD PTR [rax]

; 1891 :     }

	lea	rsp, QWORD PTR [rbp+200]
	pop	rdi
	pop	rbp
	ret	0
??D?$unique_ptr@V?$tuple@P6APEAXPEAX@ZPEAX@std@@U?$default_delete@V?$tuple@P6APEAXPEAX@ZPEAX@std@@@2@@std@@QEBAAEAV?$tuple@P6APEAXPEAX@ZPEAX@1@XZ ENDP ; std::unique_ptr<std::tuple<void * (__cdecl*)(void *),void *>,std::default_delete<std::tuple<void * (__cdecl*)(void *),void *> > >::operator*
_TEXT	ENDS
; Function compile flags: /Odtp /RTCsu /ZI
; File D:\software_install\VS2019\VC\Tools\MSVC\14.26.28801\include\memory
;	COMDAT ?get_deleter@?$unique_ptr@V?$tuple@P6APEAXPEAX@ZPEAX@std@@U?$default_delete@V?$tuple@P6APEAXPEAX@ZPEAX@std@@@2@@std@@QEAAAEAU?$default_delete@V?$tuple@P6APEAXPEAX@ZPEAX@std@@@2@XZ
_TEXT	SEGMENT
this$ = 224
?get_deleter@?$unique_ptr@V?$tuple@P6APEAXPEAX@ZPEAX@std@@U?$default_delete@V?$tuple@P6APEAXPEAX@ZPEAX@std@@@2@@std@@QEAAAEAU?$default_delete@V?$tuple@P6APEAXPEAX@ZPEAX@std@@@2@XZ PROC ; std::unique_ptr<std::tuple<void * (__cdecl*)(void *),void *>,std::default_delete<std::tuple<void * (__cdecl*)(void *),void *> > >::get_deleter, COMDAT

; 1881 :     _NODISCARD _Dx& get_deleter() noexcept {

$LN3:
	mov	QWORD PTR [rsp+8], rcx
	push	rbp
	push	rdi
	sub	rsp, 232				; 000000e8H
	lea	rbp, QWORD PTR [rsp+32]
	mov	rdi, rsp
	mov	ecx, 58					; 0000003aH
	mov	eax, -858993460				; ccccccccH
	rep stosd
	mov	rcx, QWORD PTR [rsp+264]
	lea	rcx, OFFSET FLAT:__859CFEA8_memory
	call	__CheckForDebuggerJustMyCode

; 1882 :         return _Mypair._Get_first();

	mov	rax, QWORD PTR this$[rbp]
	mov	rcx, rax
	call	?_Get_first@?$_Compressed_pair@U?$default_delete@V?$tuple@P6APEAXPEAX@ZPEAX@std@@@std@@PEAV?$tuple@P6APEAXPEAX@ZPEAX@2@$00@std@@QEAAAEAU?$default_delete@V?$tuple@P6APEAXPEAX@ZPEAX@std@@@2@XZ ; std::_Compressed_pair<std::default_delete<std::tuple<void * (__cdecl*)(void *),void *> >,std::tuple<void * (__cdecl*)(void *),void *> *,1>::_Get_first
	npad	1

; 1883 :     }

	lea	rsp, QWORD PTR [rbp+200]
	pop	rdi
	pop	rbp
	ret	0
?get_deleter@?$unique_ptr@V?$tuple@P6APEAXPEAX@ZPEAX@std@@U?$default_delete@V?$tuple@P6APEAXPEAX@ZPEAX@std@@@2@@std@@QEAAAEAU?$default_delete@V?$tuple@P6APEAXPEAX@ZPEAX@std@@@2@XZ ENDP ; std::unique_ptr<std::tuple<void * (__cdecl*)(void *),void *>,std::default_delete<std::tuple<void * (__cdecl*)(void *),void *> > >::get_deleter
_TEXT	ENDS
; Function compile flags: /Odtp /RTCsu /ZI
; File D:\software_install\VS2019\VC\Tools\MSVC\14.26.28801\include\memory
;	COMDAT ??1?$unique_ptr@V?$tuple@P6APEAXPEAX@ZPEAX@std@@U?$default_delete@V?$tuple@P6APEAXPEAX@ZPEAX@std@@@2@@std@@QEAA@XZ
_TEXT	SEGMENT
this$ = 224
??1?$unique_ptr@V?$tuple@P6APEAXPEAX@ZPEAX@std@@U?$default_delete@V?$tuple@P6APEAXPEAX@ZPEAX@std@@@2@@std@@QEAA@XZ PROC ; std::unique_ptr<std::tuple<void * (__cdecl*)(void *),void *>,std::default_delete<std::tuple<void * (__cdecl*)(void *),void *> > >::~unique_ptr<std::tuple<void * (__cdecl*)(void *),void *>,std::default_delete<std::tuple<void * (__cdecl*)(void *),void *> > >, COMDAT

; 1875 :     ~unique_ptr() noexcept {

$LN4:
	mov	QWORD PTR [rsp+8], rcx
	push	rbp
	push	rdi
	sub	rsp, 232				; 000000e8H
	lea	rbp, QWORD PTR [rsp+32]
	mov	rdi, rsp
	mov	ecx, 58					; 0000003aH
	mov	eax, -858993460				; ccccccccH
	rep stosd
	mov	rcx, QWORD PTR [rsp+264]
	lea	rcx, OFFSET FLAT:__859CFEA8_memory
	call	__CheckForDebuggerJustMyCode

; 1876 :         if (_Mypair._Myval2) {

	mov	rax, QWORD PTR this$[rbp]
	cmp	QWORD PTR [rax], 0
	je	SHORT $LN2@unique_ptr

; 1877 :             _Mypair._Get_first()(_Mypair._Myval2);

	mov	rax, QWORD PTR this$[rbp]
	mov	rcx, rax
	call	?_Get_first@?$_Compressed_pair@U?$default_delete@V?$tuple@P6APEAXPEAX@ZPEAX@std@@@std@@PEAV?$tuple@P6APEAXPEAX@ZPEAX@2@$00@std@@QEAAAEAU?$default_delete@V?$tuple@P6APEAXPEAX@ZPEAX@std@@@2@XZ ; std::_Compressed_pair<std::default_delete<std::tuple<void * (__cdecl*)(void *),void *> >,std::tuple<void * (__cdecl*)(void *),void *> *,1>::_Get_first
	mov	rcx, QWORD PTR this$[rbp]
	mov	rdx, QWORD PTR [rcx]
	mov	rcx, rax
	call	??R?$default_delete@V?$tuple@P6APEAXPEAX@ZPEAX@std@@@std@@QEBAXPEAV?$tuple@P6APEAXPEAX@ZPEAX@1@@Z ; std::default_delete<std::tuple<void * (__cdecl*)(void *),void *> >::operator()
	npad	1
$LN2@unique_ptr:

; 1878 :         }
; 1879 :     }

	lea	rsp, QWORD PTR [rbp+200]
	pop	rdi
	pop	rbp
	ret	0
??1?$unique_ptr@V?$tuple@P6APEAXPEAX@ZPEAX@std@@U?$default_delete@V?$tuple@P6APEAXPEAX@ZPEAX@std@@@2@@std@@QEAA@XZ ENDP ; std::unique_ptr<std::tuple<void * (__cdecl*)(void *),void *>,std::default_delete<std::tuple<void * (__cdecl*)(void *),void *> > >::~unique_ptr<std::tuple<void * (__cdecl*)(void *),void *>,std::default_delete<std::tuple<void * (__cdecl*)(void *),void *> > >
_TEXT	ENDS
; Function compile flags: /Odtp /RTCsu /ZI
; File D:\software_install\VS2019\VC\Tools\MSVC\14.26.28801\include\memory
;	COMDAT ??R?$default_delete@V?$tuple@P6APEAXPEAX@ZPEAX@std@@@std@@QEBAXPEAV?$tuple@P6APEAXPEAX@ZPEAX@1@@Z
_TEXT	SEGMENT
$T1 = 200
this$ = 256
_Ptr$ = 264
??R?$default_delete@V?$tuple@P6APEAXPEAX@ZPEAX@std@@@std@@QEBAXPEAV?$tuple@P6APEAXPEAX@ZPEAX@1@@Z PROC ; std::default_delete<std::tuple<void * (__cdecl*)(void *),void *> >::operator(), COMDAT

; 1760 :     void operator()(_Ty* _Ptr) const noexcept /* strengthened */ { // delete a pointer

$LN3:
	mov	QWORD PTR [rsp+16], rdx
	mov	QWORD PTR [rsp+8], rcx
	push	rbp
	push	rdi
	sub	rsp, 264				; 00000108H
	lea	rbp, QWORD PTR [rsp+32]
	mov	rdi, rsp
	mov	ecx, 66					; 00000042H
	mov	eax, -858993460				; ccccccccH
	rep stosd
	mov	rcx, QWORD PTR [rsp+296]
	lea	rcx, OFFSET FLAT:__859CFEA8_memory
	call	__CheckForDebuggerJustMyCode

; 1761 :         static_assert(0 < sizeof(_Ty), "can't delete an incomplete type");
; 1762 :         delete _Ptr;

	mov	rax, QWORD PTR _Ptr$[rbp]
	mov	QWORD PTR $T1[rbp], rax
	mov	edx, 16
	mov	rcx, QWORD PTR $T1[rbp]
	call	??3@YAXPEAX_K@Z				; operator delete
	npad	1

; 1763 :     }

	lea	rsp, QWORD PTR [rbp+232]
	pop	rdi
	pop	rbp
	ret	0
??R?$default_delete@V?$tuple@P6APEAXPEAX@ZPEAX@std@@@std@@QEBAXPEAV?$tuple@P6APEAXPEAX@ZPEAX@1@@Z ENDP ; std::default_delete<std::tuple<void * (__cdecl*)(void *),void *> >::operator()
_TEXT	ENDS
; Function compile flags: /Odtp /RTCsu /ZI
; File D:\software_install\VS2019\VC\Tools\MSVC\14.26.28801\include\memory
;	COMDAT ??$make_unique@V?$tuple@P6APEAXPEAX@ZPEAX@std@@AEAP6APEAXPEAX@ZAEAPEAX$0A@@std@@YA?AV?$unique_ptr@V?$tuple@P6APEAXPEAX@ZPEAX@std@@U?$default_delete@V?$tuple@P6APEAXPEAX@ZPEAX@std@@@2@@0@AEAP6APEAXPEAX@ZAEAPEAX@Z
_TEXT	SEGMENT
$T1 = 200
$T2 = 232
$T3 = 260
tv76 = 280
tv82 = 288
tv90 = 296
__$ReturnUdt$ = 336
<_Args_0>$ = 344
<_Args_1>$ = 352
??$make_unique@V?$tuple@P6APEAXPEAX@ZPEAX@std@@AEAP6APEAXPEAX@ZAEAPEAX$0A@@std@@YA?AV?$unique_ptr@V?$tuple@P6APEAXPEAX@ZPEAX@std@@U?$default_delete@V?$tuple@P6APEAXPEAX@ZPEAX@std@@@2@@0@AEAP6APEAXPEAX@ZAEAPEAX@Z PROC ; std::make_unique<std::tuple<void * (__cdecl*)(void *),void *>,void * (__cdecl*&)(void *),void * &,0>, COMDAT

; 2067 : _NODISCARD unique_ptr<_Ty> make_unique(_Types&&... _Args) { // make a unique_ptr

$LN8:
	mov	QWORD PTR [rsp+24], r8
	mov	QWORD PTR [rsp+16], rdx
	mov	QWORD PTR [rsp+8], rcx
	push	rbp
	push	rdi
	sub	rsp, 344				; 00000158H
	lea	rbp, QWORD PTR [rsp+32]
	mov	rdi, rsp
	mov	ecx, 86					; 00000056H
	mov	eax, -858993460				; ccccccccH
	rep stosd
	mov	rcx, QWORD PTR [rsp+376]
	mov	DWORD PTR $T3[rbp], 0
	lea	rcx, OFFSET FLAT:__859CFEA8_memory
	call	__CheckForDebuggerJustMyCode

; 2068 :     return unique_ptr<_Ty>(new _Ty(_STD forward<_Types>(_Args)...));

	mov	ecx, 16
	call	??2@YAPEAX_K@Z				; operator new
	mov	QWORD PTR $T2[rbp], rax
	cmp	QWORD PTR $T2[rbp], 0
	je	SHORT $LN3@make_uniqu
	mov	rcx, QWORD PTR <_Args_1>$[rbp]
	call	??$forward@AEAPEAX@std@@YAAEAPEAXAEAPEAX@Z ; std::forward<void * &>
	mov	QWORD PTR tv76[rbp], rax
	mov	rcx, QWORD PTR <_Args_0>$[rbp]
	call	??$forward@AEAP6APEAXPEAX@Z@std@@YAAEAP6APEAXPEAX@ZAEAP6APEAX0@Z@Z ; std::forward<void * (__cdecl*&)(void *)>
	mov	rcx, QWORD PTR tv76[rbp]
	mov	r8, rcx
	mov	rdx, rax
	mov	rcx, QWORD PTR $T2[rbp]
	call	??$?0AEAP6APEAXPEAX@ZAEAPEAX$0A@@?$tuple@P6APEAXPEAX@ZPEAX@std@@QEAA@AEAP6APEAXPEAX@ZAEAPEAX@Z ; std::tuple<void * (__cdecl*)(void *),void *>::tuple<void * (__cdecl*)(void *),void *><void * (__cdecl*&)(void *),void * &,0>
	mov	QWORD PTR tv82[rbp], rax
	jmp	SHORT $LN4@make_uniqu
$LN3@make_uniqu:
	mov	QWORD PTR tv82[rbp], 0
$LN4@make_uniqu:
	mov	rdx, QWORD PTR tv82[rbp]
	lea	rcx, QWORD PTR $T1[rbp]
	call	??$?0U?$default_delete@V?$tuple@P6APEAXPEAX@ZPEAX@std@@@std@@$0A@@?$unique_ptr@V?$tuple@P6APEAXPEAX@ZPEAX@std@@U?$default_delete@V?$tuple@P6APEAXPEAX@ZPEAX@std@@@2@@std@@QEAA@PEAV?$tuple@P6APEAXPEAX@ZPEAX@1@@Z ; std::unique_ptr<std::tuple<void * (__cdecl*)(void *),void *>,std::default_delete<std::tuple<void * (__cdecl*)(void *),void *> > >::unique_ptr<std::tuple<void * (__cdecl*)(void *),void *>,std::default_delete<std::tuple<void * (__cdecl*)(void *),void *> > ><std::default_delete<std::tuple<void * (__cdecl*)(void *),void *> >,0>
	mov	QWORD PTR tv90[rbp], rax
	mov	rdx, QWORD PTR tv90[rbp]
	mov	rcx, QWORD PTR __$ReturnUdt$[rbp]
	call	??$?0U?$default_delete@V?$tuple@P6APEAXPEAX@ZPEAX@std@@@std@@$0A@@?$unique_ptr@V?$tuple@P6APEAXPEAX@ZPEAX@std@@U?$default_delete@V?$tuple@P6APEAXPEAX@ZPEAX@std@@@2@@std@@QEAA@$$QEAV01@@Z ; std::unique_ptr<std::tuple<void * (__cdecl*)(void *),void *>,std::default_delete<std::tuple<void * (__cdecl*)(void *),void *> > >::unique_ptr<std::tuple<void * (__cdecl*)(void *),void *>,std::default_delete<std::tuple<void * (__cdecl*)(void *),void *> > ><std::default_delete<std::tuple<void * (__cdecl*)(void *),void *> >,0>
	mov	eax, DWORD PTR $T3[rbp]
	or	eax, 1
	mov	DWORD PTR $T3[rbp], eax
	lea	rcx, QWORD PTR $T1[rbp]
	call	??1?$unique_ptr@V?$tuple@P6APEAXPEAX@ZPEAX@std@@U?$default_delete@V?$tuple@P6APEAXPEAX@ZPEAX@std@@@2@@std@@QEAA@XZ ; std::unique_ptr<std::tuple<void * (__cdecl*)(void *),void *>,std::default_delete<std::tuple<void * (__cdecl*)(void *),void *> > >::~unique_ptr<std::tuple<void * (__cdecl*)(void *),void *>,std::default_delete<std::tuple<void * (__cdecl*)(void *),void *> > >
	mov	rax, QWORD PTR __$ReturnUdt$[rbp]

; 2069 : }

	lea	rsp, QWORD PTR [rbp+312]
	pop	rdi
	pop	rbp
	ret	0
??$make_unique@V?$tuple@P6APEAXPEAX@ZPEAX@std@@AEAP6APEAXPEAX@ZAEAPEAX$0A@@std@@YA?AV?$unique_ptr@V?$tuple@P6APEAXPEAX@ZPEAX@std@@U?$default_delete@V?$tuple@P6APEAXPEAX@ZPEAX@std@@@2@@0@AEAP6APEAXPEAX@ZAEAPEAX@Z ENDP ; std::make_unique<std::tuple<void * (__cdecl*)(void *),void *>,void * (__cdecl*&)(void *),void * &,0>
_TEXT	ENDS
; Function compile flags: /Odtp /RTCsu /ZI
; File D:\software_install\VS2019\VC\Tools\MSVC\14.26.28801\include\type_traits
;	COMDAT ??$forward@AEAPEAX@std@@YAAEAPEAXAEAPEAX@Z
_TEXT	SEGMENT
_Arg$ = 224
??$forward@AEAPEAX@std@@YAAEAPEAXAEAPEAX@Z PROC		; std::forward<void * &>, COMDAT

; 1454 :     remove_reference_t<_Ty>& _Arg) noexcept { // forward an lvalue as either an lvalue or an rvalue

$LN3:
	mov	QWORD PTR [rsp+8], rcx
	push	rbp
	push	rdi
	sub	rsp, 232				; 000000e8H
	lea	rbp, QWORD PTR [rsp+32]
	mov	rdi, rsp
	mov	ecx, 58					; 0000003aH
	mov	eax, -858993460				; ccccccccH
	rep stosd
	mov	rcx, QWORD PTR [rsp+264]
	lea	rcx, OFFSET FLAT:__6750BE0F_type_traits
	call	__CheckForDebuggerJustMyCode

; 1455 :     return static_cast<_Ty&&>(_Arg);

	mov	rax, QWORD PTR _Arg$[rbp]

; 1456 : }

	lea	rsp, QWORD PTR [rbp+200]
	pop	rdi
	pop	rbp
	ret	0
??$forward@AEAPEAX@std@@YAAEAPEAXAEAPEAX@Z ENDP		; std::forward<void * &>
_TEXT	ENDS
; Function compile flags: /Odtp /RTCsu /ZI
; File D:\software_install\VS2019\VC\Tools\MSVC\14.26.28801\include\type_traits
;	COMDAT ??$forward@AEAP6APEAXPEAX@Z@std@@YAAEAP6APEAXPEAX@ZAEAP6APEAX0@Z@Z
_TEXT	SEGMENT
_Arg$ = 224
??$forward@AEAP6APEAXPEAX@Z@std@@YAAEAP6APEAXPEAX@ZAEAP6APEAX0@Z@Z PROC ; std::forward<void * (__cdecl*&)(void *)>, COMDAT

; 1454 :     remove_reference_t<_Ty>& _Arg) noexcept { // forward an lvalue as either an lvalue or an rvalue

$LN3:
	mov	QWORD PTR [rsp+8], rcx
	push	rbp
	push	rdi
	sub	rsp, 232				; 000000e8H
	lea	rbp, QWORD PTR [rsp+32]
	mov	rdi, rsp
	mov	ecx, 58					; 0000003aH
	mov	eax, -858993460				; ccccccccH
	rep stosd
	mov	rcx, QWORD PTR [rsp+264]
	lea	rcx, OFFSET FLAT:__6750BE0F_type_traits
	call	__CheckForDebuggerJustMyCode

; 1455 :     return static_cast<_Ty&&>(_Arg);

	mov	rax, QWORD PTR _Arg$[rbp]

; 1456 : }

	lea	rsp, QWORD PTR [rbp+200]
	pop	rdi
	pop	rbp
	ret	0
??$forward@AEAP6APEAXPEAX@Z@std@@YAAEAP6APEAXPEAX@ZAEAP6APEAX0@Z@Z ENDP ; std::forward<void * (__cdecl*&)(void *)>
_TEXT	ENDS
; Function compile flags: /Odtp /RTCsu /ZI
; File D:\software_install\VS2019\VC\Tools\MSVC\14.26.28801\include\xstddef
;	COMDAT ??$addressof@Vmutex@std@@@std@@YAPEAVmutex@0@AEAV10@@Z
_TEXT	SEGMENT
_Val$ = 224
??$addressof@Vmutex@std@@@std@@YAPEAVmutex@0@AEAV10@@Z PROC ; std::addressof<std::mutex>, COMDAT

; 274  : _NODISCARD constexpr _Ty* addressof(_Ty& _Val) noexcept {

$LN3:
	mov	QWORD PTR [rsp+8], rcx
	push	rbp
	push	rdi
	sub	rsp, 232				; 000000e8H
	lea	rbp, QWORD PTR [rsp+32]
	mov	rdi, rsp
	mov	ecx, 58					; 0000003aH
	mov	eax, -858993460				; ccccccccH
	rep stosd
	mov	rcx, QWORD PTR [rsp+264]
	lea	rcx, OFFSET FLAT:__D81DD1CB_xstddef
	call	__CheckForDebuggerJustMyCode

; 275  :     return __builtin_addressof(_Val);

	mov	rax, QWORD PTR _Val$[rbp]

; 276  : }

	lea	rsp, QWORD PTR [rbp+200]
	pop	rdi
	pop	rbp
	ret	0
??$addressof@Vmutex@std@@@std@@YAPEAVmutex@0@AEAV10@@Z ENDP ; std::addressof<std::mutex>
_TEXT	ENDS
; Function compile flags: /Odtp /RTCsu /ZI
; File D:\software_install\VS2019\VC\Tools\MSVC\14.26.28801\include\thread
;	COMDAT ??$?0AEAP6APEAXPEAX@ZAEAPEAX$0A@@thread@std@@QEAA@AEAP6APEAXPEAX@ZAEAPEAX@Z
_TEXT	SEGMENT
_Decay_copied$ = 8
_Invoker_proc$ = 40
$T4 = 264
tv82 = 280
tv67 = 280
tv132 = 288
this$ = 336
_Fx$ = 344
<_Ax_0>$ = 352
??$?0AEAP6APEAXPEAX@ZAEAPEAX$0A@@thread@std@@QEAA@AEAP6APEAXPEAX@ZAEAPEAX@Z PROC ; std::thread::thread<void * (__cdecl*&)(void *),void * &,0>, COMDAT

; 55   :     explicit thread(_Fn&& _Fx, _Args&&... _Ax) {

$LN8:
	mov	QWORD PTR [rsp+24], r8
	mov	QWORD PTR [rsp+16], rdx
	mov	QWORD PTR [rsp+8], rcx
	push	rbp
	push	rdi
	sub	rsp, 360				; 00000168H
	lea	rbp, QWORD PTR [rsp+48]
	mov	rdi, rsp
	mov	ecx, 90					; 0000005aH
	mov	eax, -858993460				; ccccccccH
	rep stosd
	mov	rcx, QWORD PTR [rsp+392]
	lea	rcx, OFFSET FLAT:__5ED1861E_thread
	call	__CheckForDebuggerJustMyCode

; 56   :         using _Tuple                 = tuple<decay_t<_Fn>, decay_t<_Args>...>;
; 57   :         auto _Decay_copied           = _STD make_unique<_Tuple>(_STD forward<_Fn>(_Fx), _STD forward<_Args>(_Ax)...);

	mov	rcx, QWORD PTR <_Ax_0>$[rbp]
	call	??$forward@AEAPEAX@std@@YAAEAPEAXAEAPEAX@Z ; std::forward<void * &>
	mov	QWORD PTR tv67[rbp], rax
	mov	rcx, QWORD PTR _Fx$[rbp]
	call	??$forward@AEAP6APEAXPEAX@Z@std@@YAAEAP6APEAXPEAX@ZAEAP6APEAX0@Z@Z ; std::forward<void * (__cdecl*&)(void *)>
	mov	rcx, QWORD PTR tv67[rbp]
	mov	r8, rcx
	mov	rdx, rax
	lea	rcx, QWORD PTR $T4[rbp]
	call	??$make_unique@V?$tuple@P6APEAXPEAX@ZPEAX@std@@AEAP6APEAXPEAX@ZAEAPEAX$0A@@std@@YA?AV?$unique_ptr@V?$tuple@P6APEAXPEAX@ZPEAX@std@@U?$default_delete@V?$tuple@P6APEAXPEAX@ZPEAX@std@@@2@@0@AEAP6APEAXPEAX@ZAEAPEAX@Z ; std::make_unique<std::tuple<void * (__cdecl*)(void *),void *>,void * (__cdecl*&)(void *),void * &,0>
	mov	QWORD PTR tv132[rbp], rax
	mov	rdx, QWORD PTR tv132[rbp]
	lea	rcx, QWORD PTR _Decay_copied$[rbp]
	call	??$?0U?$default_delete@V?$tuple@P6APEAXPEAX@ZPEAX@std@@@std@@$0A@@?$unique_ptr@V?$tuple@P6APEAXPEAX@ZPEAX@std@@U?$default_delete@V?$tuple@P6APEAXPEAX@ZPEAX@std@@@2@@std@@QEAA@$$QEAV01@@Z ; std::unique_ptr<std::tuple<void * (__cdecl*)(void *),void *>,std::default_delete<std::tuple<void * (__cdecl*)(void *),void *> > >::unique_ptr<std::tuple<void * (__cdecl*)(void *),void *>,std::default_delete<std::tuple<void * (__cdecl*)(void *),void *> > ><std::default_delete<std::tuple<void * (__cdecl*)(void *),void *> >,0>
	npad	1
	lea	rcx, QWORD PTR $T4[rbp]
	call	??1?$unique_ptr@V?$tuple@P6APEAXPEAX@ZPEAX@std@@U?$default_delete@V?$tuple@P6APEAXPEAX@ZPEAX@std@@@2@@std@@QEAA@XZ ; std::unique_ptr<std::tuple<void * (__cdecl*)(void *),void *>,std::default_delete<std::tuple<void * (__cdecl*)(void *),void *> > >::~unique_ptr<std::tuple<void * (__cdecl*)(void *),void *>,std::default_delete<std::tuple<void * (__cdecl*)(void *),void *> > >

; 58   :         constexpr auto _Invoker_proc = _Get_invoke<_Tuple>(make_index_sequence<1 + sizeof...(_Args)>{});

	lea	rax, OFFSET FLAT:??$_Invoke@V?$tuple@P6APEAXPEAX@ZPEAX@std@@$0A@$00@thread@std@@CAIPEAX@Z ; std::thread::_Invoke<std::tuple<void * (__cdecl*)(void *),void *>,0,1>
	mov	QWORD PTR _Invoker_proc$[rbp], rax

; 59   : 
; 60   : #pragma warning(push)
; 61   : #pragma warning(disable : 5039) // pointer or reference to potentially throwing function passed to
; 62   :                                 // extern C function under -EHc. Undefined behavior may occur
; 63   :                                 // if this function throws an exception. (/Wall)
; 64   :         _Thr._Hnd =

	mov	rax, QWORD PTR this$[rbp]
	add	rax, 8
	mov	QWORD PTR tv82[rbp], rax
	lea	rcx, QWORD PTR _Decay_copied$[rbp]
	call	?get@?$unique_ptr@V?$tuple@P6APEAXPEAX@ZPEAX@std@@U?$default_delete@V?$tuple@P6APEAXPEAX@ZPEAX@std@@@2@@std@@QEBAPEAV?$tuple@P6APEAXPEAX@ZPEAX@2@XZ ; std::unique_ptr<std::tuple<void * (__cdecl*)(void *),void *>,std::default_delete<std::tuple<void * (__cdecl*)(void *),void *> > >::get
	mov	rcx, QWORD PTR tv82[rbp]
	mov	QWORD PTR [rsp+40], rcx
	mov	DWORD PTR [rsp+32], 0
	mov	r9, rax
	mov	r8, QWORD PTR _Invoker_proc$[rbp]
	xor	edx, edx
	xor	ecx, ecx
	call	QWORD PTR __imp__beginthreadex
	mov	rcx, QWORD PTR this$[rbp]
	mov	QWORD PTR [rcx], rax

; 65   :             reinterpret_cast<void*>(_CSTD _beginthreadex(nullptr, 0, _Invoker_proc, _Decay_copied.get(), 0, &_Thr._Id));
; 66   : #pragma warning(pop)
; 67   : 
; 68   :         if (_Thr._Hnd) { // ownership transferred to the thread

	mov	rax, QWORD PTR this$[rbp]
	cmp	QWORD PTR [rax], 0
	je	SHORT $LN2@thread

; 69   :             (void) _Decay_copied.release();

	lea	rcx, QWORD PTR _Decay_copied$[rbp]
	call	?release@?$unique_ptr@V?$tuple@P6APEAXPEAX@ZPEAX@std@@U?$default_delete@V?$tuple@P6APEAXPEAX@ZPEAX@std@@@2@@std@@QEAAPEAV?$tuple@P6APEAXPEAX@ZPEAX@2@XZ ; std::unique_ptr<std::tuple<void * (__cdecl*)(void *),void *>,std::default_delete<std::tuple<void * (__cdecl*)(void *),void *> > >::release

; 70   :         } else { // failed to start thread

	jmp	SHORT $LN3@thread
$LN2@thread:

; 71   :             _Thr._Id = 0;

	mov	rax, QWORD PTR this$[rbp]
	mov	DWORD PTR [rax+8], 0

; 72   :             _Throw_Cpp_error(_RESOURCE_UNAVAILABLE_TRY_AGAIN);

	mov	ecx, 6
	call	?_Throw_Cpp_error@std@@YAXH@Z		; std::_Throw_Cpp_error
	npad	1
$LN3@thread:

; 73   :         }
; 74   :     }

	lea	rcx, QWORD PTR _Decay_copied$[rbp]
	call	??1?$unique_ptr@V?$tuple@P6APEAXPEAX@ZPEAX@std@@U?$default_delete@V?$tuple@P6APEAXPEAX@ZPEAX@std@@@2@@std@@QEAA@XZ ; std::unique_ptr<std::tuple<void * (__cdecl*)(void *),void *>,std::default_delete<std::tuple<void * (__cdecl*)(void *),void *> > >::~unique_ptr<std::tuple<void * (__cdecl*)(void *),void *>,std::default_delete<std::tuple<void * (__cdecl*)(void *),void *> > >
	mov	rax, QWORD PTR this$[rbp]
	mov	rdi, rax
	lea	rcx, QWORD PTR [rbp-48]
	lea	rdx, OFFSET FLAT:??$?0AEAP6APEAXPEAX@ZAEAPEAX$0A@@thread@std@@QEAA@AEAP6APEAXPEAX@ZAEAPEAX@Z$rtcFrameData
	call	_RTC_CheckStackVars
	mov	rax, rdi
	lea	rsp, QWORD PTR [rbp+312]
	pop	rdi
	pop	rbp
	ret	0
$LN7@thread:
??$?0AEAP6APEAXPEAX@ZAEAPEAX$0A@@thread@std@@QEAA@AEAP6APEAXPEAX@ZAEAPEAX@Z ENDP ; std::thread::thread<void * (__cdecl*&)(void *),void * &,0>
_TEXT	ENDS
;	COMDAT text$x
text$x	SEGMENT
_Decay_copied$ = 8
_Invoker_proc$ = 40
$T4 = 264
tv82 = 280
tv67 = 280
tv132 = 288
this$ = 336
_Fx$ = 344
<_Ax_0>$ = 352
?dtor$1@?0???$?0AEAP6APEAXPEAX@ZAEAPEAX$0A@@thread@std@@QEAA@AEAP6APEAXPEAX@ZAEAPEAX@Z@4HA PROC ; `std::thread::thread<void * (__cdecl*&)(void *),void * &,0>'::`1'::dtor$1
	mov	QWORD PTR [rsp+8], rcx
	mov	QWORD PTR [rsp+16], rdx
	push	rbp
	push	rdi
	sub	rsp, 40					; 00000028H
	lea	rbp, QWORD PTR [rdx+48]
	lea	rcx, QWORD PTR _Decay_copied$[rbp]
	call	??1?$unique_ptr@V?$tuple@P6APEAXPEAX@ZPEAX@std@@U?$default_delete@V?$tuple@P6APEAXPEAX@ZPEAX@std@@@2@@std@@QEAA@XZ ; std::unique_ptr<std::tuple<void * (__cdecl*)(void *),void *>,std::default_delete<std::tuple<void * (__cdecl*)(void *),void *> > >::~unique_ptr<std::tuple<void * (__cdecl*)(void *),void *>,std::default_delete<std::tuple<void * (__cdecl*)(void *),void *> > >
	add	rsp, 40					; 00000028H
	pop	rdi
	pop	rbp
	ret	0
?dtor$1@?0???$?0AEAP6APEAXPEAX@ZAEAPEAX$0A@@thread@std@@QEAA@AEAP6APEAXPEAX@ZAEAPEAX@Z@4HA ENDP ; `std::thread::thread<void * (__cdecl*&)(void *),void * &,0>'::`1'::dtor$1
text$x	ENDS
; Function compile flags: /Odtp /RTCsu /ZI
;	COMDAT text$x
text$x	SEGMENT
_Decay_copied$ = 8
_Invoker_proc$ = 40
$T4 = 264
tv82 = 280
tv67 = 280
tv132 = 288
this$ = 336
_Fx$ = 344
<_Ax_0>$ = 352
?dtor$1@?0???$?0AEAP6APEAXPEAX@ZAEAPEAX$0A@@thread@std@@QEAA@AEAP6APEAXPEAX@ZAEAPEAX@Z@4HA PROC ; `std::thread::thread<void * (__cdecl*&)(void *),void * &,0>'::`1'::dtor$1
	mov	QWORD PTR [rsp+8], rcx
	mov	QWORD PTR [rsp+16], rdx
	push	rbp
	push	rdi
	sub	rsp, 40					; 00000028H
	lea	rbp, QWORD PTR [rdx+48]
	lea	rcx, QWORD PTR _Decay_copied$[rbp]
	call	??1?$unique_ptr@V?$tuple@P6APEAXPEAX@ZPEAX@std@@U?$default_delete@V?$tuple@P6APEAXPEAX@ZPEAX@std@@@2@@std@@QEAA@XZ ; std::unique_ptr<std::tuple<void * (__cdecl*)(void *),void *>,std::default_delete<std::tuple<void * (__cdecl*)(void *),void *> > >::~unique_ptr<std::tuple<void * (__cdecl*)(void *),void *>,std::default_delete<std::tuple<void * (__cdecl*)(void *),void *> > >
	add	rsp, 40					; 00000028H
	pop	rdi
	pop	rbp
	ret	0
?dtor$1@?0???$?0AEAP6APEAXPEAX@ZAEAPEAX$0A@@thread@std@@QEAA@AEAP6APEAXPEAX@ZAEAPEAX@Z@4HA ENDP ; `std::thread::thread<void * (__cdecl*&)(void *),void * &,0>'::`1'::dtor$1
text$x	ENDS
; Function compile flags: /Odtp /RTCsu /ZI
;	COMDAT ??_Gshared_mutex@std@@QEAAPEAXI@Z
_TEXT	SEGMENT
this$ = 224
__flags$ = 232
??_Gshared_mutex@std@@QEAAPEAXI@Z PROC			; std::shared_mutex::`scalar deleting destructor', COMDAT
$LN4:
	mov	DWORD PTR [rsp+16], edx
	mov	QWORD PTR [rsp+8], rcx
	push	rbp
	push	rdi
	sub	rsp, 232				; 000000e8H
	lea	rbp, QWORD PTR [rsp+32]
	mov	rdi, rsp
	mov	ecx, 58					; 0000003aH
	mov	eax, -858993460				; ccccccccH
	rep stosd
	mov	rcx, QWORD PTR [rsp+264]
	mov	rcx, QWORD PTR this$[rbp]
	call	??1shared_mutex@std@@QEAA@XZ		; std::shared_mutex::~shared_mutex
	mov	eax, DWORD PTR __flags$[rbp]
	and	eax, 1
	test	eax, eax
	je	SHORT $LN2@scalar
	mov	edx, 8
	mov	rcx, QWORD PTR this$[rbp]
	call	??3@YAXPEAX_K@Z				; operator delete
$LN2@scalar:
	mov	rax, QWORD PTR this$[rbp]
	lea	rsp, QWORD PTR [rbp+200]
	pop	rdi
	pop	rbp
	ret	0
??_Gshared_mutex@std@@QEAAPEAXI@Z ENDP			; std::shared_mutex::`scalar deleting destructor'
_TEXT	ENDS
; Function compile flags: /Odtp /RTCsu /ZI
; File D:\software_install\VS2019\VC\Tools\MSVC\14.26.28801\include\shared_mutex
;	COMDAT ?unlock_shared@shared_mutex@std@@QEAAXXZ
_TEXT	SEGMENT
this$ = 224
?unlock_shared@shared_mutex@std@@QEAAXXZ PROC		; std::shared_mutex::unlock_shared, COMDAT

; 61   :     void unlock_shared() noexcept /* strengthened */ { // unlock non-exclusive

$LN3:
	mov	QWORD PTR [rsp+8], rcx
	push	rbp
	push	rdi
	sub	rsp, 232				; 000000e8H
	lea	rbp, QWORD PTR [rsp+32]
	mov	rdi, rsp
	mov	ecx, 58					; 0000003aH
	mov	eax, -858993460				; ccccccccH
	rep stosd
	mov	rcx, QWORD PTR [rsp+264]
	lea	rcx, OFFSET FLAT:__DE6DF6A9_shared_mutex
	call	__CheckForDebuggerJustMyCode

; 62   :         _Smtx_unlock_shared(&_Myhandle);

	mov	rax, QWORD PTR this$[rbp]
	mov	rcx, rax
	call	_Smtx_unlock_shared
	npad	1

; 63   :     }

	lea	rsp, QWORD PTR [rbp+200]
	pop	rdi
	pop	rbp
	ret	0
?unlock_shared@shared_mutex@std@@QEAAXXZ ENDP		; std::shared_mutex::unlock_shared
_TEXT	ENDS
; Function compile flags: /Odtp /RTCsu /ZI
; File D:\software_install\VS2019\VC\Tools\MSVC\14.26.28801\include\shared_mutex
;	COMDAT ?lock_shared@shared_mutex@std@@QEAAXXZ
_TEXT	SEGMENT
this$ = 224
?lock_shared@shared_mutex@std@@QEAAXXZ PROC		; std::shared_mutex::lock_shared, COMDAT

; 53   :     void lock_shared() noexcept /* strengthened */ { // lock non-exclusive

$LN3:
	mov	QWORD PTR [rsp+8], rcx
	push	rbp
	push	rdi
	sub	rsp, 232				; 000000e8H
	lea	rbp, QWORD PTR [rsp+32]
	mov	rdi, rsp
	mov	ecx, 58					; 0000003aH
	mov	eax, -858993460				; ccccccccH
	rep stosd
	mov	rcx, QWORD PTR [rsp+264]
	lea	rcx, OFFSET FLAT:__DE6DF6A9_shared_mutex
	call	__CheckForDebuggerJustMyCode

; 54   :         _Smtx_lock_shared(&_Myhandle);

	mov	rax, QWORD PTR this$[rbp]
	mov	rcx, rax
	call	_Smtx_lock_shared
	npad	1

; 55   :     }

	lea	rsp, QWORD PTR [rbp+200]
	pop	rdi
	pop	rbp
	ret	0
?lock_shared@shared_mutex@std@@QEAAXXZ ENDP		; std::shared_mutex::lock_shared
_TEXT	ENDS
; Function compile flags: /Odtp /RTCsu /ZI
; File D:\software_install\VS2019\VC\Tools\MSVC\14.26.28801\include\shared_mutex
;	COMDAT ?unlock@shared_mutex@std@@QEAAXXZ
_TEXT	SEGMENT
this$ = 224
?unlock@shared_mutex@std@@QEAAXXZ PROC			; std::shared_mutex::unlock, COMDAT

; 49   :     void unlock() noexcept /* strengthened */ { // unlock exclusive

$LN3:
	mov	QWORD PTR [rsp+8], rcx
	push	rbp
	push	rdi
	sub	rsp, 232				; 000000e8H
	lea	rbp, QWORD PTR [rsp+32]
	mov	rdi, rsp
	mov	ecx, 58					; 0000003aH
	mov	eax, -858993460				; ccccccccH
	rep stosd
	mov	rcx, QWORD PTR [rsp+264]
	lea	rcx, OFFSET FLAT:__DE6DF6A9_shared_mutex
	call	__CheckForDebuggerJustMyCode

; 50   :         _Smtx_unlock_exclusive(&_Myhandle);

	mov	rax, QWORD PTR this$[rbp]
	mov	rcx, rax
	call	_Smtx_unlock_exclusive
	npad	1

; 51   :     }

	lea	rsp, QWORD PTR [rbp+200]
	pop	rdi
	pop	rbp
	ret	0
?unlock@shared_mutex@std@@QEAAXXZ ENDP			; std::shared_mutex::unlock
_TEXT	ENDS
; Function compile flags: /Odtp /RTCsu /ZI
; File D:\software_install\VS2019\VC\Tools\MSVC\14.26.28801\include\shared_mutex
;	COMDAT ?lock@shared_mutex@std@@QEAAXXZ
_TEXT	SEGMENT
this$ = 224
?lock@shared_mutex@std@@QEAAXXZ PROC			; std::shared_mutex::lock, COMDAT

; 41   :     void lock() noexcept /* strengthened */ { // lock exclusive

$LN3:
	mov	QWORD PTR [rsp+8], rcx
	push	rbp
	push	rdi
	sub	rsp, 232				; 000000e8H
	lea	rbp, QWORD PTR [rsp+32]
	mov	rdi, rsp
	mov	ecx, 58					; 0000003aH
	mov	eax, -858993460				; ccccccccH
	rep stosd
	mov	rcx, QWORD PTR [rsp+264]
	lea	rcx, OFFSET FLAT:__DE6DF6A9_shared_mutex
	call	__CheckForDebuggerJustMyCode

; 42   :         _Smtx_lock_exclusive(&_Myhandle);

	mov	rax, QWORD PTR this$[rbp]
	mov	rcx, rax
	call	_Smtx_lock_exclusive
	npad	1

; 43   :     }

	lea	rsp, QWORD PTR [rbp+200]
	pop	rdi
	pop	rbp
	ret	0
?lock@shared_mutex@std@@QEAAXXZ ENDP			; std::shared_mutex::lock
_TEXT	ENDS
; Function compile flags: /Odtp /RTCsu /ZI
; File D:\software_install\VS2019\VC\Tools\MSVC\14.26.28801\include\shared_mutex
;	COMDAT ??1shared_mutex@std@@QEAA@XZ
_TEXT	SEGMENT
this$ = 224
??1shared_mutex@std@@QEAA@XZ PROC			; std::shared_mutex::~shared_mutex, COMDAT

; 39   :     ~shared_mutex() noexcept {}

$LN3:
	mov	QWORD PTR [rsp+8], rcx
	push	rbp
	push	rdi
	sub	rsp, 232				; 000000e8H
	lea	rbp, QWORD PTR [rsp+32]
	mov	rdi, rsp
	mov	ecx, 58					; 0000003aH
	mov	eax, -858993460				; ccccccccH
	rep stosd
	mov	rcx, QWORD PTR [rsp+264]
	lea	rcx, OFFSET FLAT:__DE6DF6A9_shared_mutex
	call	__CheckForDebuggerJustMyCode
	npad	1
	lea	rsp, QWORD PTR [rbp+200]
	pop	rdi
	pop	rbp
	ret	0
??1shared_mutex@std@@QEAA@XZ ENDP			; std::shared_mutex::~shared_mutex
_TEXT	ENDS
; Function compile flags: /Odtp /RTCsu /ZI
; File D:\software_install\VS2019\VC\Tools\MSVC\14.26.28801\include\shared_mutex
;	COMDAT ??0shared_mutex@std@@QEAA@XZ
_TEXT	SEGMENT
this$ = 224
??0shared_mutex@std@@QEAA@XZ PROC			; std::shared_mutex::shared_mutex, COMDAT

; 36   :     shared_mutex() noexcept // strengthened

$LN3:
	mov	QWORD PTR [rsp+8], rcx
	push	rbp
	push	rdi
	sub	rsp, 232				; 000000e8H
	lea	rbp, QWORD PTR [rsp+32]
	mov	rdi, rsp
	mov	ecx, 58					; 0000003aH
	mov	eax, -858993460				; ccccccccH
	rep stosd
	mov	rcx, QWORD PTR [rsp+264]
	lea	rcx, OFFSET FLAT:__DE6DF6A9_shared_mutex
	call	__CheckForDebuggerJustMyCode

; 37   :         : _Myhandle(nullptr) {}

	mov	rax, QWORD PTR this$[rbp]
	mov	QWORD PTR [rax], 0
	mov	rax, QWORD PTR this$[rbp]
	lea	rsp, QWORD PTR [rbp+200]
	pop	rdi
	pop	rbp
	ret	0
??0shared_mutex@std@@QEAA@XZ ENDP			; std::shared_mutex::shared_mutex
_TEXT	ENDS
; Function compile flags: /Odtp /RTCsu /ZI
; File D:\software_install\VS2019\VC\Tools\MSVC\14.26.28801\include\mutex
;	COMDAT ?mutex@?$unique_lock@Vmutex@std@@@std@@QEBAPEAV02@XZ
_TEXT	SEGMENT
this$ = 224
?mutex@?$unique_lock@Vmutex@std@@@std@@QEBAPEAV02@XZ PROC ; std::unique_lock<std::mutex>::mutex, COMDAT

; 256  :     _NODISCARD _Mutex* mutex() const noexcept {

$LN3:
	mov	QWORD PTR [rsp+8], rcx
	push	rbp
	push	rdi
	sub	rsp, 232				; 000000e8H
	lea	rbp, QWORD PTR [rsp+32]
	mov	rdi, rsp
	mov	ecx, 58					; 0000003aH
	mov	eax, -858993460				; ccccccccH
	rep stosd
	mov	rcx, QWORD PTR [rsp+264]
	lea	rcx, OFFSET FLAT:__A01ABEDF_mutex
	call	__CheckForDebuggerJustMyCode

; 257  :         return _Pmtx;

	mov	rax, QWORD PTR this$[rbp]
	mov	rax, QWORD PTR [rax]

; 258  :     }

	lea	rsp, QWORD PTR [rbp+200]
	pop	rdi
	pop	rbp
	ret	0
?mutex@?$unique_lock@Vmutex@std@@@std@@QEBAPEAV02@XZ ENDP ; std::unique_lock<std::mutex>::mutex
_TEXT	ENDS
; Function compile flags: /Odtp /RTCsu /ZI
; File D:\software_install\VS2019\VC\Tools\MSVC\14.26.28801\include\mutex
;	COMDAT ?release@?$unique_lock@Vmutex@std@@@std@@QEAAPEAVmutex@2@XZ
_TEXT	SEGMENT
_Res$ = 8
this$ = 256
?release@?$unique_lock@Vmutex@std@@@std@@QEAAPEAVmutex@2@XZ PROC ; std::unique_lock<std::mutex>::release, COMDAT

; 241  :     _Mutex* release() noexcept {

$LN3:
	mov	QWORD PTR [rsp+8], rcx
	push	rbp
	push	rdi
	sub	rsp, 264				; 00000108H
	lea	rbp, QWORD PTR [rsp+32]
	mov	rdi, rsp
	mov	ecx, 66					; 00000042H
	mov	eax, -858993460				; ccccccccH
	rep stosd
	mov	rcx, QWORD PTR [rsp+296]
	lea	rcx, OFFSET FLAT:__A01ABEDF_mutex
	call	__CheckForDebuggerJustMyCode

; 242  :         _Mutex* _Res = _Pmtx;

	mov	rax, QWORD PTR this$[rbp]
	mov	rax, QWORD PTR [rax]
	mov	QWORD PTR _Res$[rbp], rax

; 243  :         _Pmtx        = nullptr;

	mov	rax, QWORD PTR this$[rbp]
	mov	QWORD PTR [rax], 0

; 244  :         _Owns        = false;

	mov	rax, QWORD PTR this$[rbp]
	mov	BYTE PTR [rax+8], 0

; 245  :         return _Res;

	mov	rax, QWORD PTR _Res$[rbp]

; 246  :     }

	lea	rsp, QWORD PTR [rbp+232]
	pop	rdi
	pop	rbp
	ret	0
?release@?$unique_lock@Vmutex@std@@@std@@QEAAPEAVmutex@2@XZ ENDP ; std::unique_lock<std::mutex>::release
_TEXT	ENDS
; Function compile flags: /Odtp /RTCsu /ZI
; File D:\software_install\VS2019\VC\Tools\MSVC\14.26.28801\include\mutex
;	COMDAT ??1?$unique_lock@Vmutex@std@@@std@@QEAA@XZ
_TEXT	SEGMENT
this$ = 224
??1?$unique_lock@Vmutex@std@@@std@@QEAA@XZ PROC		; std::unique_lock<std::mutex>::~unique_lock<std::mutex>, COMDAT

; 186  :     ~unique_lock() noexcept {

$LN4:
	mov	QWORD PTR [rsp+8], rcx
	push	rbp
	push	rdi
	sub	rsp, 232				; 000000e8H
	lea	rbp, QWORD PTR [rsp+32]
	mov	rdi, rsp
	mov	ecx, 58					; 0000003aH
	mov	eax, -858993460				; ccccccccH
	rep stosd
	mov	rcx, QWORD PTR [rsp+264]
	lea	rcx, OFFSET FLAT:__A01ABEDF_mutex
	call	__CheckForDebuggerJustMyCode

; 187  :         if (_Owns) {

	mov	rax, QWORD PTR this$[rbp]
	movzx	eax, BYTE PTR [rax+8]
	test	eax, eax
	je	SHORT $LN2@unique_loc

; 188  :             _Pmtx->unlock();

	mov	rax, QWORD PTR this$[rbp]
	mov	rcx, QWORD PTR [rax]
	call	?unlock@_Mutex_base@std@@QEAAXXZ	; std::_Mutex_base::unlock
	npad	1
$LN2@unique_loc:

; 189  :         }
; 190  :     }

	lea	rsp, QWORD PTR [rbp+200]
	pop	rdi
	pop	rbp
	ret	0
??1?$unique_lock@Vmutex@std@@@std@@QEAA@XZ ENDP		; std::unique_lock<std::mutex>::~unique_lock<std::mutex>
_TEXT	ENDS
; Function compile flags: /Odtp /RTCsu /ZI
; File D:\software_install\VS2019\VC\Tools\MSVC\14.26.28801\include\mutex
;	COMDAT ??0?$unique_lock@Vmutex@std@@@std@@QEAA@AEAVmutex@1@Uadopt_lock_t@1@@Z
_TEXT	SEGMENT
this$ = 224
_Mtx$ = 232
__formal$ = 240
??0?$unique_lock@Vmutex@std@@@std@@QEAA@AEAVmutex@1@Uadopt_lock_t@1@@Z PROC ; std::unique_lock<std::mutex>::unique_lock<std::mutex>, COMDAT

; 141  :         : _Pmtx(_STD addressof(_Mtx)), _Owns(true) { // construct and assume already locked

$LN3:
	mov	BYTE PTR [rsp+24], r8b
	mov	QWORD PTR [rsp+16], rdx
	mov	QWORD PTR [rsp+8], rcx
	push	rbp
	push	rdi
	sub	rsp, 232				; 000000e8H
	lea	rbp, QWORD PTR [rsp+32]
	mov	rdi, rsp
	mov	ecx, 58					; 0000003aH
	mov	eax, -858993460				; ccccccccH
	rep stosd
	mov	rcx, QWORD PTR [rsp+264]
	lea	rcx, OFFSET FLAT:__A01ABEDF_mutex
	call	__CheckForDebuggerJustMyCode
	mov	rcx, QWORD PTR _Mtx$[rbp]
	call	??$addressof@Vmutex@std@@@std@@YAPEAVmutex@0@AEAV10@@Z ; std::addressof<std::mutex>
	mov	rcx, QWORD PTR this$[rbp]
	mov	QWORD PTR [rcx], rax
	mov	rax, QWORD PTR this$[rbp]
	mov	BYTE PTR [rax+8], 1

; 142  :     }

	mov	rax, QWORD PTR this$[rbp]
	lea	rsp, QWORD PTR [rbp+200]
	pop	rdi
	pop	rbp
	ret	0
??0?$unique_lock@Vmutex@std@@@std@@QEAA@AEAVmutex@1@Uadopt_lock_t@1@@Z ENDP ; std::unique_lock<std::mutex>::unique_lock<std::mutex>
_TEXT	ENDS
; Function compile flags: /Odtp /RTCsu /ZI
;	COMDAT ??_Gcondition_variable@std@@QEAAPEAXI@Z
_TEXT	SEGMENT
this$ = 224
__flags$ = 232
??_Gcondition_variable@std@@QEAAPEAXI@Z PROC		; std::condition_variable::`scalar deleting destructor', COMDAT
$LN4:
	mov	DWORD PTR [rsp+16], edx
	mov	QWORD PTR [rsp+8], rcx
	push	rbp
	push	rdi
	sub	rsp, 232				; 000000e8H
	lea	rbp, QWORD PTR [rsp+32]
	mov	rdi, rsp
	mov	ecx, 58					; 0000003aH
	mov	eax, -858993460				; ccccccccH
	rep stosd
	mov	rcx, QWORD PTR [rsp+264]
	mov	rcx, QWORD PTR this$[rbp]
	call	??1condition_variable@std@@QEAA@XZ	; std::condition_variable::~condition_variable
	mov	eax, DWORD PTR __flags$[rbp]
	and	eax, 1
	test	eax, eax
	je	SHORT $LN2@scalar
	mov	edx, 72					; 00000048H
	mov	rcx, QWORD PTR this$[rbp]
	call	??3@YAXPEAX_K@Z				; operator delete
$LN2@scalar:
	mov	rax, QWORD PTR this$[rbp]
	lea	rsp, QWORD PTR [rbp+200]
	pop	rdi
	pop	rbp
	ret	0
??_Gcondition_variable@std@@QEAAPEAXI@Z ENDP		; std::condition_variable::`scalar deleting destructor'
_TEXT	ENDS
; Function compile flags: /Odtp /RTCsu /ZI
; File D:\software_install\VS2019\VC\Tools\MSVC\14.26.28801\include\mutex
;	COMDAT ?_Mycnd@condition_variable@std@@AEAAPEAU_Cnd_internal_imp_t@@XZ
_TEXT	SEGMENT
this$ = 224
?_Mycnd@condition_variable@std@@AEAAPEAU_Cnd_internal_imp_t@@XZ PROC ; std::condition_variable::_Mycnd, COMDAT

; 697  :     _Cnd_t _Mycnd() noexcept { // get pointer to _Cnd_internal_imp_t inside _Cnd_storage

$LN3:
	mov	QWORD PTR [rsp+8], rcx
	push	rbp
	push	rdi
	sub	rsp, 232				; 000000e8H
	lea	rbp, QWORD PTR [rsp+32]
	mov	rdi, rsp
	mov	ecx, 58					; 0000003aH
	mov	eax, -858993460				; ccccccccH
	rep stosd
	mov	rcx, QWORD PTR [rsp+264]
	lea	rcx, OFFSET FLAT:__A01ABEDF_mutex
	call	__CheckForDebuggerJustMyCode

; 698  :         return reinterpret_cast<_Cnd_t>(&_Cnd_storage);

	mov	rax, QWORD PTR this$[rbp]

; 699  :     }

	lea	rsp, QWORD PTR [rbp+200]
	pop	rdi
	pop	rbp
	ret	0
?_Mycnd@condition_variable@std@@AEAAPEAU_Cnd_internal_imp_t@@XZ ENDP ; std::condition_variable::_Mycnd
_TEXT	ENDS
; Function compile flags: /Odtp /RTCsu /ZI
; File D:\software_install\VS2019\VC\Tools\MSVC\14.26.28801\include\mutex
;	COMDAT ?wait@condition_variable@std@@QEAAXAEAV?$unique_lock@Vmutex@std@@@2@@Z
_TEXT	SEGMENT
tv73 = 192
this$ = 240
_Lck$ = 248
?wait@condition_variable@std@@QEAAXAEAV?$unique_lock@Vmutex@std@@@2@@Z PROC ; std::condition_variable::wait, COMDAT

; 596  :     void wait(unique_lock<mutex>& _Lck) { // wait for signal

$LN3:
	mov	QWORD PTR [rsp+16], rdx
	mov	QWORD PTR [rsp+8], rcx
	push	rbp
	push	rdi
	sub	rsp, 248				; 000000f8H
	lea	rbp, QWORD PTR [rsp+32]
	mov	rdi, rsp
	mov	ecx, 62					; 0000003eH
	mov	eax, -858993460				; ccccccccH
	rep stosd
	mov	rcx, QWORD PTR [rsp+280]
	lea	rcx, OFFSET FLAT:__A01ABEDF_mutex
	call	__CheckForDebuggerJustMyCode

; 597  :         // Nothing to do to comply with LWG-2135 because std::mutex lock/unlock are nothrow
; 598  :         _Check_C_return(_Cnd_wait(_Mycnd(), _Lck.mutex()->_Mymtx()));

	mov	rcx, QWORD PTR _Lck$[rbp]
	call	?mutex@?$unique_lock@Vmutex@std@@@std@@QEBAPEAV02@XZ ; std::unique_lock<std::mutex>::mutex
	mov	rcx, rax
	call	?_Mymtx@_Mutex_base@std@@AEAAPEAU_Mtx_internal_imp_t@@XZ ; std::_Mutex_base::_Mymtx
	mov	QWORD PTR tv73[rbp], rax
	mov	rcx, QWORD PTR this$[rbp]
	call	?_Mycnd@condition_variable@std@@AEAAPEAU_Cnd_internal_imp_t@@XZ ; std::condition_variable::_Mycnd
	mov	rcx, QWORD PTR tv73[rbp]
	mov	rdx, rcx
	mov	rcx, rax
	call	_Cnd_wait
	mov	ecx, eax
	call	?_Check_C_return@std@@YAHH@Z		; std::_Check_C_return

; 599  :     }

	lea	rsp, QWORD PTR [rbp+216]
	pop	rdi
	pop	rbp
	ret	0
?wait@condition_variable@std@@QEAAXAEAV?$unique_lock@Vmutex@std@@@2@@Z ENDP ; std::condition_variable::wait
_TEXT	ENDS
; Function compile flags: /Odtp /RTCsu /ZI
; File D:\software_install\VS2019\VC\Tools\MSVC\14.26.28801\include\mutex
;	COMDAT ?notify_all@condition_variable@std@@QEAAXXZ
_TEXT	SEGMENT
this$ = 224
?notify_all@condition_variable@std@@QEAAXXZ PROC	; std::condition_variable::notify_all, COMDAT

; 592  :     void notify_all() noexcept { // wake up all waiters

$LN3:
	mov	QWORD PTR [rsp+8], rcx
	push	rbp
	push	rdi
	sub	rsp, 232				; 000000e8H
	lea	rbp, QWORD PTR [rsp+32]
	mov	rdi, rsp
	mov	ecx, 58					; 0000003aH
	mov	eax, -858993460				; ccccccccH
	rep stosd
	mov	rcx, QWORD PTR [rsp+264]
	lea	rcx, OFFSET FLAT:__A01ABEDF_mutex
	call	__CheckForDebuggerJustMyCode

; 593  :         _Check_C_return(_Cnd_broadcast(_Mycnd()));

	mov	rcx, QWORD PTR this$[rbp]
	call	?_Mycnd@condition_variable@std@@AEAAPEAU_Cnd_internal_imp_t@@XZ ; std::condition_variable::_Mycnd
	mov	rcx, rax
	call	_Cnd_broadcast
	mov	ecx, eax
	call	?_Check_C_return@std@@YAHH@Z		; std::_Check_C_return
	npad	1

; 594  :     }

	lea	rsp, QWORD PTR [rbp+200]
	pop	rdi
	pop	rbp
	ret	0
?notify_all@condition_variable@std@@QEAAXXZ ENDP	; std::condition_variable::notify_all
_TEXT	ENDS
; Function compile flags: /Odtp /RTCsu /ZI
; File D:\software_install\VS2019\VC\Tools\MSVC\14.26.28801\include\mutex
;	COMDAT ?notify_one@condition_variable@std@@QEAAXXZ
_TEXT	SEGMENT
this$ = 224
?notify_one@condition_variable@std@@QEAAXXZ PROC	; std::condition_variable::notify_one, COMDAT

; 588  :     void notify_one() noexcept { // wake up one waiter

$LN3:
	mov	QWORD PTR [rsp+8], rcx
	push	rbp
	push	rdi
	sub	rsp, 232				; 000000e8H
	lea	rbp, QWORD PTR [rsp+32]
	mov	rdi, rsp
	mov	ecx, 58					; 0000003aH
	mov	eax, -858993460				; ccccccccH
	rep stosd
	mov	rcx, QWORD PTR [rsp+264]
	lea	rcx, OFFSET FLAT:__A01ABEDF_mutex
	call	__CheckForDebuggerJustMyCode

; 589  :         _Check_C_return(_Cnd_signal(_Mycnd()));

	mov	rcx, QWORD PTR this$[rbp]
	call	?_Mycnd@condition_variable@std@@AEAAPEAU_Cnd_internal_imp_t@@XZ ; std::condition_variable::_Mycnd
	mov	rcx, rax
	call	_Cnd_signal
	mov	ecx, eax
	call	?_Check_C_return@std@@YAHH@Z		; std::_Check_C_return
	npad	1

; 590  :     }

	lea	rsp, QWORD PTR [rbp+200]
	pop	rdi
	pop	rbp
	ret	0
?notify_one@condition_variable@std@@QEAAXXZ ENDP	; std::condition_variable::notify_one
_TEXT	ENDS
; Function compile flags: /Odtp /RTCsu /ZI
; File D:\software_install\VS2019\VC\Tools\MSVC\14.26.28801\include\mutex
;	COMDAT ??1condition_variable@std@@QEAA@XZ
_TEXT	SEGMENT
this$ = 224
??1condition_variable@std@@QEAA@XZ PROC			; std::condition_variable::~condition_variable, COMDAT

; 581  :     ~condition_variable() noexcept {

$LN3:
	mov	QWORD PTR [rsp+8], rcx
	push	rbp
	push	rdi
	sub	rsp, 232				; 000000e8H
	lea	rbp, QWORD PTR [rsp+32]
	mov	rdi, rsp
	mov	ecx, 58					; 0000003aH
	mov	eax, -858993460				; ccccccccH
	rep stosd
	mov	rcx, QWORD PTR [rsp+264]
	lea	rcx, OFFSET FLAT:__A01ABEDF_mutex
	call	__CheckForDebuggerJustMyCode

; 582  :         _Cnd_destroy_in_situ(_Mycnd());

	mov	rcx, QWORD PTR this$[rbp]
	call	?_Mycnd@condition_variable@std@@AEAAPEAU_Cnd_internal_imp_t@@XZ ; std::condition_variable::_Mycnd
	mov	rcx, rax
	call	_Cnd_destroy_in_situ
	npad	1

; 583  :     }

	lea	rsp, QWORD PTR [rbp+200]
	pop	rdi
	pop	rbp
	ret	0
??1condition_variable@std@@QEAA@XZ ENDP			; std::condition_variable::~condition_variable
_TEXT	ENDS
; Function compile flags: /Odtp /RTCsu /ZI
; File D:\software_install\VS2019\VC\Tools\MSVC\14.26.28801\include\mutex
;	COMDAT ??0condition_variable@std@@QEAA@XZ
_TEXT	SEGMENT
this$ = 224
??0condition_variable@std@@QEAA@XZ PROC			; std::condition_variable::condition_variable, COMDAT

; 577  :     condition_variable() {

$LN3:
	mov	QWORD PTR [rsp+8], rcx
	push	rbp
	push	rdi
	sub	rsp, 232				; 000000e8H
	lea	rbp, QWORD PTR [rsp+32]
	mov	rdi, rsp
	mov	ecx, 58					; 0000003aH
	mov	eax, -858993460				; ccccccccH
	rep stosd
	mov	rcx, QWORD PTR [rsp+264]
	lea	rcx, OFFSET FLAT:__A01ABEDF_mutex
	call	__CheckForDebuggerJustMyCode

; 578  :         _Cnd_init_in_situ(_Mycnd());

	mov	rcx, QWORD PTR this$[rbp]
	call	?_Mycnd@condition_variable@std@@AEAAPEAU_Cnd_internal_imp_t@@XZ ; std::condition_variable::_Mycnd
	mov	rcx, rax
	call	_Cnd_init_in_situ

; 579  :     }

	mov	rax, QWORD PTR this$[rbp]
	lea	rsp, QWORD PTR [rbp+200]
	pop	rdi
	pop	rbp
	ret	0
??0condition_variable@std@@QEAA@XZ ENDP			; std::condition_variable::condition_variable
_TEXT	ENDS
; Function compile flags: /Odtp /RTCsu /ZI
;	COMDAT ??_Gmutex@std@@QEAAPEAXI@Z
_TEXT	SEGMENT
this$ = 224
__flags$ = 232
??_Gmutex@std@@QEAAPEAXI@Z PROC				; std::mutex::`scalar deleting destructor', COMDAT
$LN4:
	mov	DWORD PTR [rsp+16], edx
	mov	QWORD PTR [rsp+8], rcx
	push	rbp
	push	rdi
	sub	rsp, 232				; 000000e8H
	lea	rbp, QWORD PTR [rsp+32]
	mov	rdi, rsp
	mov	ecx, 58					; 0000003aH
	mov	eax, -858993460				; ccccccccH
	rep stosd
	mov	rcx, QWORD PTR [rsp+264]
	mov	rcx, QWORD PTR this$[rbp]
	call	??1mutex@std@@QEAA@XZ
	mov	eax, DWORD PTR __flags$[rbp]
	and	eax, 1
	test	eax, eax
	je	SHORT $LN2@scalar
	mov	edx, 80					; 00000050H
	mov	rcx, QWORD PTR this$[rbp]
	call	??3@YAXPEAX_K@Z				; operator delete
$LN2@scalar:
	mov	rax, QWORD PTR this$[rbp]
	lea	rsp, QWORD PTR [rbp+200]
	pop	rdi
	pop	rbp
	ret	0
??_Gmutex@std@@QEAAPEAXI@Z ENDP				; std::mutex::`scalar deleting destructor'
_TEXT	ENDS
; Function compile flags: /Odtp /RTCsu /ZI
;	COMDAT ??1mutex@std@@QEAA@XZ
_TEXT	SEGMENT
this$ = 224
??1mutex@std@@QEAA@XZ PROC				; std::mutex::~mutex, COMDAT
$LN3:
	mov	QWORD PTR [rsp+8], rcx
	push	rbp
	push	rdi
	sub	rsp, 232				; 000000e8H
	lea	rbp, QWORD PTR [rsp+32]
	mov	rdi, rsp
	mov	ecx, 58					; 0000003aH
	mov	eax, -858993460				; ccccccccH
	rep stosd
	mov	rcx, QWORD PTR [rsp+264]
	mov	rcx, QWORD PTR this$[rbp]
	call	??1_Mutex_base@std@@QEAA@XZ		; std::_Mutex_base::~_Mutex_base
	lea	rsp, QWORD PTR [rbp+200]
	pop	rdi
	pop	rbp
	ret	0
??1mutex@std@@QEAA@XZ ENDP				; std::mutex::~mutex
_TEXT	ENDS
; Function compile flags: /Odtp /RTCsu /ZI
; File D:\software_install\VS2019\VC\Tools\MSVC\14.26.28801\include\mutex
;	COMDAT ??0mutex@std@@QEAA@XZ
_TEXT	SEGMENT
this$ = 224
??0mutex@std@@QEAA@XZ PROC				; std::mutex::mutex, COMDAT

; 89   :     /* constexpr */ mutex() noexcept // TRANSITION, ABI

$LN3:
	mov	QWORD PTR [rsp+8], rcx
	push	rbp
	push	rdi
	sub	rsp, 232				; 000000e8H
	lea	rbp, QWORD PTR [rsp+32]
	mov	rdi, rsp
	mov	ecx, 58					; 0000003aH
	mov	eax, -858993460				; ccccccccH
	rep stosd
	mov	rcx, QWORD PTR [rsp+264]
	lea	rcx, OFFSET FLAT:__A01ABEDF_mutex
	call	__CheckForDebuggerJustMyCode

; 90   :         : _Mutex_base() {}

	xor	edx, edx
	mov	rcx, QWORD PTR this$[rbp]
	call	??0_Mutex_base@std@@QEAA@H@Z		; std::_Mutex_base::_Mutex_base
	mov	rax, QWORD PTR this$[rbp]
	lea	rsp, QWORD PTR [rbp+200]
	pop	rdi
	pop	rbp
	ret	0
??0mutex@std@@QEAA@XZ ENDP				; std::mutex::mutex
_TEXT	ENDS
; Function compile flags: /Odtp /RTCsu /ZI
; File D:\software_install\VS2019\VC\Tools\MSVC\14.26.28801\include\mutex
;	COMDAT ?_Mymtx@_Mutex_base@std@@AEAAPEAU_Mtx_internal_imp_t@@XZ
_TEXT	SEGMENT
this$ = 224
?_Mymtx@_Mutex_base@std@@AEAAPEAU_Mtx_internal_imp_t@@XZ PROC ; std::_Mutex_base::_Mymtx, COMDAT

; 82   :     _Mtx_t _Mymtx() noexcept { // get pointer to _Mtx_internal_imp_t inside _Mtx_storage

$LN3:
	mov	QWORD PTR [rsp+8], rcx
	push	rbp
	push	rdi
	sub	rsp, 232				; 000000e8H
	lea	rbp, QWORD PTR [rsp+32]
	mov	rdi, rsp
	mov	ecx, 58					; 0000003aH
	mov	eax, -858993460				; ccccccccH
	rep stosd
	mov	rcx, QWORD PTR [rsp+264]
	lea	rcx, OFFSET FLAT:__A01ABEDF_mutex
	call	__CheckForDebuggerJustMyCode

; 83   :         return reinterpret_cast<_Mtx_t>(&_Mtx_storage);

	mov	rax, QWORD PTR this$[rbp]

; 84   :     }

	lea	rsp, QWORD PTR [rbp+200]
	pop	rdi
	pop	rbp
	ret	0
?_Mymtx@_Mutex_base@std@@AEAAPEAU_Mtx_internal_imp_t@@XZ ENDP ; std::_Mutex_base::_Mymtx
_TEXT	ENDS
; Function compile flags: /Odtp /RTCsu /ZI
; File D:\software_install\VS2019\VC\Tools\MSVC\14.26.28801\include\mutex
;	COMDAT ?unlock@_Mutex_base@std@@QEAAXXZ
_TEXT	SEGMENT
this$ = 224
?unlock@_Mutex_base@std@@QEAAXXZ PROC			; std::_Mutex_base::unlock, COMDAT

; 66   :     void unlock() {

$LN3:
	mov	QWORD PTR [rsp+8], rcx
	push	rbp
	push	rdi
	sub	rsp, 232				; 000000e8H
	lea	rbp, QWORD PTR [rsp+32]
	mov	rdi, rsp
	mov	ecx, 58					; 0000003aH
	mov	eax, -858993460				; ccccccccH
	rep stosd
	mov	rcx, QWORD PTR [rsp+264]
	lea	rcx, OFFSET FLAT:__A01ABEDF_mutex
	call	__CheckForDebuggerJustMyCode

; 67   :         _Check_C_return(_Mtx_unlock(_Mymtx()));

	mov	rcx, QWORD PTR this$[rbp]
	call	?_Mymtx@_Mutex_base@std@@AEAAPEAU_Mtx_internal_imp_t@@XZ ; std::_Mutex_base::_Mymtx
	mov	rcx, rax
	call	_Mtx_unlock
	mov	ecx, eax
	call	?_Check_C_return@std@@YAHH@Z		; std::_Check_C_return

; 68   :     }

	lea	rsp, QWORD PTR [rbp+200]
	pop	rdi
	pop	rbp
	ret	0
?unlock@_Mutex_base@std@@QEAAXXZ ENDP			; std::_Mutex_base::unlock
_TEXT	ENDS
; Function compile flags: /Odtp /RTCsu /ZI
; File D:\software_install\VS2019\VC\Tools\MSVC\14.26.28801\include\mutex
;	COMDAT ?lock@_Mutex_base@std@@QEAAXXZ
_TEXT	SEGMENT
this$ = 224
?lock@_Mutex_base@std@@QEAAXXZ PROC			; std::_Mutex_base::lock, COMDAT

; 50   :     void lock() {

$LN3:
	mov	QWORD PTR [rsp+8], rcx
	push	rbp
	push	rdi
	sub	rsp, 232				; 000000e8H
	lea	rbp, QWORD PTR [rsp+32]
	mov	rdi, rsp
	mov	ecx, 58					; 0000003aH
	mov	eax, -858993460				; ccccccccH
	rep stosd
	mov	rcx, QWORD PTR [rsp+264]
	lea	rcx, OFFSET FLAT:__A01ABEDF_mutex
	call	__CheckForDebuggerJustMyCode

; 51   :         _Check_C_return(_Mtx_lock(_Mymtx()));

	mov	rcx, QWORD PTR this$[rbp]
	call	?_Mymtx@_Mutex_base@std@@AEAAPEAU_Mtx_internal_imp_t@@XZ ; std::_Mutex_base::_Mymtx
	mov	rcx, rax
	call	_Mtx_lock
	mov	ecx, eax
	call	?_Check_C_return@std@@YAHH@Z		; std::_Check_C_return

; 52   :     }

	lea	rsp, QWORD PTR [rbp+200]
	pop	rdi
	pop	rbp
	ret	0
?lock@_Mutex_base@std@@QEAAXXZ ENDP			; std::_Mutex_base::lock
_TEXT	ENDS
; Function compile flags: /Odtp /RTCsu /ZI
; File D:\software_install\VS2019\VC\Tools\MSVC\14.26.28801\include\mutex
;	COMDAT ??1_Mutex_base@std@@QEAA@XZ
_TEXT	SEGMENT
this$ = 224
??1_Mutex_base@std@@QEAA@XZ PROC			; std::_Mutex_base::~_Mutex_base, COMDAT

; 43   :     ~_Mutex_base() noexcept {

$LN3:
	mov	QWORD PTR [rsp+8], rcx
	push	rbp
	push	rdi
	sub	rsp, 232				; 000000e8H
	lea	rbp, QWORD PTR [rsp+32]
	mov	rdi, rsp
	mov	ecx, 58					; 0000003aH
	mov	eax, -858993460				; ccccccccH
	rep stosd
	mov	rcx, QWORD PTR [rsp+264]
	lea	rcx, OFFSET FLAT:__A01ABEDF_mutex
	call	__CheckForDebuggerJustMyCode

; 44   :         _Mtx_destroy_in_situ(_Mymtx());

	mov	rcx, QWORD PTR this$[rbp]
	call	?_Mymtx@_Mutex_base@std@@AEAAPEAU_Mtx_internal_imp_t@@XZ ; std::_Mutex_base::_Mymtx
	mov	rcx, rax
	call	_Mtx_destroy_in_situ
	npad	1

; 45   :     }

	lea	rsp, QWORD PTR [rbp+200]
	pop	rdi
	pop	rbp
	ret	0
??1_Mutex_base@std@@QEAA@XZ ENDP			; std::_Mutex_base::~_Mutex_base
_TEXT	ENDS
; Function compile flags: /Odtp /RTCsu /ZI
; File D:\software_install\VS2019\VC\Tools\MSVC\14.26.28801\include\mutex
;	COMDAT ??0_Mutex_base@std@@QEAA@H@Z
_TEXT	SEGMENT
tv64 = 192
this$ = 240
_Flags$ = 248
??0_Mutex_base@std@@QEAA@H@Z PROC			; std::_Mutex_base::_Mutex_base, COMDAT

; 39   :     _Mutex_base(int _Flags = 0) noexcept {

$LN3:
	mov	DWORD PTR [rsp+16], edx
	mov	QWORD PTR [rsp+8], rcx
	push	rbp
	push	rdi
	sub	rsp, 248				; 000000f8H
	lea	rbp, QWORD PTR [rsp+32]
	mov	rdi, rsp
	mov	ecx, 62					; 0000003eH
	mov	eax, -858993460				; ccccccccH
	rep stosd
	mov	rcx, QWORD PTR [rsp+280]
	lea	rcx, OFFSET FLAT:__A01ABEDF_mutex
	call	__CheckForDebuggerJustMyCode

; 40   :         _Mtx_init_in_situ(_Mymtx(), _Flags | _Mtx_try);

	mov	eax, DWORD PTR _Flags$[rbp]
	or	eax, 2
	mov	DWORD PTR tv64[rbp], eax
	mov	rcx, QWORD PTR this$[rbp]
	call	?_Mymtx@_Mutex_base@std@@AEAAPEAU_Mtx_internal_imp_t@@XZ ; std::_Mutex_base::_Mymtx
	mov	ecx, DWORD PTR tv64[rbp]
	mov	edx, ecx
	mov	rcx, rax
	call	_Mtx_init_in_situ

; 41   :     }

	mov	rax, QWORD PTR this$[rbp]
	lea	rsp, QWORD PTR [rbp+216]
	pop	rdi
	pop	rbp
	ret	0
??0_Mutex_base@std@@QEAA@H@Z ENDP			; std::_Mutex_base::_Mutex_base
_TEXT	ENDS
; Function compile flags: /Odtp /RTCsu /ZI
;	COMDAT ??_Gthread@std@@QEAAPEAXI@Z
_TEXT	SEGMENT
this$ = 224
__flags$ = 232
??_Gthread@std@@QEAAPEAXI@Z PROC			; std::thread::`scalar deleting destructor', COMDAT
$LN4:
	mov	DWORD PTR [rsp+16], edx
	mov	QWORD PTR [rsp+8], rcx
	push	rbp
	push	rdi
	sub	rsp, 232				; 000000e8H
	lea	rbp, QWORD PTR [rsp+32]
	mov	rdi, rsp
	mov	ecx, 58					; 0000003aH
	mov	eax, -858993460				; ccccccccH
	rep stosd
	mov	rcx, QWORD PTR [rsp+264]
	mov	rcx, QWORD PTR this$[rbp]
	call	??1thread@std@@QEAA@XZ			; std::thread::~thread
	mov	eax, DWORD PTR __flags$[rbp]
	and	eax, 1
	test	eax, eax
	je	SHORT $LN2@scalar
	mov	edx, 16
	mov	rcx, QWORD PTR this$[rbp]
	call	??3@YAXPEAX_K@Z				; operator delete
$LN2@scalar:
	mov	rax, QWORD PTR this$[rbp]
	lea	rsp, QWORD PTR [rbp+200]
	pop	rdi
	pop	rbp
	ret	0
??_Gthread@std@@QEAAPEAXI@Z ENDP			; std::thread::`scalar deleting destructor'
_TEXT	ENDS
; Function compile flags: /Odtp /RTCsu /ZI
; File D:\software_install\VS2019\VC\Tools\MSVC\14.26.28801\include\thread
;	COMDAT ?join@thread@std@@QEAAXXZ
_TEXT	SEGMENT
$T1 = 200
$T2 = 256
this$ = 320
?join@thread@std@@QEAAXXZ PROC				; std::thread::join, COMDAT

; 104  :     void join() {

$LN6:
	mov	QWORD PTR [rsp+8], rcx
	push	rbp
	push	rsi
	push	rdi
	sub	rsp, 320				; 00000140H
	lea	rbp, QWORD PTR [rsp+32]
	mov	rdi, rsp
	mov	ecx, 80					; 00000050H
	mov	eax, -858993460				; ccccccccH
	rep stosd
	mov	rcx, QWORD PTR [rsp+360]
	lea	rcx, OFFSET FLAT:__5ED1861E_thread
	call	__CheckForDebuggerJustMyCode

; 105  :         if (!joinable()) {

	mov	rcx, QWORD PTR this$[rbp]
	call	?joinable@thread@std@@QEBA_NXZ		; std::thread::joinable
	movzx	eax, al
	test	eax, eax
	jne	SHORT $LN2@join

; 106  :             _Throw_Cpp_error(_INVALID_ARGUMENT);

	mov	ecx, 1
	call	?_Throw_Cpp_error@std@@YAXH@Z		; std::_Throw_Cpp_error
$LN2@join:

; 107  :         }
; 108  : 
; 109  :         if (_Thr._Id == _Thrd_id()) {

	call	_Thrd_id
	mov	rcx, QWORD PTR this$[rbp]
	cmp	DWORD PTR [rcx+8], eax
	jne	SHORT $LN3@join

; 110  :             _Throw_Cpp_error(_RESOURCE_DEADLOCK_WOULD_OCCUR);

	mov	ecx, 5
	call	?_Throw_Cpp_error@std@@YAXH@Z		; std::_Throw_Cpp_error
$LN3@join:

; 111  :         }
; 112  : 
; 113  :         if (_Thrd_join(_Thr, nullptr) != _Thrd_success) {

	lea	rax, QWORD PTR $T2[rbp]
	mov	rdi, rax
	mov	rsi, QWORD PTR this$[rbp]
	mov	ecx, 16
	rep movsb
	xor	edx, edx
	lea	rcx, QWORD PTR $T2[rbp]
	call	_Thrd_join
	test	eax, eax
	je	SHORT $LN4@join

; 114  :             _Throw_Cpp_error(_NO_SUCH_PROCESS);

	mov	ecx, 2
	call	?_Throw_Cpp_error@std@@YAXH@Z		; std::_Throw_Cpp_error
$LN4@join:

; 115  :         }
; 116  : 
; 117  :         _Thr = {};

	lea	rax, QWORD PTR $T1[rbp]
	mov	rdi, rax
	xor	eax, eax
	mov	ecx, 16
	rep stosb
	lea	rax, QWORD PTR $T1[rbp]
	mov	rdi, QWORD PTR this$[rbp]
	mov	rsi, rax
	mov	ecx, 16
	rep movsb
$LN5@join:

; 118  :     }

	lea	rsp, QWORD PTR [rbp+288]
	pop	rdi
	pop	rsi
	pop	rbp
	ret	0
?join@thread@std@@QEAAXXZ ENDP				; std::thread::join
_TEXT	ENDS
; Function compile flags: /Odtp /RTCsu /ZI
; File D:\software_install\VS2019\VC\Tools\MSVC\14.26.28801\include\thread
;	COMDAT ?joinable@thread@std@@QEBA_NXZ
_TEXT	SEGMENT
tv67 = 192
this$ = 240
?joinable@thread@std@@QEBA_NXZ PROC			; std::thread::joinable, COMDAT

; 100  :     _NODISCARD bool joinable() const noexcept {

$LN5:
	mov	QWORD PTR [rsp+8], rcx
	push	rbp
	push	rdi
	sub	rsp, 248				; 000000f8H
	lea	rbp, QWORD PTR [rsp+32]
	mov	rdi, rsp
	mov	ecx, 62					; 0000003eH
	mov	eax, -858993460				; ccccccccH
	rep stosd
	mov	rcx, QWORD PTR [rsp+280]
	lea	rcx, OFFSET FLAT:__5ED1861E_thread
	call	__CheckForDebuggerJustMyCode

; 101  :         return _Thr._Id != 0;

	mov	rax, QWORD PTR this$[rbp]
	cmp	DWORD PTR [rax+8], 0
	je	SHORT $LN3@joinable
	mov	DWORD PTR tv67[rbp], 1
	jmp	SHORT $LN4@joinable
$LN3@joinable:
	mov	DWORD PTR tv67[rbp], 0
$LN4@joinable:
	movzx	eax, BYTE PTR tv67[rbp]

; 102  :     }

	lea	rsp, QWORD PTR [rbp+216]
	pop	rdi
	pop	rbp
	ret	0
?joinable@thread@std@@QEBA_NXZ ENDP			; std::thread::joinable
_TEXT	ENDS
; Function compile flags: /Odtp /RTCsu /ZI
; File D:\software_install\VS2019\VC\Tools\MSVC\14.26.28801\include\thread
;	COMDAT ??1thread@std@@QEAA@XZ
_TEXT	SEGMENT
this$ = 224
??1thread@std@@QEAA@XZ PROC				; std::thread::~thread, COMDAT

; 76   :     ~thread() noexcept {

$LN5:
	mov	QWORD PTR [rsp+8], rcx
	push	rbp
	push	rdi
	sub	rsp, 232				; 000000e8H
	lea	rbp, QWORD PTR [rsp+32]
	mov	rdi, rsp
	mov	ecx, 58					; 0000003aH
	mov	eax, -858993460				; ccccccccH
	rep stosd
	mov	rcx, QWORD PTR [rsp+264]
	lea	rcx, OFFSET FLAT:__5ED1861E_thread
	call	__CheckForDebuggerJustMyCode

; 77   :         if (joinable()) {

	mov	rcx, QWORD PTR this$[rbp]
	call	?joinable@thread@std@@QEBA_NXZ		; std::thread::joinable
	movzx	eax, al
	test	eax, eax
	je	SHORT $LN3@thread

; 78   :             _STD terminate();

	call	QWORD PTR __imp_terminate
	npad	1
$LN3@thread:

; 79   :         }
; 80   :     }

	lea	rsp, QWORD PTR [rbp+200]
	pop	rdi
	pop	rbp
	ret	0
$LN4@thread:
??1thread@std@@QEAA@XZ ENDP				; std::thread::~thread
_TEXT	ENDS
; Function compile flags: /Odtp /RTCsu /ZI
; File D:\software_install\VS2019\VC\Tools\MSVC\14.26.28801\include\xthreads.h
;	COMDAT ?_Check_C_return@std@@YAHH@Z
_TEXT	SEGMENT
_Res$ = 224
?_Check_C_return@std@@YAHH@Z PROC			; std::_Check_C_return, COMDAT

; 129  : inline int _Check_C_return(int _Res) { // throw exception on failure

$LN4:
	mov	DWORD PTR [rsp+8], ecx
	push	rbp
	push	rdi
	sub	rsp, 232				; 000000e8H
	lea	rbp, QWORD PTR [rsp+32]
	mov	rdi, rsp
	mov	ecx, 58					; 0000003aH
	mov	eax, -858993460				; ccccccccH
	rep stosd
	mov	ecx, DWORD PTR [rsp+264]
	lea	rcx, OFFSET FLAT:__A7A88A06_xthreads@h
	call	__CheckForDebuggerJustMyCode

; 130  :     if (_Res != _Thrd_success) {

	cmp	DWORD PTR _Res$[rbp], 0
	je	SHORT $LN2@Check_C_re

; 131  :         _Throw_C_error(_Res);

	mov	ecx, DWORD PTR _Res$[rbp]
	call	?_Throw_C_error@std@@YAXH@Z		; std::_Throw_C_error
$LN2@Check_C_re:

; 132  :     }
; 133  : 
; 134  :     return _Res;

	mov	eax, DWORD PTR _Res$[rbp]
$LN3@Check_C_re:

; 135  : }

	lea	rsp, QWORD PTR [rbp+200]
	pop	rdi
	pop	rbp
	ret	0
?_Check_C_return@std@@YAHH@Z ENDP			; std::_Check_C_return
_TEXT	ENDS
; Function compile flags: /Odtp /RTCsu /ZI
; File C:\Users\84038\Desktop\video_codec_thread_test\src\threadwrapper\src\pthread.cpp
;	COMDAT pthread_rwlock_unlock
_TEXT	SEGMENT
rwlock$ = 224
pthread_rwlock_unlock PROC				; COMDAT

; 124  : {

$LN5:
	mov	QWORD PTR [rsp+8], rcx
	push	rbp
	push	rdi
	sub	rsp, 232				; 000000e8H
	lea	rbp, QWORD PTR [rsp+32]
	mov	rdi, rsp
	mov	ecx, 58					; 0000003aH
	mov	eax, -858993460				; ccccccccH
	rep stosd
	mov	rcx, QWORD PTR [rsp+264]
	lea	rcx, OFFSET FLAT:__F047FC90_pthread@cpp
	call	__CheckForDebuggerJustMyCode

; 125  :   if (static_cast<rw_lock_internal*>(*rwlock)->write_lock) {

	mov	rax, QWORD PTR rwlock$[rbp]
	mov	rax, QWORD PTR [rax]
	movzx	eax, BYTE PTR [rax+8]
	test	eax, eax
	je	SHORT $LN2@pthread_rw

; 126  :     static_cast<rw_lock_internal*>(*rwlock)->write_lock = false;

	mov	rax, QWORD PTR rwlock$[rbp]
	mov	rax, QWORD PTR [rax]
	mov	BYTE PTR [rax+8], 0

; 127  :     static_cast<rw_lock_internal*>(*rwlock)->lock->unlock();

	mov	rax, QWORD PTR rwlock$[rbp]
	mov	rax, QWORD PTR [rax]
	mov	rcx, QWORD PTR [rax]
	call	?unlock@shared_mutex@std@@QEAAXXZ	; std::shared_mutex::unlock

; 128  :   }

	jmp	SHORT $LN3@pthread_rw
$LN2@pthread_rw:

; 129  :   else {
; 130  :     static_cast<rw_lock_internal*>(*rwlock)->lock->unlock_shared();

	mov	rax, QWORD PTR rwlock$[rbp]
	mov	rax, QWORD PTR [rax]
	mov	rcx, QWORD PTR [rax]
	call	?unlock_shared@shared_mutex@std@@QEAAXXZ ; std::shared_mutex::unlock_shared
$LN3@pthread_rw:

; 131  :   }
; 132  :   return 0;

	xor	eax, eax

; 133  : }

	lea	rsp, QWORD PTR [rbp+200]
	pop	rdi
	pop	rbp
	ret	0
pthread_rwlock_unlock ENDP
_TEXT	ENDS
; Function compile flags: /Odtp /RTCsu /ZI
; File C:\Users\84038\Desktop\video_codec_thread_test\src\threadwrapper\src\pthread.cpp
;	COMDAT pthread_rwlock_wrlock
_TEXT	SEGMENT
rwlock$ = 224
pthread_rwlock_wrlock PROC				; COMDAT

; 117  : {

$LN3:
	mov	QWORD PTR [rsp+8], rcx
	push	rbp
	push	rdi
	sub	rsp, 232				; 000000e8H
	lea	rbp, QWORD PTR [rsp+32]
	mov	rdi, rsp
	mov	ecx, 58					; 0000003aH
	mov	eax, -858993460				; ccccccccH
	rep stosd
	mov	rcx, QWORD PTR [rsp+264]
	lea	rcx, OFFSET FLAT:__F047FC90_pthread@cpp
	call	__CheckForDebuggerJustMyCode

; 118  :   static_cast<rw_lock_internal*>(*rwlock)->lock->lock();

	mov	rax, QWORD PTR rwlock$[rbp]
	mov	rax, QWORD PTR [rax]
	mov	rcx, QWORD PTR [rax]
	call	?lock@shared_mutex@std@@QEAAXXZ		; std::shared_mutex::lock

; 119  :   static_cast<rw_lock_internal*>(*rwlock)->write_lock = true;

	mov	rax, QWORD PTR rwlock$[rbp]
	mov	rax, QWORD PTR [rax]
	mov	BYTE PTR [rax+8], 1

; 120  :   return 0;

	xor	eax, eax

; 121  : }

	lea	rsp, QWORD PTR [rbp+200]
	pop	rdi
	pop	rbp
	ret	0
pthread_rwlock_wrlock ENDP
_TEXT	ENDS
; Function compile flags: /Odtp /RTCsu /ZI
; File C:\Users\84038\Desktop\video_codec_thread_test\src\threadwrapper\src\pthread.cpp
;	COMDAT pthread_rwlock_rdlock
_TEXT	SEGMENT
rwlock$ = 224
pthread_rwlock_rdlock PROC				; COMDAT

; 111  : {

$LN3:
	mov	QWORD PTR [rsp+8], rcx
	push	rbp
	push	rdi
	sub	rsp, 232				; 000000e8H
	lea	rbp, QWORD PTR [rsp+32]
	mov	rdi, rsp
	mov	ecx, 58					; 0000003aH
	mov	eax, -858993460				; ccccccccH
	rep stosd
	mov	rcx, QWORD PTR [rsp+264]
	lea	rcx, OFFSET FLAT:__F047FC90_pthread@cpp
	call	__CheckForDebuggerJustMyCode

; 112  :   static_cast<rw_lock_internal*>(*rwlock)->lock->lock_shared();

	mov	rax, QWORD PTR rwlock$[rbp]
	mov	rax, QWORD PTR [rax]
	mov	rcx, QWORD PTR [rax]
	call	?lock_shared@shared_mutex@std@@QEAAXXZ	; std::shared_mutex::lock_shared

; 113  :   return 0;

	xor	eax, eax

; 114  : }

	lea	rsp, QWORD PTR [rbp+200]
	pop	rdi
	pop	rbp
	ret	0
pthread_rwlock_rdlock ENDP
_TEXT	ENDS
; Function compile flags: /Odtp /RTCsu /ZI
; File C:\Users\84038\Desktop\video_codec_thread_test\src\threadwrapper\src\pthread.cpp
;	COMDAT pthread_rwlock_destroy
_TEXT	SEGMENT
$T1 = 200
$T2 = 232
tv69 = 248
rwlock$ = 288
pthread_rwlock_destroy PROC				; COMDAT

; 104  : {

$LN5:
	mov	QWORD PTR [rsp+8], rcx
	push	rbp
	push	rdi
	sub	rsp, 296				; 00000128H
	lea	rbp, QWORD PTR [rsp+32]
	mov	rdi, rsp
	mov	ecx, 74					; 0000004aH
	mov	eax, -858993460				; ccccccccH
	rep stosd
	mov	rcx, QWORD PTR [rsp+328]
	lea	rcx, OFFSET FLAT:__F047FC90_pthread@cpp
	call	__CheckForDebuggerJustMyCode

; 105  :   delete static_cast<rw_lock_internal*>(*rwlock)->lock;

	mov	rax, QWORD PTR rwlock$[rbp]
	mov	rax, QWORD PTR [rax]
	mov	rax, QWORD PTR [rax]
	mov	QWORD PTR $T1[rbp], rax
	cmp	QWORD PTR $T1[rbp], 0
	je	SHORT $LN3@pthread_rw
	mov	edx, 1
	mov	rcx, QWORD PTR $T1[rbp]
	call	??_Gshared_mutex@std@@QEAAPEAXI@Z
	mov	QWORD PTR tv69[rbp], rax
	jmp	SHORT $LN4@pthread_rw
$LN3@pthread_rw:
	mov	QWORD PTR tv69[rbp], 0
$LN4@pthread_rw:

; 106  :   delete static_cast<rw_lock_internal*>(*rwlock);

	mov	rax, QWORD PTR rwlock$[rbp]
	mov	rax, QWORD PTR [rax]
	mov	QWORD PTR $T2[rbp], rax
	mov	edx, 16
	mov	rcx, QWORD PTR $T2[rbp]
	call	??3@YAXPEAX_K@Z				; operator delete

; 107  :   return 0;

	xor	eax, eax

; 108  : }

	lea	rsp, QWORD PTR [rbp+264]
	pop	rdi
	pop	rbp
	ret	0
pthread_rwlock_destroy ENDP
_TEXT	ENDS
; Function compile flags: /Odtp /RTCsu /ZI
; File C:\Users\84038\Desktop\video_codec_thread_test\src\threadwrapper\src\pthread.cpp
;	COMDAT pthread_rwlock_init
_TEXT	SEGMENT
$T1 = 200
$T2 = 232
tv78 = 248
lock$ = 288
__formal$ = 296
pthread_rwlock_init PROC				; COMDAT

; 96   : {

$LN5:
	mov	QWORD PTR [rsp+16], rdx
	mov	QWORD PTR [rsp+8], rcx
	push	rbp
	push	rdi
	sub	rsp, 296				; 00000128H
	lea	rbp, QWORD PTR [rsp+32]
	mov	rdi, rsp
	mov	ecx, 74					; 0000004aH
	mov	eax, -858993460				; ccccccccH
	rep stosd
	mov	rcx, QWORD PTR [rsp+328]
	lea	rcx, OFFSET FLAT:__F047FC90_pthread@cpp
	call	__CheckForDebuggerJustMyCode

; 97   :   *lock = new rw_lock_internal;

	mov	ecx, 16
	call	??2@YAPEAX_K@Z				; operator new
	mov	QWORD PTR $T1[rbp], rax
	mov	rax, QWORD PTR lock$[rbp]
	mov	rcx, QWORD PTR $T1[rbp]
	mov	QWORD PTR [rax], rcx

; 98   :   static_cast<rw_lock_internal*>(*lock)->lock = new std::shared_mutex;

	mov	ecx, 8
	call	??2@YAPEAX_K@Z				; operator new
	mov	QWORD PTR $T2[rbp], rax
	cmp	QWORD PTR $T2[rbp], 0
	je	SHORT $LN3@pthread_rw
	mov	rcx, QWORD PTR $T2[rbp]
	call	??0shared_mutex@std@@QEAA@XZ		; std::shared_mutex::shared_mutex
	mov	QWORD PTR tv78[rbp], rax
	jmp	SHORT $LN4@pthread_rw
$LN3@pthread_rw:
	mov	QWORD PTR tv78[rbp], 0
$LN4@pthread_rw:
	mov	rax, QWORD PTR lock$[rbp]
	mov	rax, QWORD PTR [rax]
	mov	rcx, QWORD PTR tv78[rbp]
	mov	QWORD PTR [rax], rcx

; 99   :   static_cast<rw_lock_internal*>(*lock)->write_lock = false;

	mov	rax, QWORD PTR lock$[rbp]
	mov	rax, QWORD PTR [rax]
	mov	BYTE PTR [rax+8], 0

; 100  :   return 0;

	xor	eax, eax

; 101  : }

	lea	rsp, QWORD PTR [rbp+264]
	pop	rdi
	pop	rbp
	ret	0
pthread_rwlock_init ENDP
_TEXT	ENDS
; Function compile flags: /Odtp /RTCsu /ZI
; File C:\Users\84038\Desktop\video_codec_thread_test\src\threadwrapper\src\pthread.cpp
;	COMDAT pthread_mutex_unlock
_TEXT	SEGMENT
mutex$ = 224
pthread_mutex_unlock PROC				; COMDAT

; 90   : int pthread_mutex_unlock(pthread_mutex_t* mutex) {

$LN3:
	mov	QWORD PTR [rsp+8], rcx
	push	rbp
	push	rdi
	sub	rsp, 232				; 000000e8H
	lea	rbp, QWORD PTR [rsp+32]
	mov	rdi, rsp
	mov	ecx, 58					; 0000003aH
	mov	eax, -858993460				; ccccccccH
	rep stosd
	mov	rcx, QWORD PTR [rsp+264]
	lea	rcx, OFFSET FLAT:__F047FC90_pthread@cpp
	call	__CheckForDebuggerJustMyCode

; 91   :     static_cast<std::mutex*>(*mutex)->unlock();

	mov	rax, QWORD PTR mutex$[rbp]
	mov	rcx, QWORD PTR [rax]
	call	?unlock@_Mutex_base@std@@QEAAXXZ	; std::_Mutex_base::unlock

; 92   :     return 0;

	xor	eax, eax

; 93   : }

	lea	rsp, QWORD PTR [rbp+200]
	pop	rdi
	pop	rbp
	ret	0
pthread_mutex_unlock ENDP
_TEXT	ENDS
; Function compile flags: /Odtp /RTCsu /ZI
; File C:\Users\84038\Desktop\video_codec_thread_test\src\threadwrapper\src\pthread.cpp
;	COMDAT pthread_mutex_lock
_TEXT	SEGMENT
mutex$ = 224
pthread_mutex_lock PROC					; COMDAT

; 85   : int pthread_mutex_lock(pthread_mutex_t* mutex) {

$LN3:
	mov	QWORD PTR [rsp+8], rcx
	push	rbp
	push	rdi
	sub	rsp, 232				; 000000e8H
	lea	rbp, QWORD PTR [rsp+32]
	mov	rdi, rsp
	mov	ecx, 58					; 0000003aH
	mov	eax, -858993460				; ccccccccH
	rep stosd
	mov	rcx, QWORD PTR [rsp+264]
	lea	rcx, OFFSET FLAT:__F047FC90_pthread@cpp
	call	__CheckForDebuggerJustMyCode

; 86   :     static_cast<std::mutex*>(*mutex)->lock();

	mov	rax, QWORD PTR mutex$[rbp]
	mov	rcx, QWORD PTR [rax]
	call	?lock@_Mutex_base@std@@QEAAXXZ		; std::_Mutex_base::lock

; 87   :     return 0;

	xor	eax, eax

; 88   : }

	lea	rsp, QWORD PTR [rbp+200]
	pop	rdi
	pop	rbp
	ret	0
pthread_mutex_lock ENDP
_TEXT	ENDS
; Function compile flags: /Odtp /RTCsu /ZI
; File C:\Users\84038\Desktop\video_codec_thread_test\src\threadwrapper\src\pthread.cpp
;	COMDAT pthread_mutex_init
_TEXT	SEGMENT
$T1 = 200
tv72 = 216
mutex$ = 256
__formal$ = 264
pthread_mutex_init PROC					; COMDAT

; 80   : int pthread_mutex_init(pthread_mutex_t* mutex, const pthread_mutexattr_t*) {

$LN5:
	mov	QWORD PTR [rsp+16], rdx
	mov	QWORD PTR [rsp+8], rcx
	push	rbp
	push	rdi
	sub	rsp, 264				; 00000108H
	lea	rbp, QWORD PTR [rsp+32]
	mov	rdi, rsp
	mov	ecx, 66					; 00000042H
	mov	eax, -858993460				; ccccccccH
	rep stosd
	mov	rcx, QWORD PTR [rsp+296]
	lea	rcx, OFFSET FLAT:__F047FC90_pthread@cpp
	call	__CheckForDebuggerJustMyCode

; 81   :     *mutex = new std::mutex();

	mov	ecx, 80					; 00000050H
	call	??2@YAPEAX_K@Z				; operator new
	mov	QWORD PTR $T1[rbp], rax
	cmp	QWORD PTR $T1[rbp], 0
	je	SHORT $LN3@pthread_mu
	mov	rcx, QWORD PTR $T1[rbp]
	call	??0mutex@std@@QEAA@XZ			; std::mutex::mutex
	mov	QWORD PTR tv72[rbp], rax
	jmp	SHORT $LN4@pthread_mu
$LN3@pthread_mu:
	mov	QWORD PTR tv72[rbp], 0
$LN4@pthread_mu:
	mov	rax, QWORD PTR mutex$[rbp]
	mov	rcx, QWORD PTR tv72[rbp]
	mov	QWORD PTR [rax], rcx

; 82   :     return 0;

	xor	eax, eax

; 83   : }

	lea	rsp, QWORD PTR [rbp+232]
	pop	rdi
	pop	rbp
	ret	0
pthread_mutex_init ENDP
_TEXT	ENDS
; Function compile flags: /Odtp /RTCsu /ZI
; File C:\Users\84038\Desktop\video_codec_thread_test\src\threadwrapper\src\pthread.cpp
;	COMDAT pthread_mutex_destroy
_TEXT	SEGMENT
$T1 = 200
tv68 = 216
mutex$ = 256
pthread_mutex_destroy PROC				; COMDAT

; 74   : int pthread_mutex_destroy(pthread_mutex_t* mutex) {

$LN5:
	mov	QWORD PTR [rsp+8], rcx
	push	rbp
	push	rdi
	sub	rsp, 264				; 00000108H
	lea	rbp, QWORD PTR [rsp+32]
	mov	rdi, rsp
	mov	ecx, 66					; 00000042H
	mov	eax, -858993460				; ccccccccH
	rep stosd
	mov	rcx, QWORD PTR [rsp+296]
	lea	rcx, OFFSET FLAT:__F047FC90_pthread@cpp
	call	__CheckForDebuggerJustMyCode

; 75   :     delete static_cast<std::mutex*>(*mutex);

	mov	rax, QWORD PTR mutex$[rbp]
	mov	rax, QWORD PTR [rax]
	mov	QWORD PTR $T1[rbp], rax
	cmp	QWORD PTR $T1[rbp], 0
	je	SHORT $LN3@pthread_mu
	mov	edx, 1
	mov	rcx, QWORD PTR $T1[rbp]
	call	??_Gmutex@std@@QEAAPEAXI@Z
	mov	QWORD PTR tv68[rbp], rax
	jmp	SHORT $LN4@pthread_mu
$LN3@pthread_mu:
	mov	QWORD PTR tv68[rbp], 0
$LN4@pthread_mu:

; 76   :     *mutex = nullptr;

	mov	rax, QWORD PTR mutex$[rbp]
	mov	QWORD PTR [rax], 0

; 77   :     return 0;

	xor	eax, eax

; 78   : }

	lea	rsp, QWORD PTR [rbp+232]
	pop	rdi
	pop	rbp
	ret	0
pthread_mutex_destroy ENDP
_TEXT	ENDS
; Function compile flags: /Odtp /RTCsu /ZI
; File C:\Users\84038\Desktop\video_codec_thread_test\src\threadwrapper\src\pthread.cpp
;	COMDAT pthread_join
_TEXT	SEGMENT
real_thread$ = 8
$T1 = 232
tv69 = 248
thread$ = 288
__formal$ = 296
pthread_join PROC					; COMDAT

; 67   : int pthread_join(pthread_t thread, void**) {

$LN5:
	mov	QWORD PTR [rsp+16], rdx
	mov	QWORD PTR [rsp+8], rcx
	push	rbp
	push	rdi
	sub	rsp, 296				; 00000128H
	lea	rbp, QWORD PTR [rsp+32]
	mov	rdi, rsp
	mov	ecx, 74					; 0000004aH
	mov	eax, -858993460				; ccccccccH
	rep stosd
	mov	rcx, QWORD PTR [rsp+328]
	lea	rcx, OFFSET FLAT:__F047FC90_pthread@cpp
	call	__CheckForDebuggerJustMyCode

; 68   :     std::thread* real_thread = static_cast<std::thread*>(thread);

	mov	rax, QWORD PTR thread$[rbp]
	mov	QWORD PTR real_thread$[rbp], rax

; 69   :     real_thread->join();

	mov	rcx, QWORD PTR real_thread$[rbp]
	call	?join@thread@std@@QEAAXXZ		; std::thread::join

; 70   :     delete real_thread;

	mov	rax, QWORD PTR real_thread$[rbp]
	mov	QWORD PTR $T1[rbp], rax
	cmp	QWORD PTR $T1[rbp], 0
	je	SHORT $LN3@pthread_jo
	mov	edx, 1
	mov	rcx, QWORD PTR $T1[rbp]
	call	??_Gthread@std@@QEAAPEAXI@Z
	mov	QWORD PTR tv69[rbp], rax
	jmp	SHORT $LN4@pthread_jo
$LN3@pthread_jo:
	mov	QWORD PTR tv69[rbp], 0
$LN4@pthread_jo:

; 71   :     return 0;

	xor	eax, eax

; 72   : }

	lea	rsp, QWORD PTR [rbp+264]
	pop	rdi
	pop	rbp
	ret	0
pthread_join ENDP
_TEXT	ENDS
; Function compile flags: /Odtp /RTCsu /ZI
; File C:\Users\84038\Desktop\video_codec_thread_test\src\threadwrapper\src\pthread.cpp
;	COMDAT pthread_exit
_TEXT	SEGMENT
__formal$ = 224
pthread_exit PROC					; COMDAT

; 62   : void pthread_exit(void*) {

$LN3:
	mov	QWORD PTR [rsp+8], rcx
	push	rbp
	push	rdi
	sub	rsp, 232				; 000000e8H
	lea	rbp, QWORD PTR [rsp+32]
	mov	rdi, rsp
	mov	ecx, 58					; 0000003aH
	mov	eax, -858993460				; ccccccccH
	rep stosd
	mov	rcx, QWORD PTR [rsp+264]
	lea	rcx, OFFSET FLAT:__F047FC90_pthread@cpp
	call	__CheckForDebuggerJustMyCode

; 63   :     // It might be enough to do nothing here
; 64   :     // considering Kvazaar's current use of pthread_exit
; 65   : }

	lea	rsp, QWORD PTR [rbp+200]
	pop	rdi
	pop	rbp
	ret	0
pthread_exit ENDP
_TEXT	ENDS
; Function compile flags: /Odtp /RTCsu /ZI
; File C:\Users\84038\Desktop\video_codec_thread_test\src\threadwrapper\src\pthread.cpp
;	COMDAT pthread_create
_TEXT	SEGMENT
$T1 = 200
$T2 = 232
tv77 = 248
thread$ = 288
__formal$ = 296
executee$ = 304
arg$ = 312
pthread_create PROC					; COMDAT

; 57   : int pthread_create(pthread_t* thread, const pthread_attr_t*, voidp_voidp_func executee, void* arg) {

$LN5:
	mov	QWORD PTR [rsp+32], r9
	mov	QWORD PTR [rsp+24], r8
	mov	QWORD PTR [rsp+16], rdx
	mov	QWORD PTR [rsp+8], rcx
	push	rbp
	push	rdi
	sub	rsp, 296				; 00000128H
	lea	rbp, QWORD PTR [rsp+32]
	mov	rdi, rsp
	mov	ecx, 74					; 0000004aH
	mov	eax, -858993460				; ccccccccH
	rep stosd
	mov	rcx, QWORD PTR [rsp+328]
	lea	rcx, OFFSET FLAT:__F047FC90_pthread@cpp
	call	__CheckForDebuggerJustMyCode

; 58   :     *thread = new std::thread(executee, arg);

	mov	ecx, 16
	call	??2@YAPEAX_K@Z				; operator new
	mov	QWORD PTR $T2[rbp], rax
	cmp	QWORD PTR $T2[rbp], 0
	je	SHORT $LN3@pthread_cr
	lea	r8, QWORD PTR arg$[rbp]
	lea	rdx, QWORD PTR executee$[rbp]
	mov	rcx, QWORD PTR $T2[rbp]
	call	??$?0AEAP6APEAXPEAX@ZAEAPEAX$0A@@thread@std@@QEAA@AEAP6APEAXPEAX@ZAEAPEAX@Z ; std::thread::thread<void * (__cdecl*&)(void *),void * &,0>
	mov	QWORD PTR tv77[rbp], rax
	jmp	SHORT $LN4@pthread_cr
$LN3@pthread_cr:
	mov	QWORD PTR tv77[rbp], 0
$LN4@pthread_cr:
	mov	rax, QWORD PTR tv77[rbp]
	mov	QWORD PTR $T1[rbp], rax
	mov	rax, QWORD PTR thread$[rbp]
	mov	rcx, QWORD PTR $T1[rbp]
	mov	QWORD PTR [rax], rcx

; 59   :     return 0;

	xor	eax, eax

; 60   : }

	lea	rsp, QWORD PTR [rbp+264]
	pop	rdi
	pop	rbp
	ret	0
pthread_create ENDP
_TEXT	ENDS
; Function compile flags: /Odtp /RTCsu /ZI
; File C:\Users\84038\Desktop\video_codec_thread_test\src\threadwrapper\src\pthread.cpp
;	COMDAT pthread_cond_wait
_TEXT	SEGMENT
real_mutex$ = 8
lock$ = 40
$T4 = 276
cond$ = 336
mutex$ = 344
pthread_cond_wait PROC					; COMDAT

; 49   : int pthread_cond_wait(pthread_cond_t* cond, pthread_mutex_t* mutex) {

$LN3:
	mov	QWORD PTR [rsp+16], rdx
	mov	QWORD PTR [rsp+8], rcx
	push	rbp
	push	rdi
	sub	rsp, 344				; 00000158H
	lea	rbp, QWORD PTR [rsp+32]
	mov	rdi, rsp
	mov	ecx, 86					; 00000056H
	mov	eax, -858993460				; ccccccccH
	rep stosd
	mov	rcx, QWORD PTR [rsp+376]
	lea	rcx, OFFSET FLAT:__F047FC90_pthread@cpp
	call	__CheckForDebuggerJustMyCode

; 50   :     std::mutex* real_mutex = static_cast<std::mutex*>(*mutex);

	mov	rax, QWORD PTR mutex$[rbp]
	mov	rax, QWORD PTR [rax]
	mov	QWORD PTR real_mutex$[rbp], rax

; 51   :     std::unique_lock<std::mutex> lock(*real_mutex, std::adopt_lock);

	movzx	r8d, BYTE PTR ?adopt_lock@std@@3Uadopt_lock_t@1@B
	mov	rdx, QWORD PTR real_mutex$[rbp]
	lea	rcx, QWORD PTR lock$[rbp]
	call	??0?$unique_lock@Vmutex@std@@@std@@QEAA@AEAVmutex@1@Uadopt_lock_t@1@@Z ; std::unique_lock<std::mutex>::unique_lock<std::mutex>

; 52   :     static_cast<std::condition_variable*>(*cond)->wait(lock);

	lea	rdx, QWORD PTR lock$[rbp]
	mov	rax, QWORD PTR cond$[rbp]
	mov	rcx, QWORD PTR [rax]
	call	?wait@condition_variable@std@@QEAAXAEAV?$unique_lock@Vmutex@std@@@2@@Z ; std::condition_variable::wait

; 53   :     lock.release();

	lea	rcx, QWORD PTR lock$[rbp]
	call	?release@?$unique_lock@Vmutex@std@@@std@@QEAAPEAVmutex@2@XZ ; std::unique_lock<std::mutex>::release

; 54   :     return 0;

	mov	DWORD PTR $T4[rbp], 0
	lea	rcx, QWORD PTR lock$[rbp]
	call	??1?$unique_lock@Vmutex@std@@@std@@QEAA@XZ ; std::unique_lock<std::mutex>::~unique_lock<std::mutex>
	mov	eax, DWORD PTR $T4[rbp]

; 55   : }

	mov	edi, eax
	lea	rcx, QWORD PTR [rbp-32]
	lea	rdx, OFFSET FLAT:pthread_cond_wait$rtcFrameData
	call	_RTC_CheckStackVars
	mov	eax, edi
	lea	rsp, QWORD PTR [rbp+312]
	pop	rdi
	pop	rbp
	ret	0
pthread_cond_wait ENDP
_TEXT	ENDS
; Function compile flags: /Odtp /RTCsu /ZI
; File C:\Users\84038\Desktop\video_codec_thread_test\src\threadwrapper\src\pthread.cpp
;	COMDAT pthread_cond_signal
_TEXT	SEGMENT
cond$ = 224
pthread_cond_signal PROC				; COMDAT

; 44   : int pthread_cond_signal(pthread_cond_t* cond) {

$LN3:
	mov	QWORD PTR [rsp+8], rcx
	push	rbp
	push	rdi
	sub	rsp, 232				; 000000e8H
	lea	rbp, QWORD PTR [rsp+32]
	mov	rdi, rsp
	mov	ecx, 58					; 0000003aH
	mov	eax, -858993460				; ccccccccH
	rep stosd
	mov	rcx, QWORD PTR [rsp+264]
	lea	rcx, OFFSET FLAT:__F047FC90_pthread@cpp
	call	__CheckForDebuggerJustMyCode

; 45   :     static_cast<std::condition_variable*>(*cond)->notify_one();

	mov	rax, QWORD PTR cond$[rbp]
	mov	rcx, QWORD PTR [rax]
	call	?notify_one@condition_variable@std@@QEAAXXZ ; std::condition_variable::notify_one

; 46   :     return 0;

	xor	eax, eax

; 47   : }

	lea	rsp, QWORD PTR [rbp+200]
	pop	rdi
	pop	rbp
	ret	0
pthread_cond_signal ENDP
_TEXT	ENDS
; Function compile flags: /Odtp /RTCsu /ZI
; File C:\Users\84038\Desktop\video_codec_thread_test\src\threadwrapper\src\pthread.cpp
;	COMDAT pthread_cond_init
_TEXT	SEGMENT
$T1 = 200
$T2 = 232
tv75 = 248
cond$ = 288
__formal$ = 296
pthread_cond_init PROC					; COMDAT

; 39   : int pthread_cond_init(pthread_cond_t* cond, const pthread_condattr_t*) {

$LN5:
	mov	QWORD PTR [rsp+16], rdx
	mov	QWORD PTR [rsp+8], rcx
	push	rbp
	push	rdi
	sub	rsp, 296				; 00000128H
	lea	rbp, QWORD PTR [rsp+32]
	mov	rdi, rsp
	mov	ecx, 74					; 0000004aH
	mov	eax, -858993460				; ccccccccH
	rep stosd
	mov	rcx, QWORD PTR [rsp+328]
	lea	rcx, OFFSET FLAT:__F047FC90_pthread@cpp
	call	__CheckForDebuggerJustMyCode

; 40   :     *cond = new std::condition_variable();

	mov	ecx, 72					; 00000048H
	call	??2@YAPEAX_K@Z				; operator new
	mov	QWORD PTR $T2[rbp], rax
	cmp	QWORD PTR $T2[rbp], 0
	je	SHORT $LN3@pthread_co
	mov	rcx, QWORD PTR $T2[rbp]
	call	??0condition_variable@std@@QEAA@XZ	; std::condition_variable::condition_variable
	mov	QWORD PTR tv75[rbp], rax
	jmp	SHORT $LN4@pthread_co
$LN3@pthread_co:
	mov	QWORD PTR tv75[rbp], 0
$LN4@pthread_co:
	mov	rax, QWORD PTR tv75[rbp]
	mov	QWORD PTR $T1[rbp], rax
	mov	rax, QWORD PTR cond$[rbp]
	mov	rcx, QWORD PTR $T1[rbp]
	mov	QWORD PTR [rax], rcx

; 41   :     return 0;

	xor	eax, eax

; 42   : }

	lea	rsp, QWORD PTR [rbp+264]
	pop	rdi
	pop	rbp
	ret	0
pthread_cond_init ENDP
_TEXT	ENDS
; Function compile flags: /Odtp /RTCsu /ZI
; File C:\Users\84038\Desktop\video_codec_thread_test\src\threadwrapper\src\pthread.cpp
;	COMDAT pthread_cond_destroy
_TEXT	SEGMENT
$T1 = 200
tv68 = 216
cond$ = 256
pthread_cond_destroy PROC				; COMDAT

; 33   : int pthread_cond_destroy(pthread_cond_t* cond) {

$LN5:
	mov	QWORD PTR [rsp+8], rcx
	push	rbp
	push	rdi
	sub	rsp, 264				; 00000108H
	lea	rbp, QWORD PTR [rsp+32]
	mov	rdi, rsp
	mov	ecx, 66					; 00000042H
	mov	eax, -858993460				; ccccccccH
	rep stosd
	mov	rcx, QWORD PTR [rsp+296]
	lea	rcx, OFFSET FLAT:__F047FC90_pthread@cpp
	call	__CheckForDebuggerJustMyCode

; 34   :     delete static_cast<std::condition_variable*>(*cond);

	mov	rax, QWORD PTR cond$[rbp]
	mov	rax, QWORD PTR [rax]
	mov	QWORD PTR $T1[rbp], rax
	cmp	QWORD PTR $T1[rbp], 0
	je	SHORT $LN3@pthread_co
	mov	edx, 1
	mov	rcx, QWORD PTR $T1[rbp]
	call	??_Gcondition_variable@std@@QEAAPEAXI@Z
	mov	QWORD PTR tv68[rbp], rax
	jmp	SHORT $LN4@pthread_co
$LN3@pthread_co:
	mov	QWORD PTR tv68[rbp], 0
$LN4@pthread_co:

; 35   :     *cond = nullptr;

	mov	rax, QWORD PTR cond$[rbp]
	mov	QWORD PTR [rax], 0

; 36   :     return 0;

	xor	eax, eax

; 37   : }

	lea	rsp, QWORD PTR [rbp+232]
	pop	rdi
	pop	rbp
	ret	0
pthread_cond_destroy ENDP
_TEXT	ENDS
; Function compile flags: /Odtp /RTCsu /ZI
; File C:\Users\84038\Desktop\video_codec_thread_test\src\threadwrapper\src\pthread.cpp
;	COMDAT pthread_cond_broadcast
_TEXT	SEGMENT
cond$ = 224
pthread_cond_broadcast PROC				; COMDAT

; 28   : int pthread_cond_broadcast(pthread_cond_t* cond) {

$LN3:
	mov	QWORD PTR [rsp+8], rcx
	push	rbp
	push	rdi
	sub	rsp, 232				; 000000e8H
	lea	rbp, QWORD PTR [rsp+32]
	mov	rdi, rsp
	mov	ecx, 58					; 0000003aH
	mov	eax, -858993460				; ccccccccH
	rep stosd
	mov	rcx, QWORD PTR [rsp+264]
	lea	rcx, OFFSET FLAT:__F047FC90_pthread@cpp
	call	__CheckForDebuggerJustMyCode

; 29   :     static_cast<std::condition_variable*>(*cond)->notify_all();

	mov	rax, QWORD PTR cond$[rbp]
	mov	rcx, QWORD PTR [rax]
	call	?notify_all@condition_variable@std@@QEAAXXZ ; std::condition_variable::notify_all

; 30   :     return 0;

	xor	eax, eax

; 31   : }

	lea	rsp, QWORD PTR [rbp+200]
	pop	rdi
	pop	rbp
	ret	0
pthread_cond_broadcast ENDP
_TEXT	ENDS
END
