; Listing generated by Microsoft (R) Optimizing Compiler Version 19.26.28806.0 

include listing.inc

INCLUDELIB OLDNAMES

cbf_masks DW	01fH
	DW	0fH
	DW	07H
	DW	03H
	DW	01H
	ORG $+6
g_sig_last_scan_16x16 DD 00H
	DD	04H
	DD	01H
	DD	08H
	DD	05H
	DD	02H
	DD	0cH
	DD	09H
	DD	06H
	DD	03H
	DD	0dH
	DD	0aH
	DD	07H
	DD	0eH
	DD	0bH
	DD	0fH
g_group_idx DB	00H
	DB	01H
	DB	02H
	DB	03H
	DB	04H
	DB	04H
	DB	05H
	DB	05H
	DB	06H
	DB	06H
	DB	06H
	DB	06H
	DB	07H
	DB	07H
	DB	07H
	DB	07H
	DB	08H
	DB	08H
	DB	08H
	DB	08H
	DB	08H
	DB	08H
	DB	08H
	DB	08H
	DB	09H
	DB	09H
	DB	09H
	DB	09H
	DB	09H
	DB	09H
	DB	09H
	DB	09H
strategies_to_select DQ FLAT:$SG4294950596
	DQ	FLAT:kvz_array_checksum
	DQ	FLAT:$SG4294950595
	DQ	FLAT:kvz_array_md5
	DQ	FLAT:$SG4294950594
	DQ	FLAT:kvz_reg_sad
	DQ	FLAT:$SG4294950593
	DQ	FLAT:kvz_sad_4x4
	DQ	FLAT:$SG4294950592
	DQ	FLAT:kvz_sad_8x8
	DQ	FLAT:$SG4294950591
	DQ	FLAT:kvz_sad_16x16
	DQ	FLAT:$SG4294950590
	DQ	FLAT:kvz_sad_32x32
	DQ	FLAT:$SG4294950589
	DQ	FLAT:kvz_sad_64x64
	DQ	FLAT:$SG4294950588
	DQ	FLAT:kvz_satd_4x4
	DQ	FLAT:$SG4294950587
	DQ	FLAT:kvz_satd_8x8
	DQ	FLAT:$SG4294950586
	DQ	FLAT:kvz_satd_16x16
	DQ	FLAT:$SG4294950585
	DQ	FLAT:kvz_satd_32x32
	DQ	FLAT:$SG4294950584
	DQ	FLAT:kvz_satd_64x64
	DQ	FLAT:$SG4294950583
	DQ	FLAT:kvz_satd_any_size
	DQ	FLAT:$SG4294950582
	DQ	FLAT:kvz_sad_4x4_dual
	DQ	FLAT:$SG4294950581
	DQ	FLAT:kvz_sad_8x8_dual
	DQ	FLAT:$SG4294950580
	DQ	FLAT:kvz_sad_16x16_dual
	DQ	FLAT:$SG4294950579
	DQ	FLAT:kvz_sad_32x32_dual
	DQ	FLAT:$SG4294950578
	DQ	FLAT:kvz_sad_64x64_dual
	DQ	FLAT:$SG4294950577
	DQ	FLAT:kvz_satd_4x4_dual
	DQ	FLAT:$SG4294950576
	DQ	FLAT:kvz_satd_8x8_dual
	DQ	FLAT:$SG4294950575
	DQ	FLAT:kvz_satd_16x16_dual
	DQ	FLAT:$SG4294950574
	DQ	FLAT:kvz_satd_32x32_dual
	DQ	FLAT:$SG4294950573
	DQ	FLAT:kvz_satd_64x64_dual
	DQ	FLAT:$SG4294950572
	DQ	FLAT:kvz_satd_any_size_quad
	DQ	FLAT:$SG4294950571
	DQ	FLAT:kvz_pixels_calc_ssd
	DQ	FLAT:$SG4294950570
	DQ	FLAT:kvz_bipred_average
	DQ	FLAT:$SG4294950569
	DQ	FLAT:kvz_get_optimized_sad
	DQ	FLAT:$SG4294950568
	DQ	FLAT:kvz_ver_sad
	DQ	FLAT:$SG4294950567
	DQ	FLAT:kvz_hor_sad
	DQ	FLAT:$SG4294950566
	DQ	FLAT:kvz_pixel_var
	DQ	FLAT:$SG4294950565
	DQ	FLAT:kvz_fast_forward_dst_4x4
	DQ	FLAT:$SG4294950564
	DQ	FLAT:kvz_dct_4x4
	DQ	FLAT:$SG4294950563
	DQ	FLAT:kvz_dct_8x8
	DQ	FLAT:$SG4294950562
	DQ	FLAT:kvz_dct_16x16
	DQ	FLAT:$SG4294950561
	DQ	FLAT:kvz_dct_32x32
	DQ	FLAT:$SG4294950560
	DQ	FLAT:kvz_fast_inverse_dst_4x4
	DQ	FLAT:$SG4294950559
	DQ	FLAT:kvz_idct_4x4
	DQ	FLAT:$SG4294950558
	DQ	FLAT:kvz_idct_8x8
	DQ	FLAT:$SG4294950557
	DQ	FLAT:kvz_idct_16x16
	DQ	FLAT:$SG4294950556
	DQ	FLAT:kvz_idct_32x32
	DQ	FLAT:$SG4294950555
	DQ	FLAT:kvz_filter_hpel_blocks_hor_ver_luma
	DQ	FLAT:$SG4294950554
	DQ	FLAT:kvz_filter_hpel_blocks_diag_luma
	DQ	FLAT:$SG4294950553
	DQ	FLAT:kvz_filter_qpel_blocks_hor_ver_luma
	DQ	FLAT:$SG4294950552
	DQ	FLAT:kvz_filter_qpel_blocks_diag_luma
	DQ	FLAT:$SG4294950551
	DQ	FLAT:kvz_sample_quarterpel_luma
	DQ	FLAT:$SG4294950550
	DQ	FLAT:kvz_sample_octpel_chroma
	DQ	FLAT:$SG4294950549
	DQ	FLAT:kvz_sample_quarterpel_luma_hi
	DQ	FLAT:$SG4294950548
	DQ	FLAT:kvz_sample_octpel_chroma_hi
	DQ	FLAT:$SG4294950547
	DQ	FLAT:kvz_get_extended_block
	DQ	FLAT:$SG4294950546
	DQ	FLAT:kvz_quant
	DQ	FLAT:$SG4294950545
	DQ	FLAT:kvz_quantize_residual
	DQ	FLAT:$SG4294950544
	DQ	FLAT:kvz_dequant
	DQ	FLAT:$SG4294950543
	DQ	FLAT:kvz_coeff_abs_sum
	DQ	FLAT:$SG4294950542
	DQ	FLAT:kvz_fast_coeff_cost
	DQ	FLAT:$SG4294950541
	DQ	FLAT:kvz_angular_pred
	DQ	FLAT:$SG4294950540
	DQ	FLAT:kvz_intra_pred_planar
	DQ	FLAT:$SG4294950539
	DQ	FLAT:kvz_intra_pred_filtered_dc
	DQ	FLAT:$SG4294950538
	DQ	FLAT:kvz_sao_edge_ddistortion
	DQ	FLAT:$SG4294950537
	DQ	FLAT:kvz_calc_sao_edge_dir
	DQ	FLAT:$SG4294950536
	DQ	FLAT:kvz_sao_reconstruct_color
	DQ	FLAT:$SG4294950535
	DQ	FLAT:kvz_sao_band_ddistortion
	DQ	FLAT:$SG4294950534
	DQ	FLAT:kvz_encode_coeff_nxn
	DQ	0000000000000000H
	DQ	0000000000000000H
g_sig_last_scan_32x32 DD 00H
	DD	08H
	DD	01H
	DD	010H
	DD	09H
	DD	02H
	DD	018H
	DD	011H
	DD	0aH
	DD	03H
	DD	020H
	DD	019H
	DD	012H
	DD	0bH
	DD	04H
	DD	028H
	DD	021H
	DD	01aH
	DD	013H
	DD	0cH
	DD	05H
	DD	030H
	DD	029H
	DD	022H
	DD	01bH
	DD	014H
	DD	0dH
	DD	06H
	DD	038H
	DD	031H
	DD	02aH
	DD	023H
	DD	01cH
	DD	015H
	DD	0eH
	DD	07H
	DD	039H
	DD	032H
	DD	02bH
	DD	024H
	DD	01dH
	DD	016H
	DD	0fH
	DD	03aH
	DD	033H
	DD	02cH
	DD	025H
	DD	01eH
	DD	017H
	DD	03bH
	DD	034H
	DD	02dH
	DD	026H
	DD	01fH
	DD	03cH
	DD	035H
	DD	02eH
	DD	027H
	DD	03dH
	DD	036H
	DD	02fH
	DD	03eH
	DD	037H
	DD	03fH
g_min_in_group DB 00H
	DB	01H
	DB	02H
	DB	03H
	DB	04H
	DB	06H
	DB	08H
	DB	0cH
	DB	010H
	DB	018H
	ORG $+6
default_fast_coeff_cost_wts DD 03e282e88r	; 0.16424
	DD	040852b41r			; 4.16153
	DD	0406093ffr			; 3.50903
	DD	040ddb290r			; 6.92805
	DD	03e282e88r			; 0.16424
	DD	040852b41r			; 4.16153
	DD	0406093ffr			; 3.50903
	DD	040ddb290r			; 6.92805
	DD	03e282e88r			; 0.16424
	DD	040852b41r			; 4.16153
	DD	0406093ffr			; 3.50903
	DD	040ddb290r			; 6.92805
	DD	03e282e88r			; 0.16424
	DD	040852b41r			; 4.16153
	DD	0406093ffr			; 3.50903
	DD	040ddb290r			; 6.92805
	DD	03e282e88r			; 0.16424
	DD	040852b41r			; 4.16153
	DD	0406093ffr			; 3.50903
	DD	040ddb290r			; 6.92805
	DD	03e282e88r			; 0.16424
	DD	040852b41r			; 4.16153
	DD	0406093ffr			; 3.50903
	DD	040ddb290r			; 6.92805
	DD	03e282e88r			; 0.16424
	DD	040852b41r			; 4.16153
	DD	0406093ffr			; 3.50903
	DD	040ddb290r			; 6.92805
	DD	03e282e88r			; 0.16424
	DD	040852b41r			; 4.16153
	DD	0406093ffr			; 3.50903
	DD	040ddb290r			; 6.92805
	DD	03e282e88r			; 0.16424
	DD	040852b41r			; 4.16153
	DD	0406093ffr			; 3.50903
	DD	040ddb290r			; 6.92805
	DD	03e282e88r			; 0.16424
	DD	040852b41r			; 4.16153
	DD	0406093ffr			; 3.50903
	DD	040ddb290r			; 6.92805
	DD	03e282e88r			; 0.16424
	DD	040852b41r			; 4.16153
	DD	0406093ffr			; 3.50903
	DD	040ddb290r			; 6.92805
	DD	03e26c094r			; 0.162844
	DD	04081ca43r			; 4.05594
	DD	04064203ar			; 3.56447
	DD	040db915ar			; 6.86149
	DD	03e03d189r			; 0.128729
	DD	04089fbafr			; 4.31197
	DD	0407c5771r			; 3.94284
	DD	040ddeed2r			; 6.9354
	DD	03de33ce6r			; 0.110956
	DD	0408ddcb1r			; 4.43319
	DD	0407c8738r			; 3.94575
	DD	040dc1618r			; 6.8777
	DD	03dc29cfer			; 0.095026
	DD	0408f7938r			; 4.48355
	DD	0408636aar			; 4.19417
	DD	040d90260r			; 6.78154
	DD	03d99b1b8r			; 0.075046
	DD	04094474cr			; 4.6337
	DD	04082b1b6r			; 4.08419
	DD	040d65aeer			; 6.6986
	DD	03d56bca5r			; 0.052426
	DD	0409ef37er			; 4.96722
	DD	04080dee8r			; 4.02721
	DD	040d19306r			; 6.5492
	DD	03d24bcaer			; 0.040219
	DD	040a489car			; 5.14182
	DD	0407ee3bdr			; 3.98265
	DD	040cec513r			; 6.46156
	DD	03d0fba88r			; 0.03509
	DD	040a628e7r			; 5.19249
	DD	040752e49r			; 3.83095
	DD	040cd642ar			; 6.41848
	DD	03cf47d80r			; 0.029845
	DD	040a6c5d0r			; 5.21165
	DD	040743073r			; 3.81546
	DD	040cb0dd8r			; 6.34544
	DD	03cc0b136r			; 0.023522
	DD	040aa4f92r			; 5.32221
	DD	040744224r			; 3.81654
	DD	040cb8aaar			; 6.36068
	DD	03cae87d3r			; 0.021305
	DD	040a73ac3r			; 5.22592
	DD	04075eeccr			; 3.8427
	DD	040ca6cd9r			; 6.32579
	DD	03c821294r			; 0.015878
	DD	040a5dbe0r			; 5.18309
	DD	0407d2f27r			; 3.956
	DD	040ca8cbdr			; 6.32968
	DD	03c2ae297r			; 0.01043
	DD	040a32ce4r			; 5.09923
	DD	04085a85fr			; 4.1768
	DD	040c9c5d6r			; 6.3054
	DD	03c0a2a91r			; 0.008433
	DD	040a0f7der			; 5.03026
	DD	040879a50r			; 4.23759
	DD	040c8a4eer			; 6.27013
	DD	03bd4fdf4r			; 0.0065
	DD	0409f0412r			; 4.96925
	DD	0408adc57r			; 4.3394
	DD	040c6f870r			; 6.21783
	DD	03ba18373r			; 0.004929
	DD	0409d8d50r			; 4.9235
	DD	0408e283fr			; 4.44241
	DD	040c5df6cr			; 6.18352
	DD	03b73775cr			; 0.003715
	DD	0409d4c75r			; 4.91558
	DD	0408dbb1br			; 4.42909
	DD	040c4029fr			; 6.12532
	DD	03b4a70d2r			; 0.003089
	DD	0409c48f7r			; 4.88391
	DD	040920260r			; 4.56279
	DD	040c5019dr			; 6.15645
	DD	03b219c9dr			; 0.002466
	DD	0409c31abr			; 4.88106
	DD	040942800r			; 4.62988
	DD	040c49088r			; 6.14264
	DD	03b0e25c8r			; 0.002169
	DD	0409c3d62r			; 4.88249
	DD	04094ae99r			; 4.64631
	DD	040c415d1r			; 6.12766
	DD	03b26dacbr			; 0.002546
	DD	040996304r			; 4.79334
	DD	0409acc16r			; 4.83741
	DD	040c6606br			; 6.19927
	DD	03aac3a86r			; 0.001314
	DD	04099e220r			; 4.80885
	DD	0409a81bdr			; 4.82834
	DD	040c7ca3cr			; 6.24344
	DD	03a9741d1r			; 0.001154
	DD	0409b9a72r			; 4.8626
	DD	0409b19aar			; 4.84688
	DD	040c693a5r			; 6.20552
	DD	03a80f990r			; 0.000984
	DD	0409bb993r			; 4.8664
	DD	0409b7fa2r			; 4.85933
	DD	040c7b565r			; 6.24089
	DD	03a551f82r			; 0.000813
	DD	0409b698ar			; 4.85663
	DD	0409d95bar			; 4.92453
	DD	040c963a4r			; 6.29341
	DD	03a91c087r			; 0.001112
	DD	04099419er			; 4.78926
	DD	040a050f0r			; 5.00988
	DD	040cddf8fr			; 6.43354
	DD	03a10b418r			; 0.000552
	DD	04098580ar			; 4.76075
	DD	040a2e4f1r			; 5.09045
	DD	040d32e1fr			; 6.59938
	DD	039ccff22r			; 0.000391
	DD	0409ec42cr			; 4.96145
	DD	040a38d95r			; 5.11103
	DD	040d8342fr			; 6.75637
	DD	039ae1049r			; 0.000332
	DD	0409f63f8r			; 4.98095
	DD	040a46b89r			; 5.13813
	DD	040dbc1e8r			; 6.86742
	DD	03952c387r			; 0.000201
	DD	040a5d297r			; 5.18196
	DD	04097af64r			; 4.74016
	DD	040cec07dr			; 6.461
	DD	0397ba882r			; 0.00024
	DD	040a5eeb7r			; 5.18539
	DD	0409bfeb0r			; 4.87484
	DD	040da3603r			; 6.81909
	DD	03908509cr			; 0.00013
	DD	040a8a6b5r			; 5.27035
	DD	040977eacr			; 4.73421
	DD	040da708fr			; 6.82624
	DD	038da1a93r			; 0.000104
	DD	040abe6e8r			; 5.37194
	DD	040930af4r			; 4.59509
	DD	040d5189ar			; 6.65925
	DD	038ae1049r			; 8.3e-05
	DD	040ab9581r			; 5.362
	DD	04093c250r			; 4.61747
	DD	040dacf03r			; 6.83777
	DD	03890b418r			; 6.9e-05
	DD	040a926e3r			; 5.286
	DD	0409828e7r			; 4.75499
	DD	040e516e1r			; 7.15904
	DD	0384d8559r			; 4.9e-05
	DD	040afa18cr			; 5.48847
	DD	0408cace9r			; 4.39611
	DD	040d74682r			; 6.72736
	DD	038734507r			; 5.8e-05
	DD	0409eafa3r			; 4.95894
	DD	040929321r			; 4.58046
	DD	040cf49a5r			; 6.47774
	DD	037eae18br			; 2.8e-05
	DD	040b0ae1br			; 5.52125
	DD	0408e1885r			; 4.44049
	DD	040e68f80r			; 7.20502
	DD	000000000r			; 0
	DD	000000000r			; 0
	DD	000000000r			; 0
	DD	000000000r			; 0
	DD	0379f6230r			; 1.9e-05
	DD	040b9f5d8r			; 5.81126
	DD	0408cc582r			; 4.39911
	DD	040eac30dr			; 7.33631
g_sao_edge_offsets DD 0ffffffffH
	DD	00H
	DD	01H
	DD	00H
	DD	00H
	DD	0ffffffffH
	DD	00H
	DD	01H
	DD	0ffffffffH
	DD	0ffffffffH
	DD	01H
	DD	01H
	DD	01H
	DD	0ffffffffH
	DD	0ffffffffH
	DD	01H
g_sig_last_scan_cg DQ FLAT:g_sig_last_scan_8x8
	DQ	FLAT:g_sig_last_scan_8x8+16
	DQ	FLAT:g_sig_last_scan_8x8+32
	DQ	FLAT:g_sig_last_scan_8x8
	DQ	FLAT:g_sig_last_scan_8x8+16
	DQ	FLAT:g_sig_last_scan_8x8+32
	DQ	FLAT:g_sig_last_scan_16x16
	DQ	0000000000000000H
	DQ	0000000000000000H
	DQ	FLAT:g_sig_last_scan_32x32
	DQ	0000000000000000H
	DQ	0000000000000000H
g_sig_last_scan_8x8 DD 00H
	DD	02H
	DD	01H
	DD	03H
	DD	00H
	DD	01H
	DD	02H
	DD	03H
	DD	00H
	DD	02H
	DD	01H
	DD	03H
	ORG $+3
$SG4294950546 DB 'quant', 00H
	ORG $+3
$SG4294950596 DB 'array_checksum', 00H
	ORG $+1
$SG4294950595 DB 'array_md5', 00H
	ORG $+6
$SG4294950594 DB 'reg_sad', 00H
$SG4294950593 DB 'sad_4x4', 00H
$SG4294950592 DB 'sad_8x8', 00H
$SG4294950591 DB 'sad_16x16', 00H
	ORG $+6
$SG4294950590 DB 'sad_32x32', 00H
	ORG $+6
$SG4294950589 DB 'sad_64x64', 00H
	ORG $+6
$SG4294950588 DB 'satd_4x4', 00H
	ORG $+7
$SG4294950587 DB 'satd_8x8', 00H
	ORG $+7
$SG4294950586 DB 'satd_16x16', 00H
	ORG $+5
$SG4294950585 DB 'satd_32x32', 00H
	ORG $+5
$SG4294950584 DB 'satd_64x64', 00H
	ORG $+5
$SG4294950583 DB 'satd_any_size', 00H
	ORG $+2
$SG4294950582 DB 'sad_4x4_dual', 00H
	ORG $+3
$SG4294950581 DB 'sad_8x8_dual', 00H
	ORG $+3
$SG4294950580 DB 'sad_16x16_dual', 00H
	ORG $+1
$SG4294950579 DB 'sad_32x32_dual', 00H
	ORG $+1
$SG4294950578 DB 'sad_64x64_dual', 00H
	ORG $+1
$SG4294950577 DB 'satd_4x4_dual', 00H
	ORG $+2
$SG4294950576 DB 'satd_8x8_dual', 00H
	ORG $+2
$SG4294950575 DB 'satd_16x16_dual', 00H
$SG4294950574 DB 'satd_32x32_dual', 00H
$SG4294950573 DB 'satd_64x64_dual', 00H
$SG4294950572 DB 'satd_any_size_quad', 00H
	ORG $+5
$SG4294950571 DB 'pixels_calc_ssd', 00H
$SG4294950570 DB 'bipred_average', 00H
	ORG $+1
$SG4294950569 DB 'get_optimized_sad', 00H
	ORG $+6
$SG4294950568 DB 'ver_sad', 00H
$SG4294950567 DB 'hor_sad', 00H
$SG4294950566 DB 'pixel_var', 00H
	ORG $+6
$SG4294950565 DB 'fast_forward_dst_4x4', 00H
	ORG $+3
$SG4294950564 DB 'dct_4x4', 00H
$SG4294950563 DB 'dct_8x8', 00H
$SG4294950562 DB 'dct_16x16', 00H
	ORG $+6
$SG4294950561 DB 'dct_32x32', 00H
	ORG $+6
$SG4294950560 DB 'fast_inverse_dst_4x4', 00H
	ORG $+3
$SG4294950559 DB 'idct_4x4', 00H
	ORG $+7
$SG4294950558 DB 'idct_8x8', 00H
	ORG $+7
$SG4294950557 DB 'idct_16x16', 00H
	ORG $+5
$SG4294950556 DB 'idct_32x32', 00H
	ORG $+5
$SG4294950555 DB 'filter_hpel_blocks_hor_ver_luma', 00H
$SG4294950554 DB 'filter_hpel_blocks_diag_luma', 00H
	ORG $+3
$SG4294950553 DB 'filter_qpel_blocks_hor_ver_luma', 00H
$SG4294950552 DB 'filter_qpel_blocks_diag_luma', 00H
	ORG $+3
$SG4294950551 DB 'sample_quarterpel_luma', 00H
	ORG $+1
$SG4294950550 DB 'sample_octpel_chroma', 00H
	ORG $+3
$SG4294950549 DB 'sample_quarterpel_luma_hi', 00H
	ORG $+6
$SG4294950548 DB 'sample_octpel_chroma_hi', 00H
$SG4294950547 DB 'get_extended_block', 00H
	ORG $+5
$SG4294950545 DB 'quantize_residual', 00H
	ORG $+6
$SG4294950544 DB 'dequant', 00H
$SG4294950543 DB 'coeff_abs_sum', 00H
	ORG $+2
$SG4294950542 DB 'fast_coeff_cost', 00H
$SG4294950541 DB 'angular_pred', 00H
	ORG $+3
$SG4294950540 DB 'intra_pred_planar', 00H
	ORG $+6
$SG4294950539 DB 'intra_pred_filtered_dc', 00H
	ORG $+1
$SG4294950538 DB 'sao_edge_ddistortion', 00H
	ORG $+3
$SG4294950537 DB 'calc_sao_edge_dir', 00H
	ORG $+6
$SG4294950536 DB 'sao_reconstruct_color', 00H
	ORG $+2
$SG4294950535 DB 'sao_band_ddistortion', 00H
	ORG $+3
$SG4294950534 DB 'encode_coeff_nxn', 00H
PUBLIC	kvz_strategy_register_picture_sse2
pdata	SEGMENT
$pdata$reg_sad_sse2 DD imagerel reg_sad_sse2
	DD	imagerel reg_sad_sse2+55
	DD	imagerel $unwind$reg_sad_sse2
$pdata$1$reg_sad_sse2 DD imagerel reg_sad_sse2+55
	DD	imagerel reg_sad_sse2+500
	DD	imagerel $chain$1$reg_sad_sse2
$pdata$2$reg_sad_sse2 DD imagerel reg_sad_sse2+500
	DD	imagerel reg_sad_sse2+532
	DD	imagerel $chain$2$reg_sad_sse2
$pdata$kvz_strategy_register_picture_sse2 DD imagerel $LN5
	DD	imagerel $LN5+108
	DD	imagerel $unwind$kvz_strategy_register_picture_sse2
xdata	SEGMENT
$unwind$reg_sad_sse2 DD 071201H
	DD	083412H
	DD	0d010e012H
	DD	0700cc00eH
	DD	0600bH
$chain$1$reg_sad_sse2 DD 040d21H
	DD	07f40dH
	DD	065405H
	DD	imagerel reg_sad_sse2
	DD	imagerel reg_sad_sse2+55
	DD	imagerel $unwind$reg_sad_sse2
$chain$2$reg_sad_sse2 DD 021H
	DD	imagerel reg_sad_sse2
	DD	imagerel reg_sad_sse2+55
	DD	imagerel $unwind$reg_sad_sse2
$unwind$kvz_strategy_register_picture_sse2 DD 040a01H
	DD	08340aH
	DD	07006520aH
$SG4294950530 DB 'sad_4x4', 00H
$SG4294950531 DB 'sse2', 00H
	ORG $+3
$SG4294950532 DB 'reg_sad', 00H
$SG4294950533 DB 'sse2', 00H
; Function compile flags: /Ogtpy
; File F:\open_codec_learn_2021\kvazaar-master\src\strategies\sse2\picture-sse2.c
_TEXT	SEGMENT
opaque$ = 64
bitdepth$dead$ = 72
kvz_strategy_register_picture_sse2 PROC

; 84   : int kvz_strategy_register_picture_sse2(void* opaque, uint8_t bitdepth) {

$LN5:
	mov	QWORD PTR [rsp+8], rbx
	push	rdi
	sub	rsp, 48					; 00000030H

; 85   :   bool success = true;
; 86   : #if COMPILE_INTEL_SSE2
; 87   : #if KVZ_BIT_DEPTH == 8
; 88   :   if (bitdepth == 8){
; 89   :     success &= kvz_strategyselector_register(opaque, "reg_sad", "sse2", 10, &reg_sad_sse2);

	lea	rax, OFFSET FLAT:reg_sad_sse2
	mov	r9d, 10
	lea	r8, OFFSET FLAT:$SG4294950533
	mov	QWORD PTR [rsp+32], rax
	lea	rdx, OFFSET FLAT:$SG4294950532
	mov	rdi, rcx
	call	kvz_strategyselector_register
	mov	ebx, eax

; 90   :     success &= kvz_strategyselector_register(opaque, "sad_4x4", "sse2", 10, &sad_8bit_4x4_sse2);

	lea	r8, OFFSET FLAT:$SG4294950531
	lea	rax, OFFSET FLAT:sad_8bit_4x4_sse2
	mov	r9d, 10
	lea	rdx, OFFSET FLAT:$SG4294950530
	mov	QWORD PTR [rsp+32], rax
	mov	rcx, rdi
	and	ebx, 1
	call	kvz_strategyselector_register
	and	eax, ebx

; 91   :   }
; 92   : #endif // KVZ_BIT_DEPTH == 8
; 93   : #endif
; 94   :   return success;
; 95   : }

	mov	rbx, QWORD PTR [rsp+64]
	add	rsp, 48					; 00000030H
	pop	rdi
	ret	0
kvz_strategy_register_picture_sse2 ENDP
_TEXT	ENDS
; Function compile flags: /Ogtpy
; File F:\open_codec_learn_2021\kvazaar-master\src\strategies\sse2\picture-sse2.c
_TEXT	SEGMENT
data1$ = 48
data2$ = 56
width$ = 64
height$ = 72
stride1$ = 80
stride2$ = 88
reg_sad_sse2 PROC

; 46   : {

	mov	QWORD PTR [rsp+24], rbx
	mov	DWORD PTR [rsp+32], r9d
	push	rsi
	push	rdi
	push	r12
	push	r13
	push	r14
	mov	r12d, DWORD PTR stride2$[rsp]

; 47   :   int y, x;
; 48   :   unsigned sad = 0;

	xor	r13d, r13d
	mov	r14d, DWORD PTR stride1$[rsp]
	xor	r11d, r11d
	mov	ebx, r8d
	mov	rdi, rdx
	mov	rsi, rcx
	xorps	xmm2, xmm2

; 49   :   __m128i sse_inc = _mm_setzero_si128 ();
; 50   :   long long int sse_inc_array[2];
; 51   :   
; 52   :   for (y = 0; y < height; ++y) {

	test	r9d, r9d
	jle	$LN3@reg_sad_ss

; 47   :   int y, x;
; 48   :   unsigned sad = 0;

	mov	QWORD PTR [rsp+48], rbp
	lea	eax, DWORD PTR [rbx-16]
	mov	QWORD PTR [rsp+56], r15
	xorps	xmm4, xmm4
	xorps	xmm3, xmm3
	npad	6
$LL4@reg_sad_ss:

; 53   :     for (x = 0; x <= width-16; x+=16) {

	xor	ecx, ecx
	test	eax, eax
	js	SHORT $LN6@reg_sad_ss

; 54   :       const __m128i a = _mm_loadu_si128((__m128i const*) &data1[y * stride1 + x]);
; 55   :       const __m128i b = _mm_loadu_si128((__m128i const*) &data2[y * stride2 + x]);

	mov	r8d, r11d
	mov	r9d, r11d
	imul	r8d, r12d
	mov	rcx, rbx
	imul	r9d, r14d
	shr	rcx, 4
	mov	r10, rcx
	sub	r9d, r8d
	shl	ecx, 4
	npad	12
$LL7@reg_sad_ss:

; 56   :       sse_inc = _mm_add_epi32(sse_inc, _mm_sad_epu8(a,b));

	lea	eax, DWORD PTR [r9+r8]
	movdqu	xmm0, XMMWORD PTR [r8+rdi]
	lea	r8d, DWORD PTR [r8+16]
	movdqu	xmm1, XMMWORD PTR [rax+rsi]
	psadbw	xmm1, xmm0
	paddd	xmm1, xmm2
	movdqa	xmm2, xmm1
	sub	r10, 1
	jne	SHORT $LL7@reg_sad_ss
$LN6@reg_sad_ss:

; 57   :     }
; 58   : 
; 59   :     for (; x < width; ++x) {

	mov	eax, ebx
	sub	eax, ecx
	cmp	ecx, ebx
	jge	SHORT $LN19@reg_sad_ss
	cmp	eax, 32					; 00000020H
	jb	SHORT $LN19@reg_sad_ss

; 60   :       sad += abs(data1[y * stride1 + x] - data2[y * stride2 + x]);

	mov	r10d, r11d
	imul	r10d, r14d
	mov	r14d, r11d
	imul	r14d, r12d
	and	eax, -2147483617			; ffffffff8000001fH
	jge	SHORT $LN33@reg_sad_ss

; 57   :     }
; 58   : 
; 59   :     for (; x < width; ++x) {

	dec	eax
	or	eax, -32				; ffffffffffffffe0H
	inc	eax
$LN33@reg_sad_ss:
	mov	r9d, ebx
	sub	r9d, eax
	npad	12
$LL10@reg_sad_ss:

; 60   :       sad += abs(data1[y * stride1 + x] - data2[y * stride2 + x]);

	lea	edx, DWORD PTR [r10+rcx]
	movdqu	xmm1, XMMWORD PTR [rdx+rsi]
	lea	r8d, DWORD PTR [r14+rcx]
	add	ecx, 32					; 00000020H
	lea	eax, DWORD PTR [rdx+16]
	movdqu	xmm0, XMMWORD PTR [r8+rdi]
	psadbw	xmm1, xmm0
	paddd	xmm1, xmm4
	movdqa	xmm4, xmm1
	movdqu	xmm1, XMMWORD PTR [rax+rsi]
	lea	eax, DWORD PTR [r8+16]
	movdqu	xmm0, XMMWORD PTR [rax+rdi]
	psadbw	xmm1, xmm0
	paddd	xmm1, xmm3
	movdqa	xmm3, xmm1
	cmp	ecx, r9d
	jl	SHORT $LL10@reg_sad_ss
	mov	r14d, DWORD PTR stride1$[rsp]
$LN19@reg_sad_ss:
	xor	ebp, ebp
	xor	r15d, r15d

; 57   :     }
; 58   : 
; 59   :     for (; x < width; ++x) {

	cmp	ecx, ebx
	jge	$LN2@reg_sad_ss
	mov	r10d, r14d
	mov	eax, ebx
	mov	r14d, r12d
	imul	r10d, r11d
	imul	r14d, r11d
	sub	eax, ecx
	cmp	eax, 2
	jl	SHORT $LC26@reg_sad_ss
	lea	r12d, DWORD PTR [rbx-1]

; 60   :       sad += abs(data1[y * stride1 + x] - data2[y * stride2 + x]);

$LL28@reg_sad_ss:
	lea	r8d, DWORD PTR [r14+rcx]
	movzx	edx, BYTE PTR [r8+rdi]
	lea	r9d, DWORD PTR [r10+rcx]
	movzx	eax, BYTE PTR [r9+rsi]
	add	ecx, 2
	sub	eax, edx
	cdq
	xor	eax, edx
	sub	eax, edx
	add	ebp, eax
	lea	eax, DWORD PTR [r8+1]
	movzx	r8d, BYTE PTR [rax+rdi]
	lea	eax, DWORD PTR [r9+1]
	movzx	eax, BYTE PTR [rax+rsi]
	sub	eax, r8d
	cdq
	xor	eax, edx
	sub	eax, edx
	add	r15d, eax
	cmp	ecx, r12d
	jl	SHORT $LL28@reg_sad_ss

; 57   :     }
; 58   : 
; 59   :     for (; x < width; ++x) {

	cmp	ecx, ebx
	jge	SHORT $LN27@reg_sad_ss
$LC26@reg_sad_ss:

; 60   :       sad += abs(data1[y * stride1 + x] - data2[y * stride2 + x]);

	lea	eax, DWORD PTR [r14+rcx]
	movzx	r8d, BYTE PTR [rax+rdi]
	lea	eax, DWORD PTR [r10+rcx]
	movzx	eax, BYTE PTR [rax+rsi]
	sub	eax, r8d
	cdq
	xor	eax, edx
	sub	eax, edx
	add	r13d, eax
$LN27@reg_sad_ss:
	mov	r12d, DWORD PTR stride2$[rsp]
	lea	eax, DWORD PTR [r15+rbp]
	add	r13d, eax
$LN2@reg_sad_ss:

; 49   :   __m128i sse_inc = _mm_setzero_si128 ();
; 50   :   long long int sse_inc_array[2];
; 51   :   
; 52   :   for (y = 0; y < height; ++y) {

	mov	r14d, DWORD PTR stride1$[rsp]
	lea	eax, DWORD PTR [rbx-16]
	inc	r11d
	cmp	r11d, DWORD PTR height$[rsp]
	jl	$LL4@reg_sad_ss

; 60   :       sad += abs(data1[y * stride1 + x] - data2[y * stride2 + x]);

	mov	r15, QWORD PTR [rsp+56]
	paddd	xmm3, xmm4
	mov	rbp, QWORD PTR [rsp+48]
	movdqa	xmm0, xmm3
	psrldq	xmm0, 8
	paddd	xmm3, xmm0
	movd	eax, xmm3
	add	r13d, eax
$LN3@reg_sad_ss:

; 61   :     }
; 62   :   }
; 63   :   _mm_storeu_si128((__m128i*) sse_inc_array, sse_inc);
; 64   :   sad += sse_inc_array[0] + sse_inc_array[1];
; 65   : 
; 66   :   return sad;
; 67   : }

	mov	rbx, QWORD PTR [rsp+64]
	movd	ecx, xmm2
	psrldq	xmm2, 8
	movd	eax, xmm2
	add	eax, ecx
	add	eax, r13d
	pop	r14
	pop	r13
	pop	r12
	pop	rdi
	pop	rsi
	ret	0
reg_sad_sse2 ENDP
_TEXT	ENDS
; Function compile flags: /Ogtpy
; File F:\open_codec_learn_2021\kvazaar-master\src\strategies\sse2\picture-sse2.c
_TEXT	SEGMENT
buf1$ = 8
buf2$ = 16
sad_8bit_4x4_sse2 PROC

; 71   :   const __m128i *const mbuf1 = (const __m128i *)buf1;
; 72   :   const __m128i *const mbuf2 = (const __m128i *)buf2;
; 73   : 
; 74   :   __m128i sum = _mm_sad_epu8(_mm_load_si128(mbuf1), _mm_load_si128(mbuf2));

	movdqu	xmm1, XMMWORD PTR [rcx]
	psadbw	xmm1, XMMWORD PTR [rdx]

; 75   : 
; 76   :   uint32_t result[4];
; 77   :   _mm_storeu_si128((__m128i*)result, sum);
; 78   :   return result[0] + result[2];

	movdqa	xmm0, xmm1
	movd	eax, xmm1
	psrldq	xmm0, 8
	movd	ecx, xmm0
	add	eax, ecx

; 79   : }

	ret	0
sad_8bit_4x4_sse2 ENDP
_TEXT	ENDS
END
