; Listing generated by Microsoft (R) Optimizing Compiler Version 19.26.28806.0 

include listing.inc

INCLUDELIB OLDNAMES

EXTRN	__imp__Cnd_destroy_in_situ:PROC
EXTRN	_Smtx_unlock_shared:PROC
EXTRN	__imp__Cnd_broadcast:PROC
EXTRN	__imp__Mtx_unlock:PROC
EXTRN	__imp__Thrd_join:PROC
EXTRN	__imp___std_terminate:PROC
EXTRN	__imp__Thrd_id:PROC
EXTRN	__imp__Cnd_wait:PROC
EXTRN	__imp__Cnd_do_broadcast_at_thread_exit:PROC
EXTRN	__imp__Mtx_init_in_situ:PROC
EXTRN	__imp__Mtx_lock:PROC
EXTRN	__imp_terminate:PROC
EXTRN	_Smtx_lock_exclusive:PROC
EXTRN	??3@YAXPEAX_K@Z:PROC				; operator delete
EXTRN	__imp__Mtx_destroy_in_situ:PROC
EXTRN	_Smtx_unlock_exclusive:PROC
EXTRN	_Smtx_lock_shared:PROC
EXTRN	__imp__beginthreadex:PROC
EXTRN	__imp_?_Throw_C_error@std@@YAXH@Z:PROC
EXTRN	__imp_?_Throw_Cpp_error@std@@YAXH@Z:PROC
EXTRN	??2@YAPEAX_K@Z:PROC				; operator new
EXTRN	__imp__Cnd_init_in_situ:PROC
EXTRN	__imp__Cnd_signal:PROC
EXTRN	__imp___CxxFrameHandler4:PROC
?adopt_lock@std@@3Uadopt_lock_t@1@B	ORG $+1		; std::adopt_lock
CONST	ENDS
PUBLIC	??$?0AEAPEAX@?$_Tuple_val@PEAX@std@@QEAA@AEAPEAX@Z ; std::_Tuple_val<void *>::_Tuple_val<void *><void * &>
PUBLIC	??$?0U_Exact_args_t@std@@$0A@@?$tuple@$$V@std@@QEAA@U_Exact_args_t@1@@Z ; std::tuple<>::tuple<><std::_Exact_args_t,0>
PUBLIC	??$forward@AEAPEAV?$tuple@P6APEAXPEAX@ZPEAX@std@@@std@@YAAEAPEAV?$tuple@P6APEAXPEAX@ZPEAX@0@AEAPEAV10@@Z ; std::forward<std::tuple<void * (__cdecl*)(void *),void *> * &>
PUBLIC	??$?0AEAP6APEAXPEAX@Z@?$_Tuple_val@P6APEAXPEAX@Z@std@@QEAA@AEAP6APEAXPEAX@Z@Z ; std::_Tuple_val<void * (__cdecl*)(void *)>::_Tuple_val<void * (__cdecl*)(void *)><void * (__cdecl*&)(void *)>
PUBLIC	??$?0U_Exact_args_t@std@@AEAPEAX$$V$0A@@?$tuple@PEAX@std@@QEAA@U_Exact_args_t@1@AEAPEAX@Z ; std::tuple<void *>::tuple<void *><std::_Exact_args_t,void * &,0>
PUBLIC	??$forward@PEAV?$tuple@P6APEAXPEAX@ZPEAX@std@@@std@@YA$$QEAPEAV?$tuple@P6APEAXPEAX@ZPEAX@0@AEAPEAV10@@Z ; std::forward<std::tuple<void * (__cdecl*)(void *),void *> *>
PUBLIC	??$?0AEAPEAV?$tuple@P6APEAXPEAX@ZPEAX@std@@@?$_Compressed_pair@U?$default_delete@V?$tuple@P6APEAXPEAX@ZPEAX@std@@@std@@PEAV?$tuple@P6APEAXPEAX@ZPEAX@2@$00@std@@QEAA@U_Zero_then_variadic_args_t@1@AEAPEAV?$tuple@P6APEAXPEAX@ZPEAX@1@@Z ; std::_Compressed_pair<std::default_delete<std::tuple<void * (__cdecl*)(void *),void *> >,std::tuple<void * (__cdecl*)(void *),void *> *,1>::_Compressed_pair<std::default_delete<std::tuple<void * (__cdecl*)(void *),void *> >,std::tuple<void * (__cdecl*)(void *),void *> *,1><std::tuple<void * (__cdecl*)(void *),void *> * &>
PUBLIC	??$?0U_Exact_args_t@std@@AEAP6APEAXPEAX@ZAEAPEAX$0A@@?$tuple@P6APEAXPEAX@ZPEAX@std@@QEAA@U_Exact_args_t@1@AEAP6APEAXPEAX@ZAEAPEAX@Z ; std::tuple<void * (__cdecl*)(void *),void *>::tuple<void * (__cdecl*)(void *),void *><std::_Exact_args_t,void * (__cdecl*&)(void *),void * &,0>
PUBLIC	??$_Call@P6APEAXPEAX@ZPEAX@_Invoker_functor@std@@SAPEAX$$QEAP6APEAXPEAX@Z$$QEAPEAX@Z ; std::_Invoker_functor::_Call<void * (__cdecl*)(void *),void *>
PUBLIC	??$forward@PEAX@std@@YA$$QEAPEAXAEAPEAX@Z	; std::forward<void *>
PUBLIC	??$forward@P6APEAXPEAX@Z@std@@YA$$QEAP6APEAXPEAX@ZAEAP6APEAX0@Z@Z ; std::forward<void * (__cdecl*)(void *)>
PUBLIC	??$invoke@P6APEAXPEAX@ZPEAX@std@@YAPEAX$$QEAP6APEAXPEAX@Z$$QEAPEAX@Z ; std::invoke<void * (__cdecl*)(void *),void *>
PUBLIC	??$move@AEAPEAX@std@@YA$$QEAPEAXAEAPEAX@Z	; std::move<void * &>
PUBLIC	??$get@$00P6APEAXPEAX@ZPEAX@std@@YAAEAPEAXAEAV?$tuple@P6APEAXPEAX@ZPEAX@0@@Z ; std::get<1,void * (__cdecl*)(void *),void *>
PUBLIC	??$move@AEAP6APEAXPEAX@Z@std@@YA$$QEAP6APEAXPEAX@ZAEAP6APEAX0@Z@Z ; std::move<void * (__cdecl*&)(void *)>
PUBLIC	??$get@$0A@P6APEAXPEAX@ZPEAX@std@@YAAEAP6APEAXPEAX@ZAEAV?$tuple@P6APEAXPEAX@ZPEAX@0@@Z ; std::get<0,void * (__cdecl*)(void *),void *>
PUBLIC	??$?0U?$default_delete@V?$tuple@P6APEAXPEAX@ZPEAX@std@@@std@@PEAV?$tuple@P6APEAXPEAX@ZPEAX@1@@?$_Compressed_pair@U?$default_delete@V?$tuple@P6APEAXPEAX@ZPEAX@std@@@std@@PEAV?$tuple@P6APEAXPEAX@ZPEAX@2@$00@std@@QEAA@U_One_then_variadic_args_t@1@$$QEAU?$default_delete@V?$tuple@P6APEAXPEAX@ZPEAX@std@@@1@$$QEAPEAV?$tuple@P6APEAXPEAX@ZPEAX@1@@Z ; std::_Compressed_pair<std::default_delete<std::tuple<void * (__cdecl*)(void *),void *> >,std::tuple<void * (__cdecl*)(void *),void *> *,1>::_Compressed_pair<std::default_delete<std::tuple<void * (__cdecl*)(void *),void *> >,std::tuple<void * (__cdecl*)(void *),void *> *,1><std::default_delete<std::tuple<void * (__cdecl*)(void *),void *> >,std::tuple<void * (__cdecl*)(void *),void *> *>
PUBLIC	??$forward@U?$default_delete@V?$tuple@P6APEAXPEAX@ZPEAX@std@@@std@@@std@@YA$$QEAU?$default_delete@V?$tuple@P6APEAXPEAX@ZPEAX@std@@@0@AEAU10@@Z ; std::forward<std::default_delete<std::tuple<void * (__cdecl*)(void *),void *> > >
PUBLIC	??$?0U?$default_delete@V?$tuple@P6APEAXPEAX@ZPEAX@std@@@std@@$0A@@?$unique_ptr@V?$tuple@P6APEAXPEAX@ZPEAX@std@@U?$default_delete@V?$tuple@P6APEAXPEAX@ZPEAX@std@@@2@@std@@QEAA@PEAV?$tuple@P6APEAXPEAX@ZPEAX@1@@Z ; std::unique_ptr<std::tuple<void * (__cdecl*)(void *),void *>,std::default_delete<std::tuple<void * (__cdecl*)(void *),void *> > >::unique_ptr<std::tuple<void * (__cdecl*)(void *),void *>,std::default_delete<std::tuple<void * (__cdecl*)(void *),void *> > ><std::default_delete<std::tuple<void * (__cdecl*)(void *),void *> >,0>
PUBLIC	??$?0AEAP6APEAXPEAX@ZAEAPEAX$0A@@?$tuple@P6APEAXPEAX@ZPEAX@std@@QEAA@AEAP6APEAXPEAX@ZAEAPEAX@Z ; std::tuple<void * (__cdecl*)(void *),void *>::tuple<void * (__cdecl*)(void *),void *><void * (__cdecl*&)(void *),void * &,0>
PUBLIC	?get_deleter@?$unique_ptr@V?$tuple@P6APEAXPEAX@ZPEAX@std@@U?$default_delete@V?$tuple@P6APEAXPEAX@ZPEAX@std@@@2@@std@@QEAAAEAU?$default_delete@V?$tuple@P6APEAXPEAX@ZPEAX@std@@@2@XZ ; std::unique_ptr<std::tuple<void * (__cdecl*)(void *),void *>,std::default_delete<std::tuple<void * (__cdecl*)(void *),void *> > >::get_deleter
PUBLIC	??D?$unique_ptr@V?$tuple@P6APEAXPEAX@ZPEAX@std@@U?$default_delete@V?$tuple@P6APEAXPEAX@ZPEAX@std@@@2@@std@@QEBAAEAV?$tuple@P6APEAXPEAX@ZPEAX@1@XZ ; std::unique_ptr<std::tuple<void * (__cdecl*)(void *),void *>,std::default_delete<std::tuple<void * (__cdecl*)(void *),void *> > >::operator*
PUBLIC	??$exchange@PEAV?$tuple@P6APEAXPEAX@ZPEAX@std@@PEAV12@@std@@YAPEAV?$tuple@P6APEAXPEAX@ZPEAX@0@AEAPEAV10@$$QEAPEAV10@@Z ; std::exchange<std::tuple<void * (__cdecl*)(void *),void *> *,std::tuple<void * (__cdecl*)(void *),void *> *>
PUBLIC	??$_Invoke@V?$tuple@P6APEAXPEAX@ZPEAX@std@@$0A@$00@thread@std@@CAIPEAX@Z ; std::thread::_Invoke<std::tuple<void * (__cdecl*)(void *),void *>,0,1>
PUBLIC	??$?0U?$default_delete@V?$tuple@P6APEAXPEAX@ZPEAX@std@@@std@@$0A@@?$unique_ptr@V?$tuple@P6APEAXPEAX@ZPEAX@std@@U?$default_delete@V?$tuple@P6APEAXPEAX@ZPEAX@std@@@2@@std@@QEAA@$$QEAV01@@Z ; std::unique_ptr<std::tuple<void * (__cdecl*)(void *),void *>,std::default_delete<std::tuple<void * (__cdecl*)(void *),void *> > >::unique_ptr<std::tuple<void * (__cdecl*)(void *),void *>,std::default_delete<std::tuple<void * (__cdecl*)(void *),void *> > ><std::default_delete<std::tuple<void * (__cdecl*)(void *),void *> >,0>
PUBLIC	??$make_unique@V?$tuple@P6APEAXPEAX@ZPEAX@std@@AEAP6APEAXPEAX@ZAEAPEAX$0A@@std@@YA?AV?$unique_ptr@V?$tuple@P6APEAXPEAX@ZPEAX@std@@U?$default_delete@V?$tuple@P6APEAXPEAX@ZPEAX@std@@@2@@0@AEAP6APEAXPEAX@ZAEAPEAX@Z ; std::make_unique<std::tuple<void * (__cdecl*)(void *),void *>,void * (__cdecl*&)(void *),void * &,0>
PUBLIC	??$forward@AEAPEAX@std@@YAAEAPEAXAEAPEAX@Z	; std::forward<void * &>
PUBLIC	??$forward@AEAP6APEAXPEAX@Z@std@@YAAEAP6APEAXPEAX@ZAEAP6APEAX0@Z@Z ; std::forward<void * (__cdecl*&)(void *)>
PUBLIC	??R?$default_delete@V?$tuple@P6APEAXPEAX@ZPEAX@std@@@std@@QEBAXPEAV?$tuple@P6APEAXPEAX@ZPEAX@1@@Z ; std::default_delete<std::tuple<void * (__cdecl*)(void *),void *> >::operator()
PUBLIC	?_Get_first@?$_Compressed_pair@U?$default_delete@V?$tuple@P6APEAXPEAX@ZPEAX@std@@@std@@PEAV?$tuple@P6APEAXPEAX@ZPEAX@2@$00@std@@QEAAAEAU?$default_delete@V?$tuple@P6APEAXPEAX@ZPEAX@std@@@2@XZ ; std::_Compressed_pair<std::default_delete<std::tuple<void * (__cdecl*)(void *),void *> >,std::tuple<void * (__cdecl*)(void *),void *> *,1>::_Get_first
PUBLIC	??1?$unique_ptr@V?$tuple@P6APEAXPEAX@ZPEAX@std@@U?$default_delete@V?$tuple@P6APEAXPEAX@ZPEAX@std@@@2@@std@@QEAA@XZ ; std::unique_ptr<std::tuple<void * (__cdecl*)(void *),void *>,std::default_delete<std::tuple<void * (__cdecl*)(void *),void *> > >::~unique_ptr<std::tuple<void * (__cdecl*)(void *),void *>,std::default_delete<std::tuple<void * (__cdecl*)(void *),void *> > >
PUBLIC	?get@?$unique_ptr@V?$tuple@P6APEAXPEAX@ZPEAX@std@@U?$default_delete@V?$tuple@P6APEAXPEAX@ZPEAX@std@@@2@@std@@QEBAPEAV?$tuple@P6APEAXPEAX@ZPEAX@2@XZ ; std::unique_ptr<std::tuple<void * (__cdecl*)(void *),void *>,std::default_delete<std::tuple<void * (__cdecl*)(void *),void *> > >::get
PUBLIC	?release@?$unique_ptr@V?$tuple@P6APEAXPEAX@ZPEAX@std@@U?$default_delete@V?$tuple@P6APEAXPEAX@ZPEAX@std@@@2@@std@@QEAAPEAV?$tuple@P6APEAXPEAX@ZPEAX@2@XZ ; std::unique_ptr<std::tuple<void * (__cdecl*)(void *),void *>,std::default_delete<std::tuple<void * (__cdecl*)(void *),void *> > >::release
PUBLIC	??$addressof@Vmutex@std@@@std@@YAPEAVmutex@0@AEAV10@@Z ; std::addressof<std::mutex>
PUBLIC	??$?0AEAP6APEAXPEAX@ZAEAPEAX$0A@@thread@std@@QEAA@AEAP6APEAXPEAX@ZAEAPEAX@Z ; std::thread::thread<void * (__cdecl*&)(void *),void * &,0>
PUBLIC	??0?$unique_lock@Vmutex@std@@@std@@QEAA@AEAVmutex@1@Uadopt_lock_t@1@@Z ; std::unique_lock<std::mutex>::unique_lock<std::mutex>
PUBLIC	??1?$unique_lock@Vmutex@std@@@std@@QEAA@XZ	; std::unique_lock<std::mutex>::~unique_lock<std::mutex>
PUBLIC	?release@?$unique_lock@Vmutex@std@@@std@@QEAAPEAVmutex@2@XZ ; std::unique_lock<std::mutex>::release
PUBLIC	?mutex@?$unique_lock@Vmutex@std@@@std@@QEBAPEAV02@XZ ; std::unique_lock<std::mutex>::mutex
PUBLIC	pthread_rwlock_unlock
PUBLIC	pthread_rwlock_wrlock
PUBLIC	pthread_rwlock_rdlock
PUBLIC	??_Gshared_mutex@std@@QEAAPEAXI@Z		; std::shared_mutex::`scalar deleting destructor'
PUBLIC	pthread_rwlock_destroy
PUBLIC	pthread_rwlock_init
PUBLIC	??_Gmutex@std@@QEAAPEAXI@Z			; std::mutex::`scalar deleting destructor'
PUBLIC	??_Gthread@std@@QEAAPEAXI@Z			; std::thread::`scalar deleting destructor'
PUBLIC	pthread_exit
PUBLIC	??_Gcondition_variable@std@@QEAAPEAXI@Z		; std::condition_variable::`scalar deleting destructor'
PUBLIC	?unlock_shared@shared_mutex@std@@QEAAXXZ	; std::shared_mutex::unlock_shared
PUBLIC	?lock_shared@shared_mutex@std@@QEAAXXZ		; std::shared_mutex::lock_shared
PUBLIC	?unlock@shared_mutex@std@@QEAAXXZ		; std::shared_mutex::unlock
PUBLIC	?lock@shared_mutex@std@@QEAAXXZ			; std::shared_mutex::lock
PUBLIC	??1shared_mutex@std@@QEAA@XZ			; std::shared_mutex::~shared_mutex
PUBLIC	??0shared_mutex@std@@QEAA@XZ			; std::shared_mutex::shared_mutex
PUBLIC	??1mutex@std@@QEAA@XZ				; std::mutex::~mutex
PUBLIC	?_Mycnd@condition_variable@std@@AEAAPEAU_Cnd_internal_imp_t@@XZ ; std::condition_variable::_Mycnd
PUBLIC	?wait@condition_variable@std@@QEAAXAEAV?$unique_lock@Vmutex@std@@@2@@Z ; std::condition_variable::wait
PUBLIC	?notify_all@condition_variable@std@@QEAAXXZ	; std::condition_variable::notify_all
PUBLIC	?notify_one@condition_variable@std@@QEAAXXZ	; std::condition_variable::notify_one
PUBLIC	??1condition_variable@std@@QEAA@XZ		; std::condition_variable::~condition_variable
PUBLIC	??0condition_variable@std@@QEAA@XZ		; std::condition_variable::condition_variable
PUBLIC	??0mutex@std@@QEAA@XZ				; std::mutex::mutex
PUBLIC	?_Mymtx@_Mutex_base@std@@AEAAPEAU_Mtx_internal_imp_t@@XZ ; std::_Mutex_base::_Mymtx
PUBLIC	?unlock@_Mutex_base@std@@QEAAXXZ		; std::_Mutex_base::unlock
PUBLIC	?lock@_Mutex_base@std@@QEAAXXZ			; std::_Mutex_base::lock
PUBLIC	??1_Mutex_base@std@@QEAA@XZ			; std::_Mutex_base::~_Mutex_base
PUBLIC	??0_Mutex_base@std@@QEAA@H@Z			; std::_Mutex_base::_Mutex_base
PUBLIC	?join@thread@std@@QEAAXXZ			; std::thread::join
PUBLIC	?joinable@thread@std@@QEBA_NXZ			; std::thread::joinable
PUBLIC	??1thread@std@@QEAA@XZ				; std::thread::~thread
PUBLIC	?_Check_C_return@std@@YAHH@Z			; std::_Check_C_return
PUBLIC	pthread_mutex_unlock
PUBLIC	pthread_join
PUBLIC	pthread_cond_destroy
PUBLIC	pthread_cond_signal
PUBLIC	pthread_mutex_destroy
PUBLIC	pthread_create
PUBLIC	pthread_mutex_lock
PUBLIC	pthread_cond_wait
PUBLIC	pthread_cond_broadcast
PUBLIC	pthread_mutex_init
PUBLIC	pthread_cond_init
EXTRN	__std_terminate:PROC
;	COMDAT pdata
pdata	SEGMENT
$pdata$??$_Invoke@V?$tuple@P6APEAXPEAX@ZPEAX@std@@$0A@$00@thread@std@@CAIPEAX@Z DD imagerel $LN18
	DD	imagerel $LN18+42
	DD	imagerel $unwind$??$_Invoke@V?$tuple@P6APEAXPEAX@ZPEAX@std@@$0A@$00@thread@std@@CAIPEAX@Z
pdata	ENDS
;	COMDAT pdata
pdata	SEGMENT
$pdata$??$make_unique@V?$tuple@P6APEAXPEAX@ZPEAX@std@@AEAP6APEAXPEAX@ZAEAPEAX$0A@@std@@YA?AV?$unique_ptr@V?$tuple@P6APEAXPEAX@ZPEAX@std@@U?$default_delete@V?$tuple@P6APEAXPEAX@ZPEAX@std@@@2@@0@AEAP6APEAXPEAX@ZAEAPEAX@Z DD imagerel $LN37
	DD	imagerel $LN37+69
	DD	imagerel $unwind$??$make_unique@V?$tuple@P6APEAXPEAX@ZPEAX@std@@AEAP6APEAXPEAX@ZAEAPEAX$0A@@std@@YA?AV?$unique_ptr@V?$tuple@P6APEAXPEAX@ZPEAX@std@@U?$default_delete@V?$tuple@P6APEAXPEAX@ZPEAX@std@@@2@@0@AEAP6APEAXPEAX@ZAEAPEAX@Z
pdata	ENDS
;	COMDAT pdata
pdata	SEGMENT
$pdata$??$?0AEAP6APEAXPEAX@ZAEAPEAX$0A@@thread@std@@QEAA@AEAP6APEAXPEAX@ZAEAPEAX@Z DD imagerel $LN66
	DD	imagerel $LN66+128
	DD	imagerel $unwind$??$?0AEAP6APEAXPEAX@ZAEAPEAX$0A@@thread@std@@QEAA@AEAP6APEAXPEAX@ZAEAPEAX@Z
pdata	ENDS
;	COMDAT pdata
pdata	SEGMENT
$pdata$??1?$unique_lock@Vmutex@std@@@std@@QEAA@XZ DD imagerel $LN14
	DD	imagerel $LN14+37
	DD	imagerel $unwind$??1?$unique_lock@Vmutex@std@@@std@@QEAA@XZ
pdata	ENDS
pdata	SEGMENT
$pdata$pthread_rwlock_unlock DD imagerel $LN12
	DD	imagerel $LN12+53
	DD	imagerel $unwind$pthread_rwlock_unlock
$pdata$pthread_rwlock_wrlock DD imagerel $LN7
	DD	imagerel $LN7+35
	DD	imagerel $unwind$pthread_rwlock_wrlock
$pdata$pthread_rwlock_rdlock DD imagerel $LN7
	DD	imagerel $LN7+22
	DD	imagerel $unwind$pthread_rwlock_rdlock
pdata	ENDS
;	COMDAT pdata
pdata	SEGMENT
$pdata$??_Gshared_mutex@std@@QEAAPEAXI@Z DD imagerel $LN6
	DD	imagerel $LN6+28
	DD	imagerel $unwind$??_Gshared_mutex@std@@QEAAPEAXI@Z
pdata	ENDS
pdata	SEGMENT
$pdata$pthread_rwlock_destroy DD imagerel $LN10
	DD	imagerel $LN10+54
	DD	imagerel $unwind$pthread_rwlock_destroy
$pdata$pthread_rwlock_init DD imagerel $LN9
	DD	imagerel $LN9+60
	DD	imagerel $unwind$pthread_rwlock_init
pdata	ENDS
;	COMDAT pdata
pdata	SEGMENT
$pdata$??_Gmutex@std@@QEAAPEAXI@Z DD imagerel $LN11
	DD	imagerel $LN11+37
	DD	imagerel $unwind$??_Gmutex@std@@QEAAPEAXI@Z
pdata	ENDS
;	COMDAT pdata
pdata	SEGMENT
$pdata$??_Gthread@std@@QEAAPEAXI@Z DD imagerel $LN13
	DD	imagerel $LN13+41
	DD	imagerel $unwind$??_Gthread@std@@QEAAPEAXI@Z
pdata	ENDS
;	COMDAT pdata
pdata	SEGMENT
$pdata$??_Gcondition_variable@std@@QEAAPEAXI@Z DD imagerel $LN8
	DD	imagerel $LN8+37
	DD	imagerel $unwind$??_Gcondition_variable@std@@QEAAPEAXI@Z
pdata	ENDS
;	COMDAT pdata
pdata	SEGMENT
$pdata$?wait@condition_variable@std@@QEAAXAEAV?$unique_lock@Vmutex@std@@@2@@Z DD imagerel $LN9
	DD	imagerel $LN9+31
	DD	imagerel $unwind$?wait@condition_variable@std@@QEAAXAEAV?$unique_lock@Vmutex@std@@@2@@Z
pdata	ENDS
;	COMDAT pdata
pdata	SEGMENT
$pdata$?notify_all@condition_variable@std@@QEAAXXZ DD imagerel $LN10
	DD	imagerel $LN10+28
	DD	imagerel $unwind$?notify_all@condition_variable@std@@QEAAXXZ
pdata	ENDS
;	COMDAT pdata
pdata	SEGMENT
$pdata$?notify_one@condition_variable@std@@QEAAXXZ DD imagerel $LN10
	DD	imagerel $LN10+28
	DD	imagerel $unwind$?notify_one@condition_variable@std@@QEAAXXZ
pdata	ENDS
;	COMDAT pdata
pdata	SEGMENT
$pdata$??0condition_variable@std@@QEAA@XZ DD imagerel $LN4
	DD	imagerel $LN4+24
	DD	imagerel $unwind$??0condition_variable@std@@QEAA@XZ
pdata	ENDS
;	COMDAT pdata
pdata	SEGMENT
$pdata$??0mutex@std@@QEAA@XZ DD imagerel $LN7
	DD	imagerel $LN7+29
	DD	imagerel $unwind$??0mutex@std@@QEAA@XZ
pdata	ENDS
;	COMDAT pdata
pdata	SEGMENT
$pdata$?unlock@_Mutex_base@std@@QEAAXXZ DD imagerel $LN9
	DD	imagerel $LN9+28
	DD	imagerel $unwind$?unlock@_Mutex_base@std@@QEAAXXZ
pdata	ENDS
;	COMDAT pdata
pdata	SEGMENT
$pdata$?lock@_Mutex_base@std@@QEAAXXZ DD imagerel $LN9
	DD	imagerel $LN9+28
	DD	imagerel $unwind$?lock@_Mutex_base@std@@QEAAXXZ
pdata	ENDS
;	COMDAT pdata
pdata	SEGMENT
$pdata$??0_Mutex_base@std@@QEAA@H@Z DD imagerel $LN5
	DD	imagerel $LN5+29
	DD	imagerel $unwind$??0_Mutex_base@std@@QEAA@H@Z
pdata	ENDS
;	COMDAT pdata
pdata	SEGMENT
$pdata$?join@thread@std@@QEAAXXZ DD imagerel $LN11
	DD	imagerel $LN11+99
	DD	imagerel $unwind$?join@thread@std@@QEAAXXZ
pdata	ENDS
;	COMDAT pdata
pdata	SEGMENT
$pdata$??1thread@std@@QEAA@XZ DD imagerel $LN9
	DD	imagerel $LN9+22
	DD	imagerel $unwind$??1thread@std@@QEAA@XZ
pdata	ENDS
;	COMDAT pdata
pdata	SEGMENT
$pdata$?_Check_C_return@std@@YAHH@Z DD imagerel $LN6
	DD	imagerel $LN6+22
	DD	imagerel $unwind$?_Check_C_return@std@@YAHH@Z
pdata	ENDS
pdata	SEGMENT
$pdata$pthread_mutex_unlock DD imagerel $LN12
	DD	imagerel $LN12+33
	DD	imagerel $unwind$pthread_mutex_unlock
$pdata$pthread_join DD imagerel $LN25
	DD	imagerel $LN25+127
	DD	imagerel $unwind$pthread_join
$pdata$pthread_cond_destroy DD imagerel $LN14
	DD	imagerel $LN14+83
	DD	imagerel $unwind$pthread_cond_destroy
$pdata$pthread_cond_signal DD imagerel $LN14
	DD	imagerel $LN14+33
	DD	imagerel $unwind$pthread_cond_signal
$pdata$pthread_mutex_destroy DD imagerel $LN17
	DD	imagerel $LN17+83
	DD	imagerel $unwind$pthread_mutex_destroy
$pdata$pthread_create DD imagerel $LN66
	DD	imagerel $LN66+136
	DD	imagerel $unwind$pthread_create
$pdata$pthread_mutex_lock DD imagerel $LN12
	DD	imagerel $LN12+33
	DD	imagerel $unwind$pthread_mutex_lock
$pdata$pthread_cond_wait DD imagerel $LN28
	DD	imagerel $LN28+36
	DD	imagerel $unwind$pthread_cond_wait
$pdata$pthread_cond_broadcast DD imagerel $LN14
	DD	imagerel $LN14+33
	DD	imagerel $unwind$pthread_cond_broadcast
$pdata$pthread_mutex_init DD imagerel $LN12
	DD	imagerel $LN12+56
	DD	imagerel $unwind$pthread_mutex_init
$pdata$pthread_cond_init DD imagerel $LN9
	DD	imagerel $LN9+51
	DD	imagerel $unwind$pthread_cond_init
pdata	ENDS
;	COMDAT xdata
xdata	SEGMENT
$unwind$?_Check_C_return@std@@YAHH@Z DD 010401H
	DD	04204H
xdata	ENDS
;	COMDAT xdata
xdata	SEGMENT
$unwind$??1thread@std@@QEAA@XZ DD 010401H
	DD	04204H
xdata	ENDS
;	COMDAT xdata
xdata	SEGMENT
$unwind$?join@thread@std@@QEAAXXZ DD 020601H
	DD	030025206H
xdata	ENDS
;	COMDAT xdata
xdata	SEGMENT
$unwind$??0_Mutex_base@std@@QEAA@H@Z DD 020601H
	DD	030023206H
xdata	ENDS
;	COMDAT xdata
xdata	SEGMENT
$unwind$?lock@_Mutex_base@std@@QEAAXXZ DD 010401H
	DD	04204H
xdata	ENDS
;	COMDAT xdata
xdata	SEGMENT
$unwind$?unlock@_Mutex_base@std@@QEAAXXZ DD 010401H
	DD	04204H
xdata	ENDS
;	COMDAT xdata
xdata	SEGMENT
$unwind$??0mutex@std@@QEAA@XZ DD 020601H
	DD	030023206H
xdata	ENDS
;	COMDAT xdata
xdata	SEGMENT
$unwind$??0condition_variable@std@@QEAA@XZ DD 020601H
	DD	030023206H
xdata	ENDS
;	COMDAT xdata
xdata	SEGMENT
$ip2state$?notify_one@condition_variable@std@@QEAAXXZ DB 02H
	DB	' '
	DB	00H
xdata	ENDS
;	COMDAT xdata
xdata	SEGMENT
$cppxdata$?notify_one@condition_variable@std@@QEAAXXZ DB 060H
	DD	imagerel $ip2state$?notify_one@condition_variable@std@@QEAAXXZ
xdata	ENDS
;	COMDAT xdata
xdata	SEGMENT
$unwind$?notify_one@condition_variable@std@@QEAAXXZ DD 010419H
	DD	04204H
	DD	imagerel __CxxFrameHandler4
	DD	imagerel $cppxdata$?notify_one@condition_variable@std@@QEAAXXZ
xdata	ENDS
;	COMDAT xdata
xdata	SEGMENT
$ip2state$?notify_all@condition_variable@std@@QEAAXXZ DB 02H
	DB	' '
	DB	00H
xdata	ENDS
;	COMDAT xdata
xdata	SEGMENT
$cppxdata$?notify_all@condition_variable@std@@QEAAXXZ DB 060H
	DD	imagerel $ip2state$?notify_all@condition_variable@std@@QEAAXXZ
xdata	ENDS
;	COMDAT xdata
xdata	SEGMENT
$unwind$?notify_all@condition_variable@std@@QEAAXXZ DD 010419H
	DD	04204H
	DD	imagerel __CxxFrameHandler4
	DD	imagerel $cppxdata$?notify_all@condition_variable@std@@QEAAXXZ
xdata	ENDS
;	COMDAT xdata
xdata	SEGMENT
$unwind$?wait@condition_variable@std@@QEAAXAEAV?$unique_lock@Vmutex@std@@@2@@Z DD 010401H
	DD	04204H
xdata	ENDS
;	COMDAT xdata
xdata	SEGMENT
$unwind$??_Gcondition_variable@std@@QEAAPEAXI@Z DD 020601H
	DD	030023206H
xdata	ENDS
;	COMDAT xdata
xdata	SEGMENT
$unwind$??_Gthread@std@@QEAAPEAXI@Z DD 020601H
	DD	030023206H
xdata	ENDS
;	COMDAT xdata
xdata	SEGMENT
$unwind$??_Gmutex@std@@QEAAPEAXI@Z DD 020601H
	DD	030023206H
xdata	ENDS
;	COMDAT xdata
xdata	SEGMENT
$unwind$??_Gshared_mutex@std@@QEAAPEAXI@Z DD 020601H
	DD	030023206H
xdata	ENDS
xdata	SEGMENT
$unwind$pthread_rwlock_unlock DD 010401H
	DD	04204H
$unwind$pthread_rwlock_wrlock DD 020601H
	DD	030023206H
$unwind$pthread_rwlock_rdlock DD 010401H
	DD	04204H
$unwind$pthread_rwlock_destroy DD 020601H
	DD	030023206H
$unwind$pthread_rwlock_init DD 020601H
	DD	030023206H
$unwind$pthread_mutex_unlock DD 010401H
	DD	04204H
$unwind$pthread_join DD 020601H
	DD	030025206H
$unwind$pthread_cond_destroy DD 040a01H
	DD	06340aH
	DD	07006320aH
$unwind$pthread_cond_signal DD 010411H
	DD	04204H
	DD	imagerel __CxxFrameHandler4
	DD	imagerel $cppxdata$pthread_cond_signal
$cppxdata$pthread_cond_signal DB 028H
	DD	imagerel $stateUnwindMap$pthread_cond_signal
	DD	imagerel $ip2state$pthread_cond_signal
$stateUnwindMap$pthread_cond_signal DB 02H
	DB	0eH
	DD	imagerel __imp___std_terminate
$ip2state$pthread_cond_signal DB 02H
	DB	'&'
	DB	02H
$cppxdata$pthread_cond_wait DB 028H
	DD	imagerel $stateUnwindMap$pthread_cond_wait
	DD	imagerel $ip2state$pthread_cond_wait
$cppxdata$pthread_cond_broadcast DB 028H
	DD	imagerel $stateUnwindMap$pthread_cond_broadcast
	DD	imagerel $ip2state$pthread_cond_broadcast
$unwind$pthread_mutex_destroy DD 040a01H
	DD	06340aH
	DD	07006320aH
$unwind$pthread_create DD 060f01H
	DD	09640fH
	DD	08340fH
	DD	0700b520fH
$unwind$pthread_mutex_lock DD 010401H
	DD	04204H
$unwind$pthread_cond_wait DD 010411H
	DD	04204H
	DD	imagerel __CxxFrameHandler4
	DD	imagerel $cppxdata$pthread_cond_wait
$stateUnwindMap$pthread_cond_wait DB 02H
	DB	0eH
	DD	imagerel __imp___std_terminate
$ip2state$pthread_cond_wait DB 02H
	DB	','
	DB	00H
$stateUnwindMap$pthread_cond_broadcast DB 02H
	DB	0eH
	DD	imagerel __imp___std_terminate
	ORG $+1
$unwind$pthread_cond_broadcast DD 010411H
	DD	04204H
	DD	imagerel __CxxFrameHandler4
	DD	imagerel $cppxdata$pthread_cond_broadcast
$ip2state$pthread_cond_broadcast DB 02H
	DB	'&'
	DB	02H
	ORG $+1
$unwind$pthread_mutex_init DD 040a01H
	DD	06340aH
	DD	07006320aH
$unwind$pthread_cond_init DD 040a01H
	DD	06340aH
	DD	07006320aH
xdata	ENDS
;	COMDAT xdata
xdata	SEGMENT
$ip2state$??1?$unique_lock@Vmutex@std@@@std@@QEAA@XZ DB 02H
	DB	'2'
	DB	00H
xdata	ENDS
;	COMDAT xdata
xdata	SEGMENT
$cppxdata$??1?$unique_lock@Vmutex@std@@@std@@QEAA@XZ DB 060H
	DD	imagerel $ip2state$??1?$unique_lock@Vmutex@std@@@std@@QEAA@XZ
xdata	ENDS
;	COMDAT xdata
xdata	SEGMENT
$unwind$??1?$unique_lock@Vmutex@std@@@std@@QEAA@XZ DD 010419H
	DD	04204H
	DD	imagerel __CxxFrameHandler4
	DD	imagerel $cppxdata$??1?$unique_lock@Vmutex@std@@@std@@QEAA@XZ
xdata	ENDS
;	COMDAT xdata
xdata	SEGMENT
$ip2state$??$?0AEAP6APEAXPEAX@ZAEAPEAX$0A@@thread@std@@QEAA@AEAP6APEAXPEAX@ZAEAPEAX@Z DB 04H
	DB	':'
	DB	00H
	DB	0b8H
	DB	02H
xdata	ENDS
;	COMDAT xdata
xdata	SEGMENT
$stateUnwindMap$??$?0AEAP6APEAXPEAX@ZAEAPEAX$0A@@thread@std@@QEAA@AEAP6APEAXPEAX@ZAEAPEAX@Z DB 02H
	DB	0aH
	DD	imagerel ??1?$unique_ptr@V?$tuple@P6APEAXPEAX@ZPEAX@std@@U?$default_delete@V?$tuple@P6APEAXPEAX@ZPEAX@std@@@2@@std@@QEAA@XZ
	DB	080H
xdata	ENDS
;	COMDAT xdata
xdata	SEGMENT
$cppxdata$??$?0AEAP6APEAXPEAX@ZAEAPEAX$0A@@thread@std@@QEAA@AEAP6APEAXPEAX@ZAEAPEAX@Z DB 028H
	DD	imagerel $stateUnwindMap$??$?0AEAP6APEAXPEAX@ZAEAPEAX$0A@@thread@std@@QEAA@AEAP6APEAXPEAX@ZAEAPEAX@Z
	DD	imagerel $ip2state$??$?0AEAP6APEAXPEAX@ZAEAPEAX$0A@@thread@std@@QEAA@AEAP6APEAXPEAX@ZAEAPEAX@Z
xdata	ENDS
;	COMDAT xdata
xdata	SEGMENT
$unwind$??$?0AEAP6APEAXPEAX@ZAEAPEAX$0A@@thread@std@@QEAA@AEAP6APEAXPEAX@ZAEAPEAX@Z DD 060f11H
	DD	0a640fH
	DD	09340fH
	DD	0700b520fH
	DD	imagerel __CxxFrameHandler4
	DD	imagerel $cppxdata$??$?0AEAP6APEAXPEAX@ZAEAPEAX$0A@@thread@std@@QEAA@AEAP6APEAXPEAX@ZAEAPEAX@Z
xdata	ENDS
;	COMDAT xdata
xdata	SEGMENT
$unwind$??$make_unique@V?$tuple@P6APEAXPEAX@ZPEAX@std@@AEAP6APEAXPEAX@ZAEAPEAX$0A@@std@@YA?AV?$unique_ptr@V?$tuple@P6APEAXPEAX@ZPEAX@std@@U?$default_delete@V?$tuple@P6APEAXPEAX@ZPEAX@std@@@2@@0@AEAP6APEAXPEAX@ZAEAPEAX@Z DD 060f01H
	DD	07640fH
	DD	06340fH
	DD	0700b320fH
xdata	ENDS
;	COMDAT xdata
xdata	SEGMENT
$ip2state$??$_Invoke@V?$tuple@P6APEAXPEAX@ZPEAX@std@@$0A@$00@thread@std@@CAIPEAX@Z DB 02H
	DB	018H
	DB	00H
xdata	ENDS
;	COMDAT xdata
xdata	SEGMENT
$cppxdata$??$_Invoke@V?$tuple@P6APEAXPEAX@ZPEAX@std@@$0A@$00@thread@std@@CAIPEAX@Z DB 060H
	DD	imagerel $ip2state$??$_Invoke@V?$tuple@P6APEAXPEAX@ZPEAX@std@@$0A@$00@thread@std@@CAIPEAX@Z
xdata	ENDS
;	COMDAT xdata
xdata	SEGMENT
$unwind$??$_Invoke@V?$tuple@P6APEAXPEAX@ZPEAX@std@@$0A@$00@thread@std@@CAIPEAX@Z DD 020619H
	DD	030023206H
	DD	imagerel __CxxFrameHandler4
	DD	imagerel $cppxdata$??$_Invoke@V?$tuple@P6APEAXPEAX@ZPEAX@std@@$0A@$00@thread@std@@CAIPEAX@Z
; Function compile flags: /Ogtpy
; File C:\Users\84038\Desktop\video_codec_thread_test\src\threadwrapper\src\pthread.cpp
; File D:\software_install\VS2019\VC\Tools\MSVC\14.26.28801\include\mutex
; File C:\Users\84038\Desktop\video_codec_thread_test\src\threadwrapper\src\pthread.cpp
; File D:\software_install\VS2019\VC\Tools\MSVC\14.26.28801\include\mutex
; File C:\Users\84038\Desktop\video_codec_thread_test\src\threadwrapper\src\pthread.cpp
_TEXT	SEGMENT
cond$ = 48
__formal$dead$ = 56
pthread_cond_init PROC

; 39   : int pthread_cond_init(pthread_cond_t* cond, const pthread_condattr_t*) {

$LN9:
	mov	QWORD PTR [rsp+8], rbx
	push	rdi
	sub	rsp, 32					; 00000020H
	mov	rdi, rcx

; 40   :     *cond = new std::condition_variable();

	mov	ecx, 72					; 00000048H
	call	??2@YAPEAX_K@Z				; operator new
; File D:\software_install\VS2019\VC\Tools\MSVC\14.26.28801\include\mutex

; 578  :         _Cnd_init_in_situ(_Mycnd());

	mov	rcx, rax
; File C:\Users\84038\Desktop\video_codec_thread_test\src\threadwrapper\src\pthread.cpp

; 40   :     *cond = new std::condition_variable();

	mov	rbx, rax
; File D:\software_install\VS2019\VC\Tools\MSVC\14.26.28801\include\mutex

; 578  :         _Cnd_init_in_situ(_Mycnd());

	call	QWORD PTR __imp__Cnd_init_in_situ
; File C:\Users\84038\Desktop\video_codec_thread_test\src\threadwrapper\src\pthread.cpp

; 40   :     *cond = new std::condition_variable();

	mov	QWORD PTR [rdi], rbx

; 41   :     return 0;

	xor	eax, eax

; 42   : }

	mov	rbx, QWORD PTR [rsp+48]
	add	rsp, 32					; 00000020H
	pop	rdi
	ret	0
pthread_cond_init ENDP
_TEXT	ENDS
; Function compile flags: /Ogtpy
; File C:\Users\84038\Desktop\video_codec_thread_test\src\threadwrapper\src\pthread.cpp
; File D:\software_install\VS2019\VC\Tools\MSVC\14.26.28801\include\mutex
; File C:\Users\84038\Desktop\video_codec_thread_test\src\threadwrapper\src\pthread.cpp
; File D:\software_install\VS2019\VC\Tools\MSVC\14.26.28801\include\mutex
; File C:\Users\84038\Desktop\video_codec_thread_test\src\threadwrapper\src\pthread.cpp
_TEXT	SEGMENT
mutex$ = 48
__formal$dead$ = 56
pthread_mutex_init PROC

; 80   : int pthread_mutex_init(pthread_mutex_t* mutex, const pthread_mutexattr_t*) {

$LN12:
	mov	QWORD PTR [rsp+8], rbx
	push	rdi
	sub	rsp, 32					; 00000020H
	mov	rdi, rcx

; 81   :     *mutex = new std::mutex();

	mov	ecx, 80					; 00000050H
	call	??2@YAPEAX_K@Z				; operator new
; File D:\software_install\VS2019\VC\Tools\MSVC\14.26.28801\include\mutex

; 40   :         _Mtx_init_in_situ(_Mymtx(), _Flags | _Mtx_try);

	mov	edx, 2
	mov	rcx, rax
; File C:\Users\84038\Desktop\video_codec_thread_test\src\threadwrapper\src\pthread.cpp

; 81   :     *mutex = new std::mutex();

	mov	rbx, rax
; File D:\software_install\VS2019\VC\Tools\MSVC\14.26.28801\include\mutex

; 40   :         _Mtx_init_in_situ(_Mymtx(), _Flags | _Mtx_try);

	call	QWORD PTR __imp__Mtx_init_in_situ
; File C:\Users\84038\Desktop\video_codec_thread_test\src\threadwrapper\src\pthread.cpp

; 81   :     *mutex = new std::mutex();

	mov	QWORD PTR [rdi], rbx

; 82   :     return 0;

	xor	eax, eax

; 83   : }

	mov	rbx, QWORD PTR [rsp+48]
	add	rsp, 32					; 00000020H
	pop	rdi
	ret	0
pthread_mutex_init ENDP
_TEXT	ENDS
; Function compile flags: /Ogtpy
; File C:\Users\84038\Desktop\video_codec_thread_test\src\threadwrapper\src\pthread.cpp
; File D:\software_install\VS2019\VC\Tools\MSVC\14.26.28801\include\mutex
; File D:\software_install\VS2019\VC\Tools\MSVC\14.26.28801\include\xthreads.h
; File C:\Users\84038\Desktop\video_codec_thread_test\src\threadwrapper\src\pthread.cpp
_TEXT	SEGMENT
cond$ = 48
pthread_cond_broadcast PROC

; 28   : int pthread_cond_broadcast(pthread_cond_t* cond) {

$LN14:
	sub	rsp, 40					; 00000028H
; File D:\software_install\VS2019\VC\Tools\MSVC\14.26.28801\include\mutex

; 593  :         _Check_C_return(_Cnd_broadcast(_Mycnd()));

	mov	rcx, QWORD PTR [rcx]
	call	QWORD PTR __imp__Cnd_broadcast
; File D:\software_install\VS2019\VC\Tools\MSVC\14.26.28801\include\xthreads.h

; 130  :     if (_Res != _Thrd_success) {

	test	eax, eax
	je	SHORT $LN7@pthread_co

; 131  :         _Throw_C_error(_Res);

	mov	ecx, eax
	call	QWORD PTR __imp_?_Throw_C_error@std@@YAXH@Z
	npad	1
$LN7@pthread_co:
; File C:\Users\84038\Desktop\video_codec_thread_test\src\threadwrapper\src\pthread.cpp

; 30   :     return 0;

	xor	eax, eax

; 31   : }

	add	rsp, 40					; 00000028H
	ret	0
$LN11@pthread_co:
pthread_cond_broadcast ENDP
_TEXT	ENDS
; Function compile flags: /Ogtpy
; File C:\Users\84038\Desktop\video_codec_thread_test\src\threadwrapper\src\pthread.cpp
; File D:\software_install\VS2019\VC\Tools\MSVC\14.26.28801\include\mutex
; File D:\software_install\VS2019\VC\Tools\MSVC\14.26.28801\include\xthreads.h
; File C:\Users\84038\Desktop\video_codec_thread_test\src\threadwrapper\src\pthread.cpp
_TEXT	SEGMENT
cond$ = 48
mutex$ = 56
pthread_cond_wait PROC

; 49   : int pthread_cond_wait(pthread_cond_t* cond, pthread_mutex_t* mutex) {

$LN28:
	sub	rsp, 40					; 00000028H
; File D:\software_install\VS2019\VC\Tools\MSVC\14.26.28801\include\mutex

; 598  :         _Check_C_return(_Cnd_wait(_Mycnd(), _Lck.mutex()->_Mymtx()));

	mov	rdx, QWORD PTR [rdx]
	mov	rcx, QWORD PTR [rcx]
	call	QWORD PTR __imp__Cnd_wait
; File D:\software_install\VS2019\VC\Tools\MSVC\14.26.28801\include\xthreads.h

; 130  :     if (_Res != _Thrd_success) {

	test	eax, eax
	je	SHORT $LN8@pthread_co

; 131  :         _Throw_C_error(_Res);

	mov	ecx, eax
	call	QWORD PTR __imp_?_Throw_C_error@std@@YAXH@Z
	npad	1
$LN8@pthread_co:
; File C:\Users\84038\Desktop\video_codec_thread_test\src\threadwrapper\src\pthread.cpp

; 54   :     return 0;

	xor	eax, eax

; 55   : }

	add	rsp, 40					; 00000028H
	ret	0
$LN25@pthread_co:
pthread_cond_wait ENDP
_TEXT	ENDS
; Function compile flags: /Ogtpy
; File C:\Users\84038\Desktop\video_codec_thread_test\src\threadwrapper\src\pthread.cpp
; File D:\software_install\VS2019\VC\Tools\MSVC\14.26.28801\include\mutex
; File D:\software_install\VS2019\VC\Tools\MSVC\14.26.28801\include\xthreads.h
; File C:\Users\84038\Desktop\video_codec_thread_test\src\threadwrapper\src\pthread.cpp
_TEXT	SEGMENT
mutex$ = 48
pthread_mutex_lock PROC

; 85   : int pthread_mutex_lock(pthread_mutex_t* mutex) {

$LN12:
	sub	rsp, 40					; 00000028H
; File D:\software_install\VS2019\VC\Tools\MSVC\14.26.28801\include\mutex

; 51   :         _Check_C_return(_Mtx_lock(_Mymtx()));

	mov	rcx, QWORD PTR [rcx]
	call	QWORD PTR __imp__Mtx_lock
; File D:\software_install\VS2019\VC\Tools\MSVC\14.26.28801\include\xthreads.h

; 130  :     if (_Res != _Thrd_success) {

	test	eax, eax
	je	SHORT $LN6@pthread_mu

; 131  :         _Throw_C_error(_Res);

	mov	ecx, eax
	call	QWORD PTR __imp_?_Throw_C_error@std@@YAXH@Z
	int	3
$LN6@pthread_mu:
; File C:\Users\84038\Desktop\video_codec_thread_test\src\threadwrapper\src\pthread.cpp

; 87   :     return 0;

	xor	eax, eax

; 88   : }

	add	rsp, 40					; 00000028H
	ret	0
$LN10@pthread_mu:
pthread_mutex_lock ENDP
_TEXT	ENDS
; Function compile flags: /Ogtpy
; File C:\Users\84038\Desktop\video_codec_thread_test\src\threadwrapper\src\pthread.cpp
; File D:\software_install\VS2019\VC\Tools\MSVC\14.26.28801\include\memory
; File C:\Users\84038\Desktop\video_codec_thread_test\src\threadwrapper\src\pthread.cpp
; File D:\software_install\VS2019\VC\Tools\MSVC\14.26.28801\include\memory
; File D:\software_install\VS2019\VC\Tools\MSVC\14.26.28801\include\tuple
; File D:\software_install\VS2019\VC\Tools\MSVC\14.26.28801\include\thread
; File D:\software_install\VS2019\VC\Tools\MSVC\14.26.28801\include\tuple
; File D:\software_install\VS2019\VC\Tools\MSVC\14.26.28801\include\thread
; File D:\software_install\VS2019\VC\Tools\MSVC\14.26.28801\include\tuple
; File D:\software_install\VS2019\VC\Tools\MSVC\14.26.28801\include\thread
; File C:\Users\84038\Desktop\video_codec_thread_test\src\threadwrapper\src\pthread.cpp
_TEXT	SEGMENT
thread$ = 64
__formal$dead$ = 72
executee$dead$ = 80
arg$ = 88
pthread_create PROC

; 57   : int pthread_create(pthread_t* thread, const pthread_attr_t*, voidp_voidp_func executee, void* arg) {

$LN66:
	mov	QWORD PTR [rsp+8], rbx
	mov	QWORD PTR [rsp+16], rsi
	push	rdi
	sub	rsp, 48					; 00000030H
	mov	rsi, rcx
	mov	rbx, r9

; 58   :     *thread = new std::thread(executee, arg);

	mov	ecx, 16
	call	??2@YAPEAX_K@Z				; operator new
; File D:\software_install\VS2019\VC\Tools\MSVC\14.26.28801\include\memory

; 2068 :     return unique_ptr<_Ty>(new _Ty(_STD forward<_Types>(_Args)...));

	mov	ecx, 16
; File C:\Users\84038\Desktop\video_codec_thread_test\src\threadwrapper\src\pthread.cpp

; 58   :     *thread = new std::thread(executee, arg);

	mov	rdi, rax
; File D:\software_install\VS2019\VC\Tools\MSVC\14.26.28801\include\memory

; 2068 :     return unique_ptr<_Ty>(new _Ty(_STD forward<_Types>(_Args)...));

	call	??2@YAPEAX_K@Z				; operator new
; File D:\software_install\VS2019\VC\Tools\MSVC\14.26.28801\include\tuple

; 163  :     constexpr _Tuple_val(_Other&& _Arg) : _Val(_STD forward<_Other>(_Arg)) {}

	lea	rcx, OFFSET FLAT:threadqueue_worker
; File D:\software_install\VS2019\VC\Tools\MSVC\14.26.28801\include\thread

; 64   :         _Thr._Hnd =

	mov	r9, rax
	lea	r8, OFFSET FLAT:??$_Invoke@V?$tuple@P6APEAXPEAX@ZPEAX@std@@$0A@$00@thread@std@@CAIPEAX@Z ; std::thread::_Invoke<std::tuple<void * (__cdecl*)(void *),void *>,0,1>
	xor	edx, edx
; File D:\software_install\VS2019\VC\Tools\MSVC\14.26.28801\include\tuple

; 163  :     constexpr _Tuple_val(_Other&& _Arg) : _Val(_STD forward<_Other>(_Arg)) {}

	mov	QWORD PTR [rax], rbx
; File D:\software_install\VS2019\VC\Tools\MSVC\14.26.28801\include\thread

; 64   :         _Thr._Hnd =

	lea	rbx, QWORD PTR [rdi+8]
; File D:\software_install\VS2019\VC\Tools\MSVC\14.26.28801\include\tuple

; 163  :     constexpr _Tuple_val(_Other&& _Arg) : _Val(_STD forward<_Other>(_Arg)) {}

	mov	QWORD PTR [rax+8], rcx
; File D:\software_install\VS2019\VC\Tools\MSVC\14.26.28801\include\thread

; 64   :         _Thr._Hnd =

	xor	ecx, ecx
	mov	QWORD PTR [rsp+40], rbx
	mov	DWORD PTR [rsp+32], 0
	call	QWORD PTR __imp__beginthreadex
	mov	QWORD PTR [rdi], rax

; 65   :             reinterpret_cast<void*>(_CSTD _beginthreadex(nullptr, 0, _Invoker_proc, _Decay_copied.get(), 0, &_Thr._Id));
; 66   : #pragma warning(pop)
; 67   : 
; 68   :         if (_Thr._Hnd) { // ownership transferred to the thread

	test	rax, rax
	jne	SHORT $LN4@pthread_cr

; 69   :             (void) _Decay_copied.release();
; 70   :         } else { // failed to start thread
; 71   :             _Thr._Id = 0;
; 72   :             _Throw_Cpp_error(_RESOURCE_UNAVAILABLE_TRY_AGAIN);

	lea	ecx, QWORD PTR [rax+6]
	mov	DWORD PTR [rbx], eax
	call	QWORD PTR __imp_?_Throw_Cpp_error@std@@YAXH@Z
	int	3
$LN4@pthread_cr:
; File C:\Users\84038\Desktop\video_codec_thread_test\src\threadwrapper\src\pthread.cpp

; 60   : }

	mov	rbx, QWORD PTR [rsp+64]
	xor	eax, eax
	mov	QWORD PTR [rsi], rdi
	mov	rsi, QWORD PTR [rsp+72]
	add	rsp, 48					; 00000030H
	pop	rdi
	ret	0
$LN63@pthread_cr:
pthread_create ENDP
_TEXT	ENDS
; Function compile flags: /Ogtpy
; File C:\Users\84038\Desktop\video_codec_thread_test\src\threadwrapper\src\pthread.cpp
; File D:\software_install\VS2019\VC\Tools\MSVC\14.26.28801\include\mutex
; File C:\Users\84038\Desktop\video_codec_thread_test\src\threadwrapper\src\pthread.cpp
_TEXT	SEGMENT
mutex$ = 48
pthread_mutex_destroy PROC

; 74   : int pthread_mutex_destroy(pthread_mutex_t* mutex) {

$LN17:
	mov	QWORD PTR [rsp+8], rbx
	push	rdi
	sub	rsp, 32					; 00000020H

; 75   :     delete static_cast<std::mutex*>(*mutex);

	mov	rdi, QWORD PTR [rcx]
	mov	rbx, rcx
	test	rdi, rdi
	je	SHORT $LN13@pthread_mu
; File D:\software_install\VS2019\VC\Tools\MSVC\14.26.28801\include\mutex

; 44   :         _Mtx_destroy_in_situ(_Mymtx());

	mov	rcx, rdi
	call	QWORD PTR __imp__Mtx_destroy_in_situ
	mov	edx, 80					; 00000050H
	mov	rcx, rdi
	call	??3@YAXPEAX_K@Z				; operator delete
; File C:\Users\84038\Desktop\video_codec_thread_test\src\threadwrapper\src\pthread.cpp

; 78   : }

	xor	eax, eax
	mov	QWORD PTR [rbx], 0
	mov	rbx, QWORD PTR [rsp+48]
	add	rsp, 32					; 00000020H
	pop	rdi
	ret	0
$LN13@pthread_mu:
	mov	rbx, QWORD PTR [rsp+48]
	xor	eax, eax
	mov	QWORD PTR [rcx], 0
	add	rsp, 32					; 00000020H
	pop	rdi
	ret	0
pthread_mutex_destroy ENDP
_TEXT	ENDS
; Function compile flags: /Ogtpy
; File C:\Users\84038\Desktop\video_codec_thread_test\src\threadwrapper\src\pthread.cpp
; File D:\software_install\VS2019\VC\Tools\MSVC\14.26.28801\include\mutex
; File D:\software_install\VS2019\VC\Tools\MSVC\14.26.28801\include\xthreads.h
; File C:\Users\84038\Desktop\video_codec_thread_test\src\threadwrapper\src\pthread.cpp
_TEXT	SEGMENT
cond$ = 48
pthread_cond_signal PROC

; 44   : int pthread_cond_signal(pthread_cond_t* cond) {

$LN14:
	sub	rsp, 40					; 00000028H
; File D:\software_install\VS2019\VC\Tools\MSVC\14.26.28801\include\mutex

; 589  :         _Check_C_return(_Cnd_signal(_Mycnd()));

	mov	rcx, QWORD PTR [rcx]
	call	QWORD PTR __imp__Cnd_signal
; File D:\software_install\VS2019\VC\Tools\MSVC\14.26.28801\include\xthreads.h

; 130  :     if (_Res != _Thrd_success) {

	test	eax, eax
	je	SHORT $LN7@pthread_co

; 131  :         _Throw_C_error(_Res);

	mov	ecx, eax
	call	QWORD PTR __imp_?_Throw_C_error@std@@YAXH@Z
	npad	1
$LN7@pthread_co:
; File C:\Users\84038\Desktop\video_codec_thread_test\src\threadwrapper\src\pthread.cpp

; 46   :     return 0;

	xor	eax, eax

; 47   : }

	add	rsp, 40					; 00000028H
	ret	0
$LN11@pthread_co:
pthread_cond_signal ENDP
_TEXT	ENDS
; Function compile flags: /Ogtpy
; File C:\Users\84038\Desktop\video_codec_thread_test\src\threadwrapper\src\pthread.cpp
; File D:\software_install\VS2019\VC\Tools\MSVC\14.26.28801\include\mutex
; File C:\Users\84038\Desktop\video_codec_thread_test\src\threadwrapper\src\pthread.cpp
_TEXT	SEGMENT
cond$ = 48
pthread_cond_destroy PROC

; 33   : int pthread_cond_destroy(pthread_cond_t* cond) {

$LN14:
	mov	QWORD PTR [rsp+8], rbx
	push	rdi
	sub	rsp, 32					; 00000020H

; 34   :     delete static_cast<std::condition_variable*>(*cond);

	mov	rdi, QWORD PTR [rcx]
	mov	rbx, rcx
	test	rdi, rdi
	je	SHORT $LN10@pthread_co
; File D:\software_install\VS2019\VC\Tools\MSVC\14.26.28801\include\mutex

; 582  :         _Cnd_destroy_in_situ(_Mycnd());

	mov	rcx, rdi
	call	QWORD PTR __imp__Cnd_destroy_in_situ
	mov	edx, 72					; 00000048H
	mov	rcx, rdi
	call	??3@YAXPEAX_K@Z				; operator delete
; File C:\Users\84038\Desktop\video_codec_thread_test\src\threadwrapper\src\pthread.cpp

; 37   : }

	xor	eax, eax
	mov	QWORD PTR [rbx], 0
	mov	rbx, QWORD PTR [rsp+48]
	add	rsp, 32					; 00000020H
	pop	rdi
	ret	0
$LN10@pthread_co:
	mov	rbx, QWORD PTR [rsp+48]
	xor	eax, eax
	mov	QWORD PTR [rcx], 0
	add	rsp, 32					; 00000020H
	pop	rdi
	ret	0
pthread_cond_destroy ENDP
_TEXT	ENDS
; Function compile flags: /Ogtpy
; File C:\Users\84038\Desktop\video_codec_thread_test\src\threadwrapper\src\pthread.cpp
; File D:\software_install\VS2019\VC\Tools\MSVC\14.26.28801\include\thread
; File C:\Users\84038\Desktop\video_codec_thread_test\src\threadwrapper\src\pthread.cpp
; File D:\software_install\VS2019\VC\Tools\MSVC\14.26.28801\include\thread
; File C:\Users\84038\Desktop\video_codec_thread_test\src\threadwrapper\src\pthread.cpp
_TEXT	SEGMENT
$T1 = 32
thread$ = 64
__formal$dead$ = 72
pthread_join PROC

; 67   : int pthread_join(pthread_t thread, void**) {

$LN25:
	push	rbx
	sub	rsp, 48					; 00000030H
; File D:\software_install\VS2019\VC\Tools\MSVC\14.26.28801\include\thread

; 101  :         return _Thr._Id != 0;

	cmp	DWORD PTR [rcx+8], 0
; File C:\Users\84038\Desktop\video_codec_thread_test\src\threadwrapper\src\pthread.cpp

; 67   : int pthread_join(pthread_t thread, void**) {

	mov	rbx, rcx
; File D:\software_install\VS2019\VC\Tools\MSVC\14.26.28801\include\thread

; 105  :         if (!joinable()) {

	jne	SHORT $LN6@pthread_jo

; 106  :             _Throw_Cpp_error(_INVALID_ARGUMENT);

	mov	ecx, 1
	call	QWORD PTR __imp_?_Throw_Cpp_error@std@@YAXH@Z
	int	3
$LN6@pthread_jo:

; 107  :         }
; 108  : 
; 109  :         if (_Thr._Id == _Thrd_id()) {

	call	QWORD PTR __imp__Thrd_id
	cmp	DWORD PTR [rbx+8], eax
	jne	SHORT $LN7@pthread_jo

; 110  :             _Throw_Cpp_error(_RESOURCE_DEADLOCK_WOULD_OCCUR);

	mov	ecx, 5
	call	QWORD PTR __imp_?_Throw_Cpp_error@std@@YAXH@Z
	int	3
$LN7@pthread_jo:

; 111  :         }
; 112  : 
; 113  :         if (_Thrd_join(_Thr, nullptr) != _Thrd_success) {

	movups	xmm0, XMMWORD PTR [rbx]
	xor	edx, edx
	lea	rcx, QWORD PTR $T1[rsp]
	movaps	XMMWORD PTR $T1[rsp], xmm0
	call	QWORD PTR __imp__Thrd_join
	test	eax, eax
	je	SHORT $LN8@pthread_jo

; 114  :             _Throw_Cpp_error(_NO_SUCH_PROCESS);

	mov	ecx, 2
	call	QWORD PTR __imp_?_Throw_Cpp_error@std@@YAXH@Z
	int	3
$LN8@pthread_jo:
	xorps	xmm0, xmm0

; 115  :         }
; 116  : 
; 117  :         _Thr = {};

	movups	XMMWORD PTR [rbx], xmm0

; 101  :         return _Thr._Id != 0;

	cmp	DWORD PTR [rbx+8], 0

; 77   :         if (joinable()) {

	je	SHORT $LN17@pthread_jo

; 78   :             _STD terminate();

	call	QWORD PTR __imp_terminate
	int	3
$LN17@pthread_jo:
	mov	edx, 16
	mov	rcx, rbx
	call	??3@YAXPEAX_K@Z				; operator delete
; File C:\Users\84038\Desktop\video_codec_thread_test\src\threadwrapper\src\pthread.cpp

; 71   :     return 0;

	xor	eax, eax

; 72   : }

	add	rsp, 48					; 00000030H
	pop	rbx
	ret	0
$LN22@pthread_jo:
pthread_join ENDP
_TEXT	ENDS
; Function compile flags: /Ogtpy
; File C:\Users\84038\Desktop\video_codec_thread_test\src\threadwrapper\src\pthread.cpp
; File D:\software_install\VS2019\VC\Tools\MSVC\14.26.28801\include\mutex
; File D:\software_install\VS2019\VC\Tools\MSVC\14.26.28801\include\xthreads.h
; File C:\Users\84038\Desktop\video_codec_thread_test\src\threadwrapper\src\pthread.cpp
_TEXT	SEGMENT
mutex$ = 48
pthread_mutex_unlock PROC

; 90   : int pthread_mutex_unlock(pthread_mutex_t* mutex) {

$LN12:
	sub	rsp, 40					; 00000028H
; File D:\software_install\VS2019\VC\Tools\MSVC\14.26.28801\include\mutex

; 67   :         _Check_C_return(_Mtx_unlock(_Mymtx()));

	mov	rcx, QWORD PTR [rcx]
	call	QWORD PTR __imp__Mtx_unlock
; File D:\software_install\VS2019\VC\Tools\MSVC\14.26.28801\include\xthreads.h

; 130  :     if (_Res != _Thrd_success) {

	test	eax, eax
	je	SHORT $LN6@pthread_mu

; 131  :         _Throw_C_error(_Res);

	mov	ecx, eax
	call	QWORD PTR __imp_?_Throw_C_error@std@@YAXH@Z
	int	3
$LN6@pthread_mu:
; File C:\Users\84038\Desktop\video_codec_thread_test\src\threadwrapper\src\pthread.cpp

; 92   :     return 0;

	xor	eax, eax

; 93   : }

	add	rsp, 40					; 00000028H
	ret	0
$LN10@pthread_mu:
pthread_mutex_unlock ENDP
_TEXT	ENDS
; Function compile flags: /Ogtpy
; File D:\software_install\VS2019\VC\Tools\MSVC\14.26.28801\include\xthreads.h
;	COMDAT ?_Check_C_return@std@@YAHH@Z
_TEXT	SEGMENT
_Res$ = 48
?_Check_C_return@std@@YAHH@Z PROC			; std::_Check_C_return, COMDAT

; 129  : inline int _Check_C_return(int _Res) { // throw exception on failure

$LN6:
	sub	rsp, 40					; 00000028H

; 130  :     if (_Res != _Thrd_success) {

	test	ecx, ecx
	je	SHORT $LN2@Check_C_re

; 131  :         _Throw_C_error(_Res);

	call	QWORD PTR __imp_?_Throw_C_error@std@@YAXH@Z
	int	3
$LN2@Check_C_re:

; 132  :     }
; 133  : 
; 134  :     return _Res;

	xor	eax, eax

; 135  : }

	add	rsp, 40					; 00000028H
	ret	0
$LN4@Check_C_re:
?_Check_C_return@std@@YAHH@Z ENDP			; std::_Check_C_return
_TEXT	ENDS
; Function compile flags: /Ogtpy
; File D:\software_install\VS2019\VC\Tools\MSVC\14.26.28801\include\thread
;	COMDAT ??1thread@std@@QEAA@XZ
_TEXT	SEGMENT
this$ = 48
??1thread@std@@QEAA@XZ PROC				; std::thread::~thread, COMDAT

; 76   :     ~thread() noexcept {

$LN9:
	sub	rsp, 40					; 00000028H

; 101  :         return _Thr._Id != 0;

	cmp	DWORD PTR [rcx+8], 0

; 77   :         if (joinable()) {

	je	SHORT $LN2@thread

; 78   :             _STD terminate();

	call	QWORD PTR __imp_terminate
	int	3
$LN2@thread:

; 79   :         }
; 80   :     }

	add	rsp, 40					; 00000028H
	ret	0
$LN6@thread:
??1thread@std@@QEAA@XZ ENDP				; std::thread::~thread
_TEXT	ENDS
; Function compile flags: /Ogtpy
; File D:\software_install\VS2019\VC\Tools\MSVC\14.26.28801\include\thread
;	COMDAT ?joinable@thread@std@@QEBA_NXZ
_TEXT	SEGMENT
this$ = 8
?joinable@thread@std@@QEBA_NXZ PROC			; std::thread::joinable, COMDAT

; 101  :         return _Thr._Id != 0;

	cmp	DWORD PTR [rcx+8], 0
	setne	al

; 102  :     }

	ret	0
?joinable@thread@std@@QEBA_NXZ ENDP			; std::thread::joinable
_TEXT	ENDS
; Function compile flags: /Ogtpy
; File D:\software_install\VS2019\VC\Tools\MSVC\14.26.28801\include\thread
;	COMDAT ?join@thread@std@@QEAAXXZ
_TEXT	SEGMENT
$T1 = 32
this$ = 64
?join@thread@std@@QEAAXXZ PROC				; std::thread::join, COMDAT

; 104  :     void join() {

$LN11:
	push	rbx
	sub	rsp, 48					; 00000030H

; 101  :         return _Thr._Id != 0;

	cmp	DWORD PTR [rcx+8], 0

; 104  :     void join() {

	mov	rbx, rcx

; 105  :         if (!joinable()) {

	jne	SHORT $LN2@join

; 106  :             _Throw_Cpp_error(_INVALID_ARGUMENT);

	mov	ecx, 1
	call	QWORD PTR __imp_?_Throw_Cpp_error@std@@YAXH@Z
	int	3
$LN2@join:

; 107  :         }
; 108  : 
; 109  :         if (_Thr._Id == _Thrd_id()) {

	call	QWORD PTR __imp__Thrd_id
	cmp	DWORD PTR [rbx+8], eax
	jne	SHORT $LN3@join

; 110  :             _Throw_Cpp_error(_RESOURCE_DEADLOCK_WOULD_OCCUR);

	mov	ecx, 5
	call	QWORD PTR __imp_?_Throw_Cpp_error@std@@YAXH@Z
	int	3
$LN3@join:

; 111  :         }
; 112  : 
; 113  :         if (_Thrd_join(_Thr, nullptr) != _Thrd_success) {

	movups	xmm0, XMMWORD PTR [rbx]
	xor	edx, edx
	lea	rcx, QWORD PTR $T1[rsp]
	movaps	XMMWORD PTR $T1[rsp], xmm0
	call	QWORD PTR __imp__Thrd_join
	test	eax, eax
	je	SHORT $LN4@join

; 114  :             _Throw_Cpp_error(_NO_SUCH_PROCESS);

	mov	ecx, 2
	call	QWORD PTR __imp_?_Throw_Cpp_error@std@@YAXH@Z
	int	3
$LN4@join:
	xorps	xmm0, xmm0

; 115  :         }
; 116  : 
; 117  :         _Thr = {};

	movups	XMMWORD PTR [rbx], xmm0

; 118  :     }

	add	rsp, 48					; 00000030H
	pop	rbx
	ret	0
$LN8@join:
?join@thread@std@@QEAAXXZ ENDP				; std::thread::join
_TEXT	ENDS
; Function compile flags: /Ogtpy
; File D:\software_install\VS2019\VC\Tools\MSVC\14.26.28801\include\mutex
;	COMDAT ??0_Mutex_base@std@@QEAA@H@Z
_TEXT	SEGMENT
this$ = 48
_Flags$dead$ = 56
??0_Mutex_base@std@@QEAA@H@Z PROC			; std::_Mutex_base::_Mutex_base, COMDAT

; 39   :     _Mutex_base(int _Flags = 0) noexcept {

$LN5:
	push	rbx
	sub	rsp, 32					; 00000020H

; 40   :         _Mtx_init_in_situ(_Mymtx(), _Flags | _Mtx_try);

	mov	edx, 2
	mov	rbx, rcx
	call	QWORD PTR __imp__Mtx_init_in_situ

; 41   :     }

	mov	rax, rbx
	add	rsp, 32					; 00000020H
	pop	rbx
	ret	0
??0_Mutex_base@std@@QEAA@H@Z ENDP			; std::_Mutex_base::_Mutex_base
_TEXT	ENDS
; Function compile flags: /Ogtpy
; File D:\software_install\VS2019\VC\Tools\MSVC\14.26.28801\include\mutex
;	COMDAT ??1_Mutex_base@std@@QEAA@XZ
_TEXT	SEGMENT
this$ = 8
??1_Mutex_base@std@@QEAA@XZ PROC			; std::_Mutex_base::~_Mutex_base, COMDAT

; 44   :         _Mtx_destroy_in_situ(_Mymtx());

	rex_jmp	QWORD PTR __imp__Mtx_destroy_in_situ
??1_Mutex_base@std@@QEAA@XZ ENDP			; std::_Mutex_base::~_Mutex_base
_TEXT	ENDS
; Function compile flags: /Ogtpy
; File D:\software_install\VS2019\VC\Tools\MSVC\14.26.28801\include\mutex
; File D:\software_install\VS2019\VC\Tools\MSVC\14.26.28801\include\xthreads.h
; File D:\software_install\VS2019\VC\Tools\MSVC\14.26.28801\include\mutex
;	COMDAT ?lock@_Mutex_base@std@@QEAAXXZ
_TEXT	SEGMENT
this$ = 48
?lock@_Mutex_base@std@@QEAAXXZ PROC			; std::_Mutex_base::lock, COMDAT

; 50   :     void lock() {

$LN9:
	sub	rsp, 40					; 00000028H

; 51   :         _Check_C_return(_Mtx_lock(_Mymtx()));

	call	QWORD PTR __imp__Mtx_lock
; File D:\software_install\VS2019\VC\Tools\MSVC\14.26.28801\include\xthreads.h

; 130  :     if (_Res != _Thrd_success) {

	test	eax, eax
	je	SHORT $LN4@lock

; 131  :         _Throw_C_error(_Res);

	mov	ecx, eax
	call	QWORD PTR __imp_?_Throw_C_error@std@@YAXH@Z
	int	3
$LN4@lock:
; File D:\software_install\VS2019\VC\Tools\MSVC\14.26.28801\include\mutex

; 52   :     }

	add	rsp, 40					; 00000028H
	ret	0
$LN7@lock:
?lock@_Mutex_base@std@@QEAAXXZ ENDP			; std::_Mutex_base::lock
_TEXT	ENDS
; Function compile flags: /Ogtpy
; File D:\software_install\VS2019\VC\Tools\MSVC\14.26.28801\include\mutex
; File D:\software_install\VS2019\VC\Tools\MSVC\14.26.28801\include\xthreads.h
; File D:\software_install\VS2019\VC\Tools\MSVC\14.26.28801\include\mutex
;	COMDAT ?unlock@_Mutex_base@std@@QEAAXXZ
_TEXT	SEGMENT
this$ = 48
?unlock@_Mutex_base@std@@QEAAXXZ PROC			; std::_Mutex_base::unlock, COMDAT

; 66   :     void unlock() {

$LN9:
	sub	rsp, 40					; 00000028H

; 67   :         _Check_C_return(_Mtx_unlock(_Mymtx()));

	call	QWORD PTR __imp__Mtx_unlock
; File D:\software_install\VS2019\VC\Tools\MSVC\14.26.28801\include\xthreads.h

; 130  :     if (_Res != _Thrd_success) {

	test	eax, eax
	je	SHORT $LN4@unlock

; 131  :         _Throw_C_error(_Res);

	mov	ecx, eax
	call	QWORD PTR __imp_?_Throw_C_error@std@@YAXH@Z
	int	3
$LN4@unlock:
; File D:\software_install\VS2019\VC\Tools\MSVC\14.26.28801\include\mutex

; 68   :     }

	add	rsp, 40					; 00000028H
	ret	0
$LN7@unlock:
?unlock@_Mutex_base@std@@QEAAXXZ ENDP			; std::_Mutex_base::unlock
_TEXT	ENDS
; Function compile flags: /Ogtpy
; File D:\software_install\VS2019\VC\Tools\MSVC\14.26.28801\include\mutex
;	COMDAT ?_Mymtx@_Mutex_base@std@@AEAAPEAU_Mtx_internal_imp_t@@XZ
_TEXT	SEGMENT
this$ = 8
?_Mymtx@_Mutex_base@std@@AEAAPEAU_Mtx_internal_imp_t@@XZ PROC ; std::_Mutex_base::_Mymtx, COMDAT

; 83   :         return reinterpret_cast<_Mtx_t>(&_Mtx_storage);

	mov	rax, rcx

; 84   :     }

	ret	0
?_Mymtx@_Mutex_base@std@@AEAAPEAU_Mtx_internal_imp_t@@XZ ENDP ; std::_Mutex_base::_Mymtx
_TEXT	ENDS
; Function compile flags: /Ogtpy
; File D:\software_install\VS2019\VC\Tools\MSVC\14.26.28801\include\mutex
;	COMDAT ??0mutex@std@@QEAA@XZ
_TEXT	SEGMENT
this$ = 48
??0mutex@std@@QEAA@XZ PROC				; std::mutex::mutex, COMDAT

; 89   :     /* constexpr */ mutex() noexcept // TRANSITION, ABI

$LN7:
	push	rbx
	sub	rsp, 32					; 00000020H

; 40   :         _Mtx_init_in_situ(_Mymtx(), _Flags | _Mtx_try);

	mov	edx, 2

; 89   :     /* constexpr */ mutex() noexcept // TRANSITION, ABI

	mov	rbx, rcx

; 40   :         _Mtx_init_in_situ(_Mymtx(), _Flags | _Mtx_try);

	call	QWORD PTR __imp__Mtx_init_in_situ

; 90   :         : _Mutex_base() {}

	mov	rax, rbx
	add	rsp, 32					; 00000020H
	pop	rbx
	ret	0
??0mutex@std@@QEAA@XZ ENDP				; std::mutex::mutex
_TEXT	ENDS
; Function compile flags: /Ogtpy
; File D:\software_install\VS2019\VC\Tools\MSVC\14.26.28801\include\mutex
;	COMDAT ??0condition_variable@std@@QEAA@XZ
_TEXT	SEGMENT
this$ = 48
??0condition_variable@std@@QEAA@XZ PROC			; std::condition_variable::condition_variable, COMDAT

; 577  :     condition_variable() {

$LN4:
	push	rbx
	sub	rsp, 32					; 00000020H
	mov	rbx, rcx

; 578  :         _Cnd_init_in_situ(_Mycnd());

	call	QWORD PTR __imp__Cnd_init_in_situ

; 579  :     }

	mov	rax, rbx
	add	rsp, 32					; 00000020H
	pop	rbx
	ret	0
??0condition_variable@std@@QEAA@XZ ENDP			; std::condition_variable::condition_variable
_TEXT	ENDS
; Function compile flags: /Ogtpy
; File D:\software_install\VS2019\VC\Tools\MSVC\14.26.28801\include\mutex
;	COMDAT ??1condition_variable@std@@QEAA@XZ
_TEXT	SEGMENT
this$ = 8
??1condition_variable@std@@QEAA@XZ PROC			; std::condition_variable::~condition_variable, COMDAT

; 582  :         _Cnd_destroy_in_situ(_Mycnd());

	rex_jmp	QWORD PTR __imp__Cnd_destroy_in_situ
??1condition_variable@std@@QEAA@XZ ENDP			; std::condition_variable::~condition_variable
_TEXT	ENDS
; Function compile flags: /Ogtpy
; File D:\software_install\VS2019\VC\Tools\MSVC\14.26.28801\include\mutex
; File D:\software_install\VS2019\VC\Tools\MSVC\14.26.28801\include\xthreads.h
; File D:\software_install\VS2019\VC\Tools\MSVC\14.26.28801\include\mutex
;	COMDAT ?notify_one@condition_variable@std@@QEAAXXZ
_TEXT	SEGMENT
this$ = 48
?notify_one@condition_variable@std@@QEAAXXZ PROC	; std::condition_variable::notify_one, COMDAT

; 588  :     void notify_one() noexcept { // wake up one waiter

$LN10:
	sub	rsp, 40					; 00000028H

; 589  :         _Check_C_return(_Cnd_signal(_Mycnd()));

	call	QWORD PTR __imp__Cnd_signal
; File D:\software_install\VS2019\VC\Tools\MSVC\14.26.28801\include\xthreads.h

; 130  :     if (_Res != _Thrd_success) {

	test	eax, eax
	je	SHORT $LN4@notify_one

; 131  :         _Throw_C_error(_Res);

	mov	ecx, eax
	call	QWORD PTR __imp_?_Throw_C_error@std@@YAXH@Z
	npad	1
$LN4@notify_one:
; File D:\software_install\VS2019\VC\Tools\MSVC\14.26.28801\include\mutex

; 590  :     }

	add	rsp, 40					; 00000028H
	ret	0
$LN7@notify_one:
?notify_one@condition_variable@std@@QEAAXXZ ENDP	; std::condition_variable::notify_one
_TEXT	ENDS
; Function compile flags: /Ogtpy
; File D:\software_install\VS2019\VC\Tools\MSVC\14.26.28801\include\mutex
; File D:\software_install\VS2019\VC\Tools\MSVC\14.26.28801\include\xthreads.h
; File D:\software_install\VS2019\VC\Tools\MSVC\14.26.28801\include\mutex
;	COMDAT ?notify_all@condition_variable@std@@QEAAXXZ
_TEXT	SEGMENT
this$ = 48
?notify_all@condition_variable@std@@QEAAXXZ PROC	; std::condition_variable::notify_all, COMDAT

; 592  :     void notify_all() noexcept { // wake up all waiters

$LN10:
	sub	rsp, 40					; 00000028H

; 593  :         _Check_C_return(_Cnd_broadcast(_Mycnd()));

	call	QWORD PTR __imp__Cnd_broadcast
; File D:\software_install\VS2019\VC\Tools\MSVC\14.26.28801\include\xthreads.h

; 130  :     if (_Res != _Thrd_success) {

	test	eax, eax
	je	SHORT $LN4@notify_all

; 131  :         _Throw_C_error(_Res);

	mov	ecx, eax
	call	QWORD PTR __imp_?_Throw_C_error@std@@YAXH@Z
	npad	1
$LN4@notify_all:
; File D:\software_install\VS2019\VC\Tools\MSVC\14.26.28801\include\mutex

; 594  :     }

	add	rsp, 40					; 00000028H
	ret	0
$LN7@notify_all:
?notify_all@condition_variable@std@@QEAAXXZ ENDP	; std::condition_variable::notify_all
_TEXT	ENDS
; Function compile flags: /Ogtpy
; File D:\software_install\VS2019\VC\Tools\MSVC\14.26.28801\include\mutex
; File D:\software_install\VS2019\VC\Tools\MSVC\14.26.28801\include\xthreads.h
; File D:\software_install\VS2019\VC\Tools\MSVC\14.26.28801\include\mutex
;	COMDAT ?wait@condition_variable@std@@QEAAXAEAV?$unique_lock@Vmutex@std@@@2@@Z
_TEXT	SEGMENT
this$ = 48
_Lck$ = 56
?wait@condition_variable@std@@QEAAXAEAV?$unique_lock@Vmutex@std@@@2@@Z PROC ; std::condition_variable::wait, COMDAT

; 596  :     void wait(unique_lock<mutex>& _Lck) { // wait for signal

$LN9:
	sub	rsp, 40					; 00000028H

; 597  :         // Nothing to do to comply with LWG-2135 because std::mutex lock/unlock are nothrow
; 598  :         _Check_C_return(_Cnd_wait(_Mycnd(), _Lck.mutex()->_Mymtx()));

	mov	rdx, QWORD PTR [rdx]
	call	QWORD PTR __imp__Cnd_wait
; File D:\software_install\VS2019\VC\Tools\MSVC\14.26.28801\include\xthreads.h

; 130  :     if (_Res != _Thrd_success) {

	test	eax, eax
	je	SHORT $LN4@wait

; 131  :         _Throw_C_error(_Res);

	mov	ecx, eax
	call	QWORD PTR __imp_?_Throw_C_error@std@@YAXH@Z
	int	3
$LN4@wait:
; File D:\software_install\VS2019\VC\Tools\MSVC\14.26.28801\include\mutex

; 599  :     }

	add	rsp, 40					; 00000028H
	ret	0
$LN7@wait:
?wait@condition_variable@std@@QEAAXAEAV?$unique_lock@Vmutex@std@@@2@@Z ENDP ; std::condition_variable::wait
_TEXT	ENDS
; Function compile flags: /Ogtpy
; File D:\software_install\VS2019\VC\Tools\MSVC\14.26.28801\include\mutex
;	COMDAT ?_Mycnd@condition_variable@std@@AEAAPEAU_Cnd_internal_imp_t@@XZ
_TEXT	SEGMENT
this$ = 8
?_Mycnd@condition_variable@std@@AEAAPEAU_Cnd_internal_imp_t@@XZ PROC ; std::condition_variable::_Mycnd, COMDAT

; 698  :         return reinterpret_cast<_Cnd_t>(&_Cnd_storage);

	mov	rax, rcx

; 699  :     }

	ret	0
?_Mycnd@condition_variable@std@@AEAAPEAU_Cnd_internal_imp_t@@XZ ENDP ; std::condition_variable::_Mycnd
_TEXT	ENDS
; Function compile flags: /Ogtpy
; File D:\software_install\VS2019\VC\Tools\MSVC\14.26.28801\include\mutex
;	COMDAT ??1mutex@std@@QEAA@XZ
_TEXT	SEGMENT
this$ = 8
??1mutex@std@@QEAA@XZ PROC				; std::mutex::~mutex, COMDAT

; 44   :         _Mtx_destroy_in_situ(_Mymtx());

	rex_jmp	QWORD PTR __imp__Mtx_destroy_in_situ
??1mutex@std@@QEAA@XZ ENDP				; std::mutex::~mutex
_TEXT	ENDS
; Function compile flags: /Ogtpy
; File D:\software_install\VS2019\VC\Tools\MSVC\14.26.28801\include\shared_mutex
;	COMDAT ??0shared_mutex@std@@QEAA@XZ
_TEXT	SEGMENT
this$ = 8
??0shared_mutex@std@@QEAA@XZ PROC			; std::shared_mutex::shared_mutex, COMDAT

; 37   :         : _Myhandle(nullptr) {}

	mov	QWORD PTR [rcx], 0
	mov	rax, rcx
	ret	0
??0shared_mutex@std@@QEAA@XZ ENDP			; std::shared_mutex::shared_mutex
_TEXT	ENDS
; Function compile flags: /Ogtpy
; File D:\software_install\VS2019\VC\Tools\MSVC\14.26.28801\include\shared_mutex
;	COMDAT ??1shared_mutex@std@@QEAA@XZ
_TEXT	SEGMENT
this$ = 8
??1shared_mutex@std@@QEAA@XZ PROC			; std::shared_mutex::~shared_mutex, COMDAT

; 39   :     ~shared_mutex() noexcept {}

	ret	0
??1shared_mutex@std@@QEAA@XZ ENDP			; std::shared_mutex::~shared_mutex
_TEXT	ENDS
; Function compile flags: /Ogtpy
; File D:\software_install\VS2019\VC\Tools\MSVC\14.26.28801\include\shared_mutex
;	COMDAT ?lock@shared_mutex@std@@QEAAXXZ
_TEXT	SEGMENT
this$ = 8
?lock@shared_mutex@std@@QEAAXXZ PROC			; std::shared_mutex::lock, COMDAT

; 42   :         _Smtx_lock_exclusive(&_Myhandle);

	jmp	_Smtx_lock_exclusive
?lock@shared_mutex@std@@QEAAXXZ ENDP			; std::shared_mutex::lock
_TEXT	ENDS
; Function compile flags: /Ogtpy
; File D:\software_install\VS2019\VC\Tools\MSVC\14.26.28801\include\shared_mutex
;	COMDAT ?unlock@shared_mutex@std@@QEAAXXZ
_TEXT	SEGMENT
this$ = 8
?unlock@shared_mutex@std@@QEAAXXZ PROC			; std::shared_mutex::unlock, COMDAT

; 50   :         _Smtx_unlock_exclusive(&_Myhandle);

	jmp	_Smtx_unlock_exclusive
?unlock@shared_mutex@std@@QEAAXXZ ENDP			; std::shared_mutex::unlock
_TEXT	ENDS
; Function compile flags: /Ogtpy
; File D:\software_install\VS2019\VC\Tools\MSVC\14.26.28801\include\shared_mutex
;	COMDAT ?lock_shared@shared_mutex@std@@QEAAXXZ
_TEXT	SEGMENT
this$ = 8
?lock_shared@shared_mutex@std@@QEAAXXZ PROC		; std::shared_mutex::lock_shared, COMDAT

; 54   :         _Smtx_lock_shared(&_Myhandle);

	jmp	_Smtx_lock_shared
?lock_shared@shared_mutex@std@@QEAAXXZ ENDP		; std::shared_mutex::lock_shared
_TEXT	ENDS
; Function compile flags: /Ogtpy
; File D:\software_install\VS2019\VC\Tools\MSVC\14.26.28801\include\shared_mutex
;	COMDAT ?unlock_shared@shared_mutex@std@@QEAAXXZ
_TEXT	SEGMENT
this$ = 8
?unlock_shared@shared_mutex@std@@QEAAXXZ PROC		; std::shared_mutex::unlock_shared, COMDAT

; 62   :         _Smtx_unlock_shared(&_Myhandle);

	jmp	_Smtx_unlock_shared
?unlock_shared@shared_mutex@std@@QEAAXXZ ENDP		; std::shared_mutex::unlock_shared
_TEXT	ENDS
; Function compile flags: /Ogtpy
; File D:\software_install\VS2019\VC\Tools\MSVC\14.26.28801\include\mutex
;	COMDAT ??_Gcondition_variable@std@@QEAAPEAXI@Z
_TEXT	SEGMENT
this$ = 48
__flags$dead$ = 56
??_Gcondition_variable@std@@QEAAPEAXI@Z PROC		; std::condition_variable::`scalar deleting destructor', COMDAT
$LN8:
	push	rbx
	sub	rsp, 32					; 00000020H
	mov	rbx, rcx

; 582  :         _Cnd_destroy_in_situ(_Mycnd());

	call	QWORD PTR __imp__Cnd_destroy_in_situ
	mov	edx, 72					; 00000048H
	mov	rcx, rbx
	call	??3@YAXPEAX_K@Z				; operator delete
	mov	rax, rbx
	add	rsp, 32					; 00000020H
	pop	rbx
	ret	0
??_Gcondition_variable@std@@QEAAPEAXI@Z ENDP		; std::condition_variable::`scalar deleting destructor'
_TEXT	ENDS
; Function compile flags: /Ogtpy
; File C:\Users\84038\Desktop\video_codec_thread_test\src\threadwrapper\src\pthread.cpp
_TEXT	SEGMENT
__formal$dead$ = 8
pthread_exit PROC

; 63   :     // It might be enough to do nothing here
; 64   :     // considering Kvazaar's current use of pthread_exit
; 65   : }

	ret	0
pthread_exit ENDP
_TEXT	ENDS
; Function compile flags: /Ogtpy
; File D:\software_install\VS2019\VC\Tools\MSVC\14.26.28801\include\thread
;	COMDAT ??_Gthread@std@@QEAAPEAXI@Z
_TEXT	SEGMENT
this$ = 48
__flags$dead$ = 56
??_Gthread@std@@QEAAPEAXI@Z PROC			; std::thread::`scalar deleting destructor', COMDAT
$LN13:
	push	rbx
	sub	rsp, 32					; 00000020H

; 101  :         return _Thr._Id != 0;

	cmp	DWORD PTR [rcx+8], 0
	mov	rbx, rcx

; 77   :         if (joinable()) {

	je	SHORT $LN5@scalar

; 78   :             _STD terminate();

	call	QWORD PTR __imp_terminate
	int	3
$LN5@scalar:
	mov	edx, 16
	call	??3@YAXPEAX_K@Z				; operator delete
	mov	rax, rbx
	add	rsp, 32					; 00000020H
	pop	rbx
	ret	0
$LN10@scalar:
??_Gthread@std@@QEAAPEAXI@Z ENDP			; std::thread::`scalar deleting destructor'
_TEXT	ENDS
; Function compile flags: /Ogtpy
; File D:\software_install\VS2019\VC\Tools\MSVC\14.26.28801\include\mutex
;	COMDAT ??_Gmutex@std@@QEAAPEAXI@Z
_TEXT	SEGMENT
this$ = 48
__flags$dead$ = 56
??_Gmutex@std@@QEAAPEAXI@Z PROC				; std::mutex::`scalar deleting destructor', COMDAT
$LN11:
	push	rbx
	sub	rsp, 32					; 00000020H
	mov	rbx, rcx

; 44   :         _Mtx_destroy_in_situ(_Mymtx());

	call	QWORD PTR __imp__Mtx_destroy_in_situ
	mov	edx, 80					; 00000050H
	mov	rcx, rbx
	call	??3@YAXPEAX_K@Z				; operator delete
	mov	rax, rbx
	add	rsp, 32					; 00000020H
	pop	rbx
	ret	0
??_Gmutex@std@@QEAAPEAXI@Z ENDP				; std::mutex::`scalar deleting destructor'
_TEXT	ENDS
; Function compile flags: /Ogtpy
; File C:\Users\84038\Desktop\video_codec_thread_test\src\threadwrapper\src\pthread.cpp
; File D:\software_install\VS2019\VC\Tools\MSVC\14.26.28801\include\shared_mutex
; File C:\Users\84038\Desktop\video_codec_thread_test\src\threadwrapper\src\pthread.cpp
_TEXT	SEGMENT
lock$ = 48
__formal$dead$ = 56
pthread_rwlock_init PROC

; 96   : {

$LN9:
	push	rbx
	sub	rsp, 32					; 00000020H
	mov	rbx, rcx

; 97   :   *lock = new rw_lock_internal;

	mov	ecx, 16
	call	??2@YAPEAX_K@Z				; operator new

; 98   :   static_cast<rw_lock_internal*>(*lock)->lock = new std::shared_mutex;

	mov	ecx, 8
	mov	QWORD PTR [rbx], rax
	call	??2@YAPEAX_K@Z				; operator new
; File D:\software_install\VS2019\VC\Tools\MSVC\14.26.28801\include\shared_mutex

; 37   :         : _Myhandle(nullptr) {}

	mov	QWORD PTR [rax], 0
; File C:\Users\84038\Desktop\video_codec_thread_test\src\threadwrapper\src\pthread.cpp

; 98   :   static_cast<rw_lock_internal*>(*lock)->lock = new std::shared_mutex;

	mov	rdx, QWORD PTR [rbx]
	mov	QWORD PTR [rdx], rax

; 99   :   static_cast<rw_lock_internal*>(*lock)->write_lock = false;

	mov	rax, QWORD PTR [rbx]
	mov	BYTE PTR [rax+8], 0

; 100  :   return 0;

	xor	eax, eax

; 101  : }

	add	rsp, 32					; 00000020H
	pop	rbx
	ret	0
pthread_rwlock_init ENDP
_TEXT	ENDS
; Function compile flags: /Ogtpy
; File C:\Users\84038\Desktop\video_codec_thread_test\src\threadwrapper\src\pthread.cpp
_TEXT	SEGMENT
rwlock$ = 48
pthread_rwlock_destroy PROC

; 104  : {

$LN10:
	push	rbx
	sub	rsp, 32					; 00000020H
	mov	rbx, rcx

; 105  :   delete static_cast<rw_lock_internal*>(*rwlock)->lock;

	mov	rcx, QWORD PTR [rcx]
	mov	rax, QWORD PTR [rcx]
	test	rax, rax
	je	SHORT $LN6@pthread_rw
	mov	edx, 8
	mov	rcx, rax
	call	??3@YAXPEAX_K@Z				; operator delete
	mov	rcx, QWORD PTR [rbx]
$LN6@pthread_rw:

; 106  :   delete static_cast<rw_lock_internal*>(*rwlock);

	mov	edx, 16
	call	??3@YAXPEAX_K@Z				; operator delete

; 107  :   return 0;

	xor	eax, eax

; 108  : }

	add	rsp, 32					; 00000020H
	pop	rbx
	ret	0
pthread_rwlock_destroy ENDP
_TEXT	ENDS
; Function compile flags: /Ogtpy
;	COMDAT ??_Gshared_mutex@std@@QEAAPEAXI@Z
_TEXT	SEGMENT
this$ = 48
__flags$dead$ = 56
??_Gshared_mutex@std@@QEAAPEAXI@Z PROC			; std::shared_mutex::`scalar deleting destructor', COMDAT
$LN6:
	push	rbx
	sub	rsp, 32					; 00000020H
	mov	edx, 8
	mov	rbx, rcx
	call	??3@YAXPEAX_K@Z				; operator delete
	mov	rax, rbx
	add	rsp, 32					; 00000020H
	pop	rbx
	ret	0
??_Gshared_mutex@std@@QEAAPEAXI@Z ENDP			; std::shared_mutex::`scalar deleting destructor'
_TEXT	ENDS
; Function compile flags: /Ogtpy
; File C:\Users\84038\Desktop\video_codec_thread_test\src\threadwrapper\src\pthread.cpp
; File D:\software_install\VS2019\VC\Tools\MSVC\14.26.28801\include\shared_mutex
; File C:\Users\84038\Desktop\video_codec_thread_test\src\threadwrapper\src\pthread.cpp
_TEXT	SEGMENT
rwlock$ = 48
pthread_rwlock_rdlock PROC

; 111  : {

$LN7:
	sub	rsp, 40					; 00000028H

; 112  :   static_cast<rw_lock_internal*>(*rwlock)->lock->lock_shared();

	mov	rcx, QWORD PTR [rcx]
; File D:\software_install\VS2019\VC\Tools\MSVC\14.26.28801\include\shared_mutex

; 54   :         _Smtx_lock_shared(&_Myhandle);

	mov	rcx, QWORD PTR [rcx]
	call	_Smtx_lock_shared
; File C:\Users\84038\Desktop\video_codec_thread_test\src\threadwrapper\src\pthread.cpp

; 113  :   return 0;

	xor	eax, eax

; 114  : }

	add	rsp, 40					; 00000028H
	ret	0
pthread_rwlock_rdlock ENDP
_TEXT	ENDS
; Function compile flags: /Ogtpy
; File C:\Users\84038\Desktop\video_codec_thread_test\src\threadwrapper\src\pthread.cpp
; File D:\software_install\VS2019\VC\Tools\MSVC\14.26.28801\include\shared_mutex
; File C:\Users\84038\Desktop\video_codec_thread_test\src\threadwrapper\src\pthread.cpp
_TEXT	SEGMENT
rwlock$ = 48
pthread_rwlock_wrlock PROC

; 117  : {

$LN7:
	push	rbx
	sub	rsp, 32					; 00000020H
	mov	rbx, rcx

; 118  :   static_cast<rw_lock_internal*>(*rwlock)->lock->lock();

	mov	rcx, QWORD PTR [rcx]
; File D:\software_install\VS2019\VC\Tools\MSVC\14.26.28801\include\shared_mutex

; 42   :         _Smtx_lock_exclusive(&_Myhandle);

	mov	rcx, QWORD PTR [rcx]
	call	_Smtx_lock_exclusive
; File C:\Users\84038\Desktop\video_codec_thread_test\src\threadwrapper\src\pthread.cpp

; 119  :   static_cast<rw_lock_internal*>(*rwlock)->write_lock = true;

	mov	rax, QWORD PTR [rbx]
	mov	BYTE PTR [rax+8], 1

; 120  :   return 0;

	xor	eax, eax

; 121  : }

	add	rsp, 32					; 00000020H
	pop	rbx
	ret	0
pthread_rwlock_wrlock ENDP
_TEXT	ENDS
; Function compile flags: /Ogtpy
; File C:\Users\84038\Desktop\video_codec_thread_test\src\threadwrapper\src\pthread.cpp
; File D:\software_install\VS2019\VC\Tools\MSVC\14.26.28801\include\shared_mutex
; File C:\Users\84038\Desktop\video_codec_thread_test\src\threadwrapper\src\pthread.cpp
; File D:\software_install\VS2019\VC\Tools\MSVC\14.26.28801\include\shared_mutex
; File C:\Users\84038\Desktop\video_codec_thread_test\src\threadwrapper\src\pthread.cpp
_TEXT	SEGMENT
rwlock$ = 48
pthread_rwlock_unlock PROC

; 124  : {

$LN12:
	sub	rsp, 40					; 00000028H
	mov	rax, rcx

; 125  :   if (static_cast<rw_lock_internal*>(*rwlock)->write_lock) {

	mov	rcx, QWORD PTR [rcx]
	cmp	BYTE PTR [rcx+8], 0
	je	SHORT $LN2@pthread_rw

; 126  :     static_cast<rw_lock_internal*>(*rwlock)->write_lock = false;

	mov	BYTE PTR [rcx+8], 0

; 127  :     static_cast<rw_lock_internal*>(*rwlock)->lock->unlock();

	mov	rcx, QWORD PTR [rax]
; File D:\software_install\VS2019\VC\Tools\MSVC\14.26.28801\include\shared_mutex

; 50   :         _Smtx_unlock_exclusive(&_Myhandle);

	mov	rcx, QWORD PTR [rcx]
	call	_Smtx_unlock_exclusive
; File C:\Users\84038\Desktop\video_codec_thread_test\src\threadwrapper\src\pthread.cpp

; 133  : }

	xor	eax, eax
	add	rsp, 40					; 00000028H
	ret	0
$LN2@pthread_rw:
; File D:\software_install\VS2019\VC\Tools\MSVC\14.26.28801\include\shared_mutex

; 62   :         _Smtx_unlock_shared(&_Myhandle);

	mov	rcx, QWORD PTR [rcx]
	call	_Smtx_unlock_shared
; File C:\Users\84038\Desktop\video_codec_thread_test\src\threadwrapper\src\pthread.cpp

; 133  : }

	xor	eax, eax
	add	rsp, 40					; 00000028H
	ret	0
pthread_rwlock_unlock ENDP
_TEXT	ENDS
; Function compile flags: /Ogtpy
; File D:\software_install\VS2019\VC\Tools\MSVC\14.26.28801\include\mutex
;	COMDAT ?mutex@?$unique_lock@Vmutex@std@@@std@@QEBAPEAV02@XZ
_TEXT	SEGMENT
this$ = 8
?mutex@?$unique_lock@Vmutex@std@@@std@@QEBAPEAV02@XZ PROC ; std::unique_lock<std::mutex>::mutex, COMDAT

; 257  :         return _Pmtx;

	mov	rax, QWORD PTR [rcx]

; 258  :     }

	ret	0
?mutex@?$unique_lock@Vmutex@std@@@std@@QEBAPEAV02@XZ ENDP ; std::unique_lock<std::mutex>::mutex
_TEXT	ENDS
; Function compile flags: /Ogtpy
; File D:\software_install\VS2019\VC\Tools\MSVC\14.26.28801\include\mutex
;	COMDAT ?release@?$unique_lock@Vmutex@std@@@std@@QEAAPEAVmutex@2@XZ
_TEXT	SEGMENT
this$ = 8
?release@?$unique_lock@Vmutex@std@@@std@@QEAAPEAVmutex@2@XZ PROC ; std::unique_lock<std::mutex>::release, COMDAT

; 242  :         _Mutex* _Res = _Pmtx;

	mov	rax, QWORD PTR [rcx]

; 243  :         _Pmtx        = nullptr;

	mov	QWORD PTR [rcx], 0

; 244  :         _Owns        = false;

	mov	BYTE PTR [rcx+8], 0

; 245  :         return _Res;
; 246  :     }

	ret	0
?release@?$unique_lock@Vmutex@std@@@std@@QEAAPEAVmutex@2@XZ ENDP ; std::unique_lock<std::mutex>::release
_TEXT	ENDS
; Function compile flags: /Ogtpy
; File D:\software_install\VS2019\VC\Tools\MSVC\14.26.28801\include\mutex
; File D:\software_install\VS2019\VC\Tools\MSVC\14.26.28801\include\xthreads.h
; File D:\software_install\VS2019\VC\Tools\MSVC\14.26.28801\include\mutex
;	COMDAT ??1?$unique_lock@Vmutex@std@@@std@@QEAA@XZ
_TEXT	SEGMENT
this$ = 48
??1?$unique_lock@Vmutex@std@@@std@@QEAA@XZ PROC		; std::unique_lock<std::mutex>::~unique_lock<std::mutex>, COMDAT

; 186  :     ~unique_lock() noexcept {

$LN14:
	sub	rsp, 40					; 00000028H

; 187  :         if (_Owns) {

	cmp	BYTE PTR [rcx+8], 0
	je	SHORT $LN7@unique_loc

; 67   :         _Check_C_return(_Mtx_unlock(_Mymtx()));

	mov	rcx, QWORD PTR [rcx]
	call	QWORD PTR __imp__Mtx_unlock
; File D:\software_install\VS2019\VC\Tools\MSVC\14.26.28801\include\xthreads.h

; 130  :     if (_Res != _Thrd_success) {

	test	eax, eax
	je	SHORT $LN7@unique_loc

; 131  :         _Throw_C_error(_Res);

	mov	ecx, eax
	call	QWORD PTR __imp_?_Throw_C_error@std@@YAXH@Z
	npad	1
$LN7@unique_loc:
; File D:\software_install\VS2019\VC\Tools\MSVC\14.26.28801\include\mutex

; 190  :     }

	add	rsp, 40					; 00000028H
	ret	0
$LN11@unique_loc:
??1?$unique_lock@Vmutex@std@@@std@@QEAA@XZ ENDP		; std::unique_lock<std::mutex>::~unique_lock<std::mutex>
_TEXT	ENDS
; Function compile flags: /Ogtpy
; File D:\software_install\VS2019\VC\Tools\MSVC\14.26.28801\include\mutex
;	COMDAT ??0?$unique_lock@Vmutex@std@@@std@@QEAA@AEAVmutex@1@Uadopt_lock_t@1@@Z
_TEXT	SEGMENT
this$ = 8
_Mtx$ = 16
__formal$dead$ = 24
??0?$unique_lock@Vmutex@std@@@std@@QEAA@AEAVmutex@1@Uadopt_lock_t@1@@Z PROC ; std::unique_lock<std::mutex>::unique_lock<std::mutex>, COMDAT

; 141  :         : _Pmtx(_STD addressof(_Mtx)), _Owns(true) { // construct and assume already locked

	mov	QWORD PTR [rcx], rdx

; 142  :     }

	mov	rax, rcx
	mov	BYTE PTR [rcx+8], 1
	ret	0
??0?$unique_lock@Vmutex@std@@@std@@QEAA@AEAVmutex@1@Uadopt_lock_t@1@@Z ENDP ; std::unique_lock<std::mutex>::unique_lock<std::mutex>
_TEXT	ENDS
; Function compile flags: /Ogtpy
; File D:\software_install\VS2019\VC\Tools\MSVC\14.26.28801\include\thread
; File D:\software_install\VS2019\VC\Tools\MSVC\14.26.28801\include\memory
; File D:\software_install\VS2019\VC\Tools\MSVC\14.26.28801\include\tuple
; File D:\software_install\VS2019\VC\Tools\MSVC\14.26.28801\include\xmemory
; File D:\software_install\VS2019\VC\Tools\MSVC\14.26.28801\include\thread
;	COMDAT ??$?0AEAP6APEAXPEAX@ZAEAPEAX$0A@@thread@std@@QEAA@AEAP6APEAXPEAX@ZAEAPEAX@Z
_TEXT	SEGMENT
_Decay_copied$ = 64
this$ = 64
_Fx$ = 72
<_Ax_0>$ = 80
??$?0AEAP6APEAXPEAX@ZAEAPEAX$0A@@thread@std@@QEAA@AEAP6APEAXPEAX@ZAEAPEAX@Z PROC ; std::thread::thread<void * (__cdecl*&)(void *),void * &,0>, COMDAT

; 55   :     explicit thread(_Fn&& _Fx, _Args&&... _Ax) {

$LN66:
	mov	QWORD PTR [rsp+16], rbx
	mov	QWORD PTR [rsp+24], rsi
	push	rdi
	sub	rsp, 48					; 00000030H
	mov	rbx, r8
	mov	rdi, rdx
	mov	rsi, rcx
; File D:\software_install\VS2019\VC\Tools\MSVC\14.26.28801\include\memory

; 2068 :     return unique_ptr<_Ty>(new _Ty(_STD forward<_Types>(_Args)...));

	mov	ecx, 16
	call	??2@YAPEAX_K@Z				; operator new
; File D:\software_install\VS2019\VC\Tools\MSVC\14.26.28801\include\tuple

; 163  :     constexpr _Tuple_val(_Other&& _Arg) : _Val(_STD forward<_Other>(_Arg)) {}

	mov	r8, QWORD PTR [rbx]
	mov	QWORD PTR [rax], r8
	mov	rdx, QWORD PTR [rdi]
	mov	QWORD PTR [rax+8], rdx
; File D:\software_install\VS2019\VC\Tools\MSVC\14.26.28801\include\xmemory

; 1333 :         : _Ty1(_STD forward<_Other1>(_Val1)), _Myval2(_STD forward<_Other2>(_Val2)...) {}

	mov	QWORD PTR _Decay_copied$[rsp], rax
; File D:\software_install\VS2019\VC\Tools\MSVC\14.26.28801\include\thread

; 64   :         _Thr._Hnd =

	lea	rbx, QWORD PTR [rsi+8]
	mov	QWORD PTR [rsp+40], rbx
	xor	edi, edi
	mov	DWORD PTR [rsp+32], edi
	mov	r9, rax
	lea	r8, OFFSET FLAT:??$_Invoke@V?$tuple@P6APEAXPEAX@ZPEAX@std@@$0A@$00@thread@std@@CAIPEAX@Z ; std::thread::_Invoke<std::tuple<void * (__cdecl*)(void *),void *>,0,1>
	xor	edx, edx
	xor	ecx, ecx
	call	QWORD PTR __imp__beginthreadex
	mov	QWORD PTR [rsi], rax

; 65   :             reinterpret_cast<void*>(_CSTD _beginthreadex(nullptr, 0, _Invoker_proc, _Decay_copied.get(), 0, &_Thr._Id));
; 66   : #pragma warning(pop)
; 67   : 
; 68   :         if (_Thr._Hnd) { // ownership transferred to the thread

	test	rax, rax
	je	SHORT $LN2@thread

; 73   :         }
; 74   :     }

	mov	rax, rsi
	mov	rbx, QWORD PTR [rsp+72]
	mov	rsi, QWORD PTR [rsp+80]
	add	rsp, 48					; 00000030H
	pop	rdi
	ret	0
$LN2@thread:

; 69   :             (void) _Decay_copied.release();
; 70   :         } else { // failed to start thread
; 71   :             _Thr._Id = 0;

	mov	DWORD PTR [rbx], edi

; 72   :             _Throw_Cpp_error(_RESOURCE_UNAVAILABLE_TRY_AGAIN);

	mov	ecx, 6
	call	QWORD PTR __imp_?_Throw_Cpp_error@std@@YAXH@Z
	int	3
$LN63@thread:
??$?0AEAP6APEAXPEAX@ZAEAPEAX$0A@@thread@std@@QEAA@AEAP6APEAXPEAX@ZAEAPEAX@Z ENDP ; std::thread::thread<void * (__cdecl*&)(void *),void * &,0>
_TEXT	ENDS
;	COMDAT text$x
text$x	SEGMENT
_Decay_copied$ = 64
this$ = 64
_Fx$ = 72
<_Ax_0>$ = 80
?dtor$1@?0???$?0AEAP6APEAXPEAX@ZAEAPEAX$0A@@thread@std@@QEAA@AEAP6APEAXPEAX@ZAEAPEAX@Z@4HA PROC ; `std::thread::thread<void * (__cdecl*&)(void *),void * &,0>'::`1'::dtor$1
	lea	rcx, QWORD PTR _Decay_copied$[rdx]
	jmp	??1?$unique_ptr@V?$tuple@P6APEAXPEAX@ZPEAX@std@@U?$default_delete@V?$tuple@P6APEAXPEAX@ZPEAX@std@@@2@@std@@QEAA@XZ ; std::unique_ptr<std::tuple<void * (__cdecl*)(void *),void *>,std::default_delete<std::tuple<void * (__cdecl*)(void *),void *> > >::~unique_ptr<std::tuple<void * (__cdecl*)(void *),void *>,std::default_delete<std::tuple<void * (__cdecl*)(void *),void *> > >
?dtor$1@?0???$?0AEAP6APEAXPEAX@ZAEAPEAX$0A@@thread@std@@QEAA@AEAP6APEAXPEAX@ZAEAPEAX@Z@4HA ENDP ; `std::thread::thread<void * (__cdecl*&)(void *),void * &,0>'::`1'::dtor$1
text$x	ENDS
; Function compile flags: /Ogtpy
;	COMDAT text$x
text$x	SEGMENT
_Decay_copied$ = 64
this$ = 64
_Fx$ = 72
<_Ax_0>$ = 80
?dtor$1@?0???$?0AEAP6APEAXPEAX@ZAEAPEAX$0A@@thread@std@@QEAA@AEAP6APEAXPEAX@ZAEAPEAX@Z@4HA PROC ; `std::thread::thread<void * (__cdecl*&)(void *),void * &,0>'::`1'::dtor$1
	lea	rcx, QWORD PTR _Decay_copied$[rdx]
	jmp	??1?$unique_ptr@V?$tuple@P6APEAXPEAX@ZPEAX@std@@U?$default_delete@V?$tuple@P6APEAXPEAX@ZPEAX@std@@@2@@std@@QEAA@XZ ; std::unique_ptr<std::tuple<void * (__cdecl*)(void *),void *>,std::default_delete<std::tuple<void * (__cdecl*)(void *),void *> > >::~unique_ptr<std::tuple<void * (__cdecl*)(void *),void *>,std::default_delete<std::tuple<void * (__cdecl*)(void *),void *> > >
?dtor$1@?0???$?0AEAP6APEAXPEAX@ZAEAPEAX$0A@@thread@std@@QEAA@AEAP6APEAXPEAX@ZAEAPEAX@Z@4HA ENDP ; `std::thread::thread<void * (__cdecl*&)(void *),void * &,0>'::`1'::dtor$1
text$x	ENDS
; Function compile flags: /Ogtpy
; File D:\software_install\VS2019\VC\Tools\MSVC\14.26.28801\include\xstddef
;	COMDAT ??$addressof@Vmutex@std@@@std@@YAPEAVmutex@0@AEAV10@@Z
_TEXT	SEGMENT
_Val$ = 8
??$addressof@Vmutex@std@@@std@@YAPEAVmutex@0@AEAV10@@Z PROC ; std::addressof<std::mutex>, COMDAT

; 275  :     return __builtin_addressof(_Val);

	mov	rax, rcx

; 276  : }

	ret	0
??$addressof@Vmutex@std@@@std@@YAPEAVmutex@0@AEAV10@@Z ENDP ; std::addressof<std::mutex>
_TEXT	ENDS
; Function compile flags: /Ogtpy
; File D:\software_install\VS2019\VC\Tools\MSVC\14.26.28801\include\memory
; File D:\software_install\VS2019\VC\Tools\MSVC\14.26.28801\include\utility
; File D:\software_install\VS2019\VC\Tools\MSVC\14.26.28801\include\memory
;	COMDAT ?release@?$unique_ptr@V?$tuple@P6APEAXPEAX@ZPEAX@std@@U?$default_delete@V?$tuple@P6APEAXPEAX@ZPEAX@std@@@2@@std@@QEAAPEAV?$tuple@P6APEAXPEAX@ZPEAX@2@XZ
_TEXT	SEGMENT
this$ = 8
?release@?$unique_ptr@V?$tuple@P6APEAXPEAX@ZPEAX@std@@U?$default_delete@V?$tuple@P6APEAXPEAX@ZPEAX@std@@@2@@std@@QEAAPEAV?$tuple@P6APEAXPEAX@ZPEAX@2@XZ PROC ; std::unique_ptr<std::tuple<void * (__cdecl*)(void *),void *>,std::default_delete<std::tuple<void * (__cdecl*)(void *),void *> > >::release, COMDAT
; File D:\software_install\VS2019\VC\Tools\MSVC\14.26.28801\include\utility

; 573  :     _Ty _Old_val = static_cast<_Ty&&>(_Val);

	mov	rax, QWORD PTR [rcx]

; 574  :     _Val         = static_cast<_Other&&>(_New_val);

	mov	QWORD PTR [rcx], 0
; File D:\software_install\VS2019\VC\Tools\MSVC\14.26.28801\include\memory

; 1907 :     }

	ret	0
?release@?$unique_ptr@V?$tuple@P6APEAXPEAX@ZPEAX@std@@U?$default_delete@V?$tuple@P6APEAXPEAX@ZPEAX@std@@@2@@std@@QEAAPEAV?$tuple@P6APEAXPEAX@ZPEAX@2@XZ ENDP ; std::unique_ptr<std::tuple<void * (__cdecl*)(void *),void *>,std::default_delete<std::tuple<void * (__cdecl*)(void *),void *> > >::release
_TEXT	ENDS
; Function compile flags: /Ogtpy
; File D:\software_install\VS2019\VC\Tools\MSVC\14.26.28801\include\memory
;	COMDAT ?get@?$unique_ptr@V?$tuple@P6APEAXPEAX@ZPEAX@std@@U?$default_delete@V?$tuple@P6APEAXPEAX@ZPEAX@std@@@2@@std@@QEBAPEAV?$tuple@P6APEAXPEAX@ZPEAX@2@XZ
_TEXT	SEGMENT
this$ = 8
?get@?$unique_ptr@V?$tuple@P6APEAXPEAX@ZPEAX@std@@U?$default_delete@V?$tuple@P6APEAXPEAX@ZPEAX@std@@@2@@std@@QEBAPEAV?$tuple@P6APEAXPEAX@ZPEAX@2@XZ PROC ; std::unique_ptr<std::tuple<void * (__cdecl*)(void *),void *>,std::default_delete<std::tuple<void * (__cdecl*)(void *),void *> > >::get, COMDAT

; 1898 :         return _Mypair._Myval2;

	mov	rax, QWORD PTR [rcx]

; 1899 :     }

	ret	0
?get@?$unique_ptr@V?$tuple@P6APEAXPEAX@ZPEAX@std@@U?$default_delete@V?$tuple@P6APEAXPEAX@ZPEAX@std@@@2@@std@@QEBAPEAV?$tuple@P6APEAXPEAX@ZPEAX@2@XZ ENDP ; std::unique_ptr<std::tuple<void * (__cdecl*)(void *),void *>,std::default_delete<std::tuple<void * (__cdecl*)(void *),void *> > >::get
_TEXT	ENDS
; Function compile flags: /Ogtpy
; File D:\software_install\VS2019\VC\Tools\MSVC\14.26.28801\include\memory
;	COMDAT ??1?$unique_ptr@V?$tuple@P6APEAXPEAX@ZPEAX@std@@U?$default_delete@V?$tuple@P6APEAXPEAX@ZPEAX@std@@@2@@std@@QEAA@XZ
_TEXT	SEGMENT
this$ = 8
??1?$unique_ptr@V?$tuple@P6APEAXPEAX@ZPEAX@std@@U?$default_delete@V?$tuple@P6APEAXPEAX@ZPEAX@std@@@2@@std@@QEAA@XZ PROC ; std::unique_ptr<std::tuple<void * (__cdecl*)(void *),void *>,std::default_delete<std::tuple<void * (__cdecl*)(void *),void *> > >::~unique_ptr<std::tuple<void * (__cdecl*)(void *),void *>,std::default_delete<std::tuple<void * (__cdecl*)(void *),void *> > >, COMDAT

; 1876 :         if (_Mypair._Myval2) {

	mov	rcx, QWORD PTR [rcx]
	test	rcx, rcx
	je	SHORT $LN5@unique_ptr

; 1762 :         delete _Ptr;

	mov	edx, 16
	jmp	??3@YAXPEAX_K@Z				; operator delete
$LN5@unique_ptr:

; 1877 :             _Mypair._Get_first()(_Mypair._Myval2);
; 1878 :         }
; 1879 :     }

	ret	0
??1?$unique_ptr@V?$tuple@P6APEAXPEAX@ZPEAX@std@@U?$default_delete@V?$tuple@P6APEAXPEAX@ZPEAX@std@@@2@@std@@QEAA@XZ ENDP ; std::unique_ptr<std::tuple<void * (__cdecl*)(void *),void *>,std::default_delete<std::tuple<void * (__cdecl*)(void *),void *> > >::~unique_ptr<std::tuple<void * (__cdecl*)(void *),void *>,std::default_delete<std::tuple<void * (__cdecl*)(void *),void *> > >
_TEXT	ENDS
; Function compile flags: /Ogtpy
; File D:\software_install\VS2019\VC\Tools\MSVC\14.26.28801\include\xmemory
;	COMDAT ?_Get_first@?$_Compressed_pair@U?$default_delete@V?$tuple@P6APEAXPEAX@ZPEAX@std@@@std@@PEAV?$tuple@P6APEAXPEAX@ZPEAX@2@$00@std@@QEAAAEAU?$default_delete@V?$tuple@P6APEAXPEAX@ZPEAX@std@@@2@XZ
_TEXT	SEGMENT
this$ = 8
?_Get_first@?$_Compressed_pair@U?$default_delete@V?$tuple@P6APEAXPEAX@ZPEAX@std@@@std@@PEAV?$tuple@P6APEAXPEAX@ZPEAX@2@$00@std@@QEAAAEAU?$default_delete@V?$tuple@P6APEAXPEAX@ZPEAX@std@@@2@XZ PROC ; std::_Compressed_pair<std::default_delete<std::tuple<void * (__cdecl*)(void *),void *> >,std::tuple<void * (__cdecl*)(void *),void *> *,1>::_Get_first, COMDAT

; 1336 :         return *this;

	mov	rax, rcx

; 1337 :     }

	ret	0
?_Get_first@?$_Compressed_pair@U?$default_delete@V?$tuple@P6APEAXPEAX@ZPEAX@std@@@std@@PEAV?$tuple@P6APEAXPEAX@ZPEAX@2@$00@std@@QEAAAEAU?$default_delete@V?$tuple@P6APEAXPEAX@ZPEAX@std@@@2@XZ ENDP ; std::_Compressed_pair<std::default_delete<std::tuple<void * (__cdecl*)(void *),void *> >,std::tuple<void * (__cdecl*)(void *),void *> *,1>::_Get_first
_TEXT	ENDS
; Function compile flags: /Ogtpy
; File D:\software_install\VS2019\VC\Tools\MSVC\14.26.28801\include\memory
;	COMDAT ??R?$default_delete@V?$tuple@P6APEAXPEAX@ZPEAX@std@@@std@@QEBAXPEAV?$tuple@P6APEAXPEAX@ZPEAX@1@@Z
_TEXT	SEGMENT
this$dead$ = 8
_Ptr$ = 16
??R?$default_delete@V?$tuple@P6APEAXPEAX@ZPEAX@std@@@std@@QEBAXPEAV?$tuple@P6APEAXPEAX@ZPEAX@1@@Z PROC ; std::default_delete<std::tuple<void * (__cdecl*)(void *),void *> >::operator(), COMDAT

; 1760 :     void operator()(_Ty* _Ptr) const noexcept /* strengthened */ { // delete a pointer

	mov	rcx, rdx

; 1761 :         static_assert(0 < sizeof(_Ty), "can't delete an incomplete type");
; 1762 :         delete _Ptr;

	mov	edx, 16
	jmp	??3@YAXPEAX_K@Z				; operator delete
??R?$default_delete@V?$tuple@P6APEAXPEAX@ZPEAX@std@@@std@@QEBAXPEAV?$tuple@P6APEAXPEAX@ZPEAX@1@@Z ENDP ; std::default_delete<std::tuple<void * (__cdecl*)(void *),void *> >::operator()
_TEXT	ENDS
; Function compile flags: /Ogtpy
; File D:\software_install\VS2019\VC\Tools\MSVC\14.26.28801\include\type_traits
;	COMDAT ??$forward@AEAP6APEAXPEAX@Z@std@@YAAEAP6APEAXPEAX@ZAEAP6APEAX0@Z@Z
_TEXT	SEGMENT
_Arg$ = 8
??$forward@AEAP6APEAXPEAX@Z@std@@YAAEAP6APEAXPEAX@ZAEAP6APEAX0@Z@Z PROC ; std::forward<void * (__cdecl*&)(void *)>, COMDAT

; 1455 :     return static_cast<_Ty&&>(_Arg);

	mov	rax, rcx

; 1456 : }

	ret	0
??$forward@AEAP6APEAXPEAX@Z@std@@YAAEAP6APEAXPEAX@ZAEAP6APEAX0@Z@Z ENDP ; std::forward<void * (__cdecl*&)(void *)>
_TEXT	ENDS
; Function compile flags: /Ogtpy
; File D:\software_install\VS2019\VC\Tools\MSVC\14.26.28801\include\type_traits
;	COMDAT ??$forward@AEAPEAX@std@@YAAEAPEAXAEAPEAX@Z
_TEXT	SEGMENT
_Arg$ = 8
??$forward@AEAPEAX@std@@YAAEAPEAXAEAPEAX@Z PROC		; std::forward<void * &>, COMDAT

; 1455 :     return static_cast<_Ty&&>(_Arg);

	mov	rax, rcx

; 1456 : }

	ret	0
??$forward@AEAPEAX@std@@YAAEAPEAXAEAPEAX@Z ENDP		; std::forward<void * &>
_TEXT	ENDS
; Function compile flags: /Ogtpy
; File D:\software_install\VS2019\VC\Tools\MSVC\14.26.28801\include\memory
; File D:\software_install\VS2019\VC\Tools\MSVC\14.26.28801\include\tuple
; File D:\software_install\VS2019\VC\Tools\MSVC\14.26.28801\include\memory
; File D:\software_install\VS2019\VC\Tools\MSVC\14.26.28801\include\tuple
; File D:\software_install\VS2019\VC\Tools\MSVC\14.26.28801\include\xmemory
; File D:\software_install\VS2019\VC\Tools\MSVC\14.26.28801\include\memory
;	COMDAT ??$make_unique@V?$tuple@P6APEAXPEAX@ZPEAX@std@@AEAP6APEAXPEAX@ZAEAPEAX$0A@@std@@YA?AV?$unique_ptr@V?$tuple@P6APEAXPEAX@ZPEAX@std@@U?$default_delete@V?$tuple@P6APEAXPEAX@ZPEAX@std@@@2@@0@AEAP6APEAXPEAX@ZAEAPEAX@Z
_TEXT	SEGMENT
__$ReturnUdt$ = 48
<_Args_0>$ = 56
<_Args_1>$ = 64
??$make_unique@V?$tuple@P6APEAXPEAX@ZPEAX@std@@AEAP6APEAXPEAX@ZAEAPEAX$0A@@std@@YA?AV?$unique_ptr@V?$tuple@P6APEAXPEAX@ZPEAX@std@@U?$default_delete@V?$tuple@P6APEAXPEAX@ZPEAX@std@@@2@@0@AEAP6APEAXPEAX@ZAEAPEAX@Z PROC ; std::make_unique<std::tuple<void * (__cdecl*)(void *),void *>,void * (__cdecl*&)(void *),void * &,0>, COMDAT

; 2067 : _NODISCARD unique_ptr<_Ty> make_unique(_Types&&... _Args) { // make a unique_ptr

$LN37:
	mov	QWORD PTR [rsp+8], rbx
	mov	QWORD PTR [rsp+16], rsi
	push	rdi
	sub	rsp, 32					; 00000020H
	mov	rsi, rcx
	mov	rbx, r8

; 2068 :     return unique_ptr<_Ty>(new _Ty(_STD forward<_Types>(_Args)...));

	mov	ecx, 16
	mov	rdi, rdx
	call	??2@YAPEAX_K@Z				; operator new
; File D:\software_install\VS2019\VC\Tools\MSVC\14.26.28801\include\tuple

; 163  :     constexpr _Tuple_val(_Other&& _Arg) : _Val(_STD forward<_Other>(_Arg)) {}

	mov	r8, QWORD PTR [rbx]
; File D:\software_install\VS2019\VC\Tools\MSVC\14.26.28801\include\memory

; 2069 : }

	mov	rbx, QWORD PTR [rsp+48]
; File D:\software_install\VS2019\VC\Tools\MSVC\14.26.28801\include\tuple

; 163  :     constexpr _Tuple_val(_Other&& _Arg) : _Val(_STD forward<_Other>(_Arg)) {}

	mov	QWORD PTR [rax], r8
	mov	rdx, QWORD PTR [rdi]
	mov	QWORD PTR [rax+8], rdx
; File D:\software_install\VS2019\VC\Tools\MSVC\14.26.28801\include\xmemory

; 1333 :         : _Ty1(_STD forward<_Other1>(_Val1)), _Myval2(_STD forward<_Other2>(_Val2)...) {}

	mov	QWORD PTR [rsi], rax
; File D:\software_install\VS2019\VC\Tools\MSVC\14.26.28801\include\memory

; 2068 :     return unique_ptr<_Ty>(new _Ty(_STD forward<_Types>(_Args)...));

	mov	rax, rsi

; 2069 : }

	mov	rsi, QWORD PTR [rsp+56]
	add	rsp, 32					; 00000020H
	pop	rdi
	ret	0
??$make_unique@V?$tuple@P6APEAXPEAX@ZPEAX@std@@AEAP6APEAXPEAX@ZAEAPEAX$0A@@std@@YA?AV?$unique_ptr@V?$tuple@P6APEAXPEAX@ZPEAX@std@@U?$default_delete@V?$tuple@P6APEAXPEAX@ZPEAX@std@@@2@@0@AEAP6APEAXPEAX@ZAEAPEAX@Z ENDP ; std::make_unique<std::tuple<void * (__cdecl*)(void *),void *>,void * (__cdecl*&)(void *),void * &,0>
_TEXT	ENDS
; Function compile flags: /Ogtpy
; File D:\software_install\VS2019\VC\Tools\MSVC\14.26.28801\include\memory
; File D:\software_install\VS2019\VC\Tools\MSVC\14.26.28801\include\utility
; File D:\software_install\VS2019\VC\Tools\MSVC\14.26.28801\include\xmemory
; File D:\software_install\VS2019\VC\Tools\MSVC\14.26.28801\include\memory
;	COMDAT ??$?0U?$default_delete@V?$tuple@P6APEAXPEAX@ZPEAX@std@@@std@@$0A@@?$unique_ptr@V?$tuple@P6APEAXPEAX@ZPEAX@std@@U?$default_delete@V?$tuple@P6APEAXPEAX@ZPEAX@std@@@2@@std@@QEAA@$$QEAV01@@Z
_TEXT	SEGMENT
this$ = 8
_Right$ = 16
??$?0U?$default_delete@V?$tuple@P6APEAXPEAX@ZPEAX@std@@@std@@$0A@@?$unique_ptr@V?$tuple@P6APEAXPEAX@ZPEAX@std@@U?$default_delete@V?$tuple@P6APEAXPEAX@ZPEAX@std@@@2@@std@@QEAA@$$QEAV01@@Z PROC ; std::unique_ptr<std::tuple<void * (__cdecl*)(void *),void *>,std::default_delete<std::tuple<void * (__cdecl*)(void *),void *> > >::unique_ptr<std::tuple<void * (__cdecl*)(void *),void *>,std::default_delete<std::tuple<void * (__cdecl*)(void *),void *> > ><std::default_delete<std::tuple<void * (__cdecl*)(void *),void *> >,0>, COMDAT
; File D:\software_install\VS2019\VC\Tools\MSVC\14.26.28801\include\utility

; 573  :     _Ty _Old_val = static_cast<_Ty&&>(_Val);

	mov	rax, QWORD PTR [rdx]

; 574  :     _Val         = static_cast<_Other&&>(_New_val);

	mov	QWORD PTR [rdx], 0
; File D:\software_install\VS2019\VC\Tools\MSVC\14.26.28801\include\xmemory

; 1333 :         : _Ty1(_STD forward<_Other1>(_Val1)), _Myval2(_STD forward<_Other2>(_Val2)...) {}

	mov	QWORD PTR [rcx], rax
; File D:\software_install\VS2019\VC\Tools\MSVC\14.26.28801\include\memory

; 1833 :     }

	mov	rax, rcx
	ret	0
??$?0U?$default_delete@V?$tuple@P6APEAXPEAX@ZPEAX@std@@@std@@$0A@@?$unique_ptr@V?$tuple@P6APEAXPEAX@ZPEAX@std@@U?$default_delete@V?$tuple@P6APEAXPEAX@ZPEAX@std@@@2@@std@@QEAA@$$QEAV01@@Z ENDP ; std::unique_ptr<std::tuple<void * (__cdecl*)(void *),void *>,std::default_delete<std::tuple<void * (__cdecl*)(void *),void *> > >::unique_ptr<std::tuple<void * (__cdecl*)(void *),void *>,std::default_delete<std::tuple<void * (__cdecl*)(void *),void *> > ><std::default_delete<std::tuple<void * (__cdecl*)(void *),void *> >,0>
_TEXT	ENDS
; Function compile flags: /Ogtpy
; File D:\software_install\VS2019\VC\Tools\MSVC\14.26.28801\include\thread
; File D:\software_install\VS2019\VC\Tools\MSVC\14.26.28801\include\type_traits
; File D:\software_install\VS2019\VC\Tools\MSVC\14.26.28801\include\thread
; File D:\software_install\VS2019\VC\Tools\MSVC\14.26.28801\include\memory
; File D:\software_install\VS2019\VC\Tools\MSVC\14.26.28801\include\thread
;	COMDAT ??$_Invoke@V?$tuple@P6APEAXPEAX@ZPEAX@std@@$0A@$00@thread@std@@CAIPEAX@Z
_TEXT	SEGMENT
_RawVals$ = 48
??$_Invoke@V?$tuple@P6APEAXPEAX@ZPEAX@std@@$0A@$00@thread@std@@CAIPEAX@Z PROC ; std::thread::_Invoke<std::tuple<void * (__cdecl*)(void *),void *>,0,1>, COMDAT

; 39   :     static unsigned int __stdcall _Invoke(void* _RawVals) noexcept /* terminates */ {

$LN18:
	push	rbx
	sub	rsp, 32					; 00000020H
	mov	rbx, rcx
; File D:\software_install\VS2019\VC\Tools\MSVC\14.26.28801\include\type_traits

; 1612 : _IMPLEMENT_INVOKE(_EMPTY_ARGUMENT, inline)

	mov	rcx, QWORD PTR [rcx]
	call	QWORD PTR [rbx+8]
; File D:\software_install\VS2019\VC\Tools\MSVC\14.26.28801\include\thread

; 44   :         _Cnd_do_broadcast_at_thread_exit(); // TRANSITION, ABI

	call	QWORD PTR __imp__Cnd_do_broadcast_at_thread_exit
; File D:\software_install\VS2019\VC\Tools\MSVC\14.26.28801\include\memory

; 1762 :         delete _Ptr;

	mov	edx, 16
	mov	rcx, rbx
	call	??3@YAXPEAX_K@Z				; operator delete
; File D:\software_install\VS2019\VC\Tools\MSVC\14.26.28801\include\thread

; 45   :         return 0;

	xor	eax, eax

; 46   :     }

	add	rsp, 32					; 00000020H
	pop	rbx
	ret	0
??$_Invoke@V?$tuple@P6APEAXPEAX@ZPEAX@std@@$0A@$00@thread@std@@CAIPEAX@Z ENDP ; std::thread::_Invoke<std::tuple<void * (__cdecl*)(void *),void *>,0,1>
_TEXT	ENDS
; Function compile flags: /Ogtpy
; File D:\software_install\VS2019\VC\Tools\MSVC\14.26.28801\include\utility
;	COMDAT ??$exchange@PEAV?$tuple@P6APEAXPEAX@ZPEAX@std@@PEAV12@@std@@YAPEAV?$tuple@P6APEAXPEAX@ZPEAX@0@AEAPEAV10@$$QEAPEAV10@@Z
_TEXT	SEGMENT
_Val$ = 8
_New_val$ = 16
??$exchange@PEAV?$tuple@P6APEAXPEAX@ZPEAX@std@@PEAV12@@std@@YAPEAV?$tuple@P6APEAXPEAX@ZPEAX@0@AEAPEAV10@$$QEAPEAV10@@Z PROC ; std::exchange<std::tuple<void * (__cdecl*)(void *),void *> *,std::tuple<void * (__cdecl*)(void *),void *> *>, COMDAT

; 572  :     // assign _New_val to _Val, return previous _Val
; 573  :     _Ty _Old_val = static_cast<_Ty&&>(_Val);
; 574  :     _Val         = static_cast<_Other&&>(_New_val);

	mov	rdx, QWORD PTR [rdx]
	mov	rax, QWORD PTR [rcx]
	mov	QWORD PTR [rcx], rdx

; 575  :     return _Old_val;
; 576  : }

	ret	0
??$exchange@PEAV?$tuple@P6APEAXPEAX@ZPEAX@std@@PEAV12@@std@@YAPEAV?$tuple@P6APEAXPEAX@ZPEAX@0@AEAPEAV10@$$QEAPEAV10@@Z ENDP ; std::exchange<std::tuple<void * (__cdecl*)(void *),void *> *,std::tuple<void * (__cdecl*)(void *),void *> *>
_TEXT	ENDS
; Function compile flags: /Ogtpy
; File D:\software_install\VS2019\VC\Tools\MSVC\14.26.28801\include\memory
;	COMDAT ??D?$unique_ptr@V?$tuple@P6APEAXPEAX@ZPEAX@std@@U?$default_delete@V?$tuple@P6APEAXPEAX@ZPEAX@std@@@2@@std@@QEBAAEAV?$tuple@P6APEAXPEAX@ZPEAX@1@XZ
_TEXT	SEGMENT
this$ = 8
??D?$unique_ptr@V?$tuple@P6APEAXPEAX@ZPEAX@std@@U?$default_delete@V?$tuple@P6APEAXPEAX@ZPEAX@std@@@2@@std@@QEBAAEAV?$tuple@P6APEAXPEAX@ZPEAX@1@XZ PROC ; std::unique_ptr<std::tuple<void * (__cdecl*)(void *),void *>,std::default_delete<std::tuple<void * (__cdecl*)(void *),void *> > >::operator*, COMDAT

; 1890 :         return *_Mypair._Myval2;

	mov	rax, QWORD PTR [rcx]

; 1891 :     }

	ret	0
??D?$unique_ptr@V?$tuple@P6APEAXPEAX@ZPEAX@std@@U?$default_delete@V?$tuple@P6APEAXPEAX@ZPEAX@std@@@2@@std@@QEBAAEAV?$tuple@P6APEAXPEAX@ZPEAX@1@XZ ENDP ; std::unique_ptr<std::tuple<void * (__cdecl*)(void *),void *>,std::default_delete<std::tuple<void * (__cdecl*)(void *),void *> > >::operator*
_TEXT	ENDS
; Function compile flags: /Ogtpy
; File D:\software_install\VS2019\VC\Tools\MSVC\14.26.28801\include\memory
;	COMDAT ?get_deleter@?$unique_ptr@V?$tuple@P6APEAXPEAX@ZPEAX@std@@U?$default_delete@V?$tuple@P6APEAXPEAX@ZPEAX@std@@@2@@std@@QEAAAEAU?$default_delete@V?$tuple@P6APEAXPEAX@ZPEAX@std@@@2@XZ
_TEXT	SEGMENT
this$ = 8
?get_deleter@?$unique_ptr@V?$tuple@P6APEAXPEAX@ZPEAX@std@@U?$default_delete@V?$tuple@P6APEAXPEAX@ZPEAX@std@@@2@@std@@QEAAAEAU?$default_delete@V?$tuple@P6APEAXPEAX@ZPEAX@std@@@2@XZ PROC ; std::unique_ptr<std::tuple<void * (__cdecl*)(void *),void *>,std::default_delete<std::tuple<void * (__cdecl*)(void *),void *> > >::get_deleter, COMDAT

; 1882 :         return _Mypair._Get_first();

	mov	rax, rcx

; 1883 :     }

	ret	0
?get_deleter@?$unique_ptr@V?$tuple@P6APEAXPEAX@ZPEAX@std@@U?$default_delete@V?$tuple@P6APEAXPEAX@ZPEAX@std@@@2@@std@@QEAAAEAU?$default_delete@V?$tuple@P6APEAXPEAX@ZPEAX@std@@@2@XZ ENDP ; std::unique_ptr<std::tuple<void * (__cdecl*)(void *),void *>,std::default_delete<std::tuple<void * (__cdecl*)(void *),void *> > >::get_deleter
_TEXT	ENDS
; Function compile flags: /Ogtpy
; File D:\software_install\VS2019\VC\Tools\MSVC\14.26.28801\include\tuple
;	COMDAT ??$?0AEAP6APEAXPEAX@ZAEAPEAX$0A@@?$tuple@P6APEAXPEAX@ZPEAX@std@@QEAA@AEAP6APEAXPEAX@ZAEAPEAX@Z
_TEXT	SEGMENT
this$ = 8
_This_arg$ = 16
<_Rest_arg_0>$ = 24
??$?0AEAP6APEAXPEAX@ZAEAPEAX$0A@@?$tuple@P6APEAXPEAX@ZPEAX@std@@QEAA@AEAP6APEAXPEAX@ZAEAPEAX@Z PROC ; std::tuple<void * (__cdecl*)(void *),void *>::tuple<void * (__cdecl*)(void *),void *><void * (__cdecl*&)(void *),void * &,0>, COMDAT

; 163  :     constexpr _Tuple_val(_Other&& _Arg) : _Val(_STD forward<_Other>(_Arg)) {}

	mov	rax, QWORD PTR [r8]
	mov	QWORD PTR [rcx], rax
	mov	rax, QWORD PTR [rdx]
	mov	QWORD PTR [rcx+8], rax

; 315  :         : tuple(_Exact_args_t{}, _STD forward<_This2>(_This_arg), _STD forward<_Rest2>(_Rest_arg)...) {}

	mov	rax, rcx
	ret	0
??$?0AEAP6APEAXPEAX@ZAEAPEAX$0A@@?$tuple@P6APEAXPEAX@ZPEAX@std@@QEAA@AEAP6APEAXPEAX@ZAEAPEAX@Z ENDP ; std::tuple<void * (__cdecl*)(void *),void *>::tuple<void * (__cdecl*)(void *),void *><void * (__cdecl*&)(void *),void * &,0>
_TEXT	ENDS
; Function compile flags: /Ogtpy
; File D:\software_install\VS2019\VC\Tools\MSVC\14.26.28801\include\memory
; File D:\software_install\VS2019\VC\Tools\MSVC\14.26.28801\include\xmemory
; File D:\software_install\VS2019\VC\Tools\MSVC\14.26.28801\include\memory
;	COMDAT ??$?0U?$default_delete@V?$tuple@P6APEAXPEAX@ZPEAX@std@@@std@@$0A@@?$unique_ptr@V?$tuple@P6APEAXPEAX@ZPEAX@std@@U?$default_delete@V?$tuple@P6APEAXPEAX@ZPEAX@std@@@2@@std@@QEAA@PEAV?$tuple@P6APEAXPEAX@ZPEAX@1@@Z
_TEXT	SEGMENT
this$ = 8
_Ptr$ = 16
??$?0U?$default_delete@V?$tuple@P6APEAXPEAX@ZPEAX@std@@@std@@$0A@@?$unique_ptr@V?$tuple@P6APEAXPEAX@ZPEAX@std@@U?$default_delete@V?$tuple@P6APEAXPEAX@ZPEAX@std@@@2@@std@@QEAA@PEAV?$tuple@P6APEAXPEAX@ZPEAX@1@@Z PROC ; std::unique_ptr<std::tuple<void * (__cdecl*)(void *),void *>,std::default_delete<std::tuple<void * (__cdecl*)(void *),void *> > >::unique_ptr<std::tuple<void * (__cdecl*)(void *),void *>,std::default_delete<std::tuple<void * (__cdecl*)(void *),void *> > ><std::default_delete<std::tuple<void * (__cdecl*)(void *),void *> >,0>, COMDAT
; File D:\software_install\VS2019\VC\Tools\MSVC\14.26.28801\include\xmemory

; 1328 :         : _Ty1(), _Myval2(_STD forward<_Other2>(_Val2)...) {}

	mov	QWORD PTR [rcx], rdx
; File D:\software_install\VS2019\VC\Tools\MSVC\14.26.28801\include\memory

; 1815 :     explicit unique_ptr(pointer _Ptr) noexcept : _Mypair(_Zero_then_variadic_args_t(), _Ptr) {}

	mov	rax, rcx
	ret	0
??$?0U?$default_delete@V?$tuple@P6APEAXPEAX@ZPEAX@std@@@std@@$0A@@?$unique_ptr@V?$tuple@P6APEAXPEAX@ZPEAX@std@@U?$default_delete@V?$tuple@P6APEAXPEAX@ZPEAX@std@@@2@@std@@QEAA@PEAV?$tuple@P6APEAXPEAX@ZPEAX@1@@Z ENDP ; std::unique_ptr<std::tuple<void * (__cdecl*)(void *),void *>,std::default_delete<std::tuple<void * (__cdecl*)(void *),void *> > >::unique_ptr<std::tuple<void * (__cdecl*)(void *),void *>,std::default_delete<std::tuple<void * (__cdecl*)(void *),void *> > ><std::default_delete<std::tuple<void * (__cdecl*)(void *),void *> >,0>
_TEXT	ENDS
; Function compile flags: /Ogtpy
; File D:\software_install\VS2019\VC\Tools\MSVC\14.26.28801\include\type_traits
;	COMDAT ??$forward@U?$default_delete@V?$tuple@P6APEAXPEAX@ZPEAX@std@@@std@@@std@@YA$$QEAU?$default_delete@V?$tuple@P6APEAXPEAX@ZPEAX@std@@@0@AEAU10@@Z
_TEXT	SEGMENT
_Arg$ = 8
??$forward@U?$default_delete@V?$tuple@P6APEAXPEAX@ZPEAX@std@@@std@@@std@@YA$$QEAU?$default_delete@V?$tuple@P6APEAXPEAX@ZPEAX@std@@@0@AEAU10@@Z PROC ; std::forward<std::default_delete<std::tuple<void * (__cdecl*)(void *),void *> > >, COMDAT

; 1455 :     return static_cast<_Ty&&>(_Arg);

	mov	rax, rcx

; 1456 : }

	ret	0
??$forward@U?$default_delete@V?$tuple@P6APEAXPEAX@ZPEAX@std@@@std@@@std@@YA$$QEAU?$default_delete@V?$tuple@P6APEAXPEAX@ZPEAX@std@@@0@AEAU10@@Z ENDP ; std::forward<std::default_delete<std::tuple<void * (__cdecl*)(void *),void *> > >
_TEXT	ENDS
; Function compile flags: /Ogtpy
; File D:\software_install\VS2019\VC\Tools\MSVC\14.26.28801\include\xmemory
;	COMDAT ??$?0U?$default_delete@V?$tuple@P6APEAXPEAX@ZPEAX@std@@@std@@PEAV?$tuple@P6APEAXPEAX@ZPEAX@1@@?$_Compressed_pair@U?$default_delete@V?$tuple@P6APEAXPEAX@ZPEAX@std@@@std@@PEAV?$tuple@P6APEAXPEAX@ZPEAX@2@$00@std@@QEAA@U_One_then_variadic_args_t@1@$$QEAU?$default_delete@V?$tuple@P6APEAXPEAX@ZPEAX@std@@@1@$$QEAPEAV?$tuple@P6APEAXPEAX@ZPEAX@1@@Z
_TEXT	SEGMENT
this$ = 8
__formal$dead$ = 16
_Val1$dead$ = 24
<_Val2_0>$ = 32
??$?0U?$default_delete@V?$tuple@P6APEAXPEAX@ZPEAX@std@@@std@@PEAV?$tuple@P6APEAXPEAX@ZPEAX@1@@?$_Compressed_pair@U?$default_delete@V?$tuple@P6APEAXPEAX@ZPEAX@std@@@std@@PEAV?$tuple@P6APEAXPEAX@ZPEAX@2@$00@std@@QEAA@U_One_then_variadic_args_t@1@$$QEAU?$default_delete@V?$tuple@P6APEAXPEAX@ZPEAX@std@@@1@$$QEAPEAV?$tuple@P6APEAXPEAX@ZPEAX@1@@Z PROC ; std::_Compressed_pair<std::default_delete<std::tuple<void * (__cdecl*)(void *),void *> >,std::tuple<void * (__cdecl*)(void *),void *> *,1>::_Compressed_pair<std::default_delete<std::tuple<void * (__cdecl*)(void *),void *> >,std::tuple<void * (__cdecl*)(void *),void *> *,1><std::default_delete<std::tuple<void * (__cdecl*)(void *),void *> >,std::tuple<void * (__cdecl*)(void *),void *> *>, COMDAT

; 1333 :         : _Ty1(_STD forward<_Other1>(_Val1)), _Myval2(_STD forward<_Other2>(_Val2)...) {}

	mov	rax, QWORD PTR [r9]
	mov	QWORD PTR [rcx], rax
	mov	rax, rcx
	ret	0
??$?0U?$default_delete@V?$tuple@P6APEAXPEAX@ZPEAX@std@@@std@@PEAV?$tuple@P6APEAXPEAX@ZPEAX@1@@?$_Compressed_pair@U?$default_delete@V?$tuple@P6APEAXPEAX@ZPEAX@std@@@std@@PEAV?$tuple@P6APEAXPEAX@ZPEAX@2@$00@std@@QEAA@U_One_then_variadic_args_t@1@$$QEAU?$default_delete@V?$tuple@P6APEAXPEAX@ZPEAX@std@@@1@$$QEAPEAV?$tuple@P6APEAXPEAX@ZPEAX@1@@Z ENDP ; std::_Compressed_pair<std::default_delete<std::tuple<void * (__cdecl*)(void *),void *> >,std::tuple<void * (__cdecl*)(void *),void *> *,1>::_Compressed_pair<std::default_delete<std::tuple<void * (__cdecl*)(void *),void *> >,std::tuple<void * (__cdecl*)(void *),void *> *,1><std::default_delete<std::tuple<void * (__cdecl*)(void *),void *> >,std::tuple<void * (__cdecl*)(void *),void *> *>
_TEXT	ENDS
; Function compile flags: /Ogtpy
; File D:\software_install\VS2019\VC\Tools\MSVC\14.26.28801\include\tuple
;	COMDAT ??$get@$0A@P6APEAXPEAX@ZPEAX@std@@YAAEAP6APEAXPEAX@ZAEAV?$tuple@P6APEAXPEAX@ZPEAX@0@@Z
_TEXT	SEGMENT
_Tuple$ = 8
??$get@$0A@P6APEAXPEAX@ZPEAX@std@@YAAEAP6APEAXPEAX@ZAEAV?$tuple@P6APEAXPEAX@ZPEAX@0@@Z PROC ; std::get<0,void * (__cdecl*)(void *),void *>, COMDAT

; 762  :     using _Ttype = typename tuple_element<_Index, tuple<_Types...>>::_Ttype;
; 763  :     return static_cast<_Ttype&>(_Tuple)._Myfirst._Val;

	lea	rax, QWORD PTR [rcx+8]

; 764  : }

	ret	0
??$get@$0A@P6APEAXPEAX@ZPEAX@std@@YAAEAP6APEAXPEAX@ZAEAV?$tuple@P6APEAXPEAX@ZPEAX@0@@Z ENDP ; std::get<0,void * (__cdecl*)(void *),void *>
_TEXT	ENDS
; Function compile flags: /Ogtpy
; File D:\software_install\VS2019\VC\Tools\MSVC\14.26.28801\include\type_traits
;	COMDAT ??$move@AEAP6APEAXPEAX@Z@std@@YA$$QEAP6APEAXPEAX@ZAEAP6APEAX0@Z@Z
_TEXT	SEGMENT
_Arg$ = 8
??$move@AEAP6APEAXPEAX@Z@std@@YA$$QEAP6APEAXPEAX@ZAEAP6APEAX0@Z@Z PROC ; std::move<void * (__cdecl*&)(void *)>, COMDAT

; 1467 :     return static_cast<remove_reference_t<_Ty>&&>(_Arg);

	mov	rax, rcx

; 1468 : }

	ret	0
??$move@AEAP6APEAXPEAX@Z@std@@YA$$QEAP6APEAXPEAX@ZAEAP6APEAX0@Z@Z ENDP ; std::move<void * (__cdecl*&)(void *)>
_TEXT	ENDS
; Function compile flags: /Ogtpy
; File D:\software_install\VS2019\VC\Tools\MSVC\14.26.28801\include\tuple
;	COMDAT ??$get@$00P6APEAXPEAX@ZPEAX@std@@YAAEAPEAXAEAV?$tuple@P6APEAXPEAX@ZPEAX@0@@Z
_TEXT	SEGMENT
_Tuple$ = 8
??$get@$00P6APEAXPEAX@ZPEAX@std@@YAAEAPEAXAEAV?$tuple@P6APEAXPEAX@ZPEAX@0@@Z PROC ; std::get<1,void * (__cdecl*)(void *),void *>, COMDAT

; 762  :     using _Ttype = typename tuple_element<_Index, tuple<_Types...>>::_Ttype;
; 763  :     return static_cast<_Ttype&>(_Tuple)._Myfirst._Val;

	mov	rax, rcx

; 764  : }

	ret	0
??$get@$00P6APEAXPEAX@ZPEAX@std@@YAAEAPEAXAEAV?$tuple@P6APEAXPEAX@ZPEAX@0@@Z ENDP ; std::get<1,void * (__cdecl*)(void *),void *>
_TEXT	ENDS
; Function compile flags: /Ogtpy
; File D:\software_install\VS2019\VC\Tools\MSVC\14.26.28801\include\type_traits
;	COMDAT ??$move@AEAPEAX@std@@YA$$QEAPEAXAEAPEAX@Z
_TEXT	SEGMENT
_Arg$ = 8
??$move@AEAPEAX@std@@YA$$QEAPEAXAEAPEAX@Z PROC		; std::move<void * &>, COMDAT

; 1467 :     return static_cast<remove_reference_t<_Ty>&&>(_Arg);

	mov	rax, rcx

; 1468 : }

	ret	0
??$move@AEAPEAX@std@@YA$$QEAPEAXAEAPEAX@Z ENDP		; std::move<void * &>
_TEXT	ENDS
; Function compile flags: /Ogtpy
; File D:\software_install\VS2019\VC\Tools\MSVC\14.26.28801\include\type_traits
;	COMDAT ??$invoke@P6APEAXPEAX@ZPEAX@std@@YAPEAX$$QEAP6APEAXPEAX@Z$$QEAPEAX@Z
_TEXT	SEGMENT
_Obj$ = 8
<_Args_0>$ = 16
??$invoke@P6APEAXPEAX@ZPEAX@std@@YAPEAX$$QEAP6APEAXPEAX@Z$$QEAPEAX@Z PROC ; std::invoke<void * (__cdecl*)(void *),void *>, COMDAT

; 1612 : _IMPLEMENT_INVOKE(_EMPTY_ARGUMENT, inline)

	mov	rax, rcx
	mov	rcx, QWORD PTR [rdx]
	rex_jmp	QWORD PTR [rax]
??$invoke@P6APEAXPEAX@ZPEAX@std@@YAPEAX$$QEAP6APEAXPEAX@Z$$QEAPEAX@Z ENDP ; std::invoke<void * (__cdecl*)(void *),void *>
_TEXT	ENDS
; Function compile flags: /Ogtpy
; File D:\software_install\VS2019\VC\Tools\MSVC\14.26.28801\include\type_traits
;	COMDAT ??$forward@P6APEAXPEAX@Z@std@@YA$$QEAP6APEAXPEAX@ZAEAP6APEAX0@Z@Z
_TEXT	SEGMENT
_Arg$ = 8
??$forward@P6APEAXPEAX@Z@std@@YA$$QEAP6APEAXPEAX@ZAEAP6APEAX0@Z@Z PROC ; std::forward<void * (__cdecl*)(void *)>, COMDAT

; 1455 :     return static_cast<_Ty&&>(_Arg);

	mov	rax, rcx

; 1456 : }

	ret	0
??$forward@P6APEAXPEAX@Z@std@@YA$$QEAP6APEAXPEAX@ZAEAP6APEAX0@Z@Z ENDP ; std::forward<void * (__cdecl*)(void *)>
_TEXT	ENDS
; Function compile flags: /Ogtpy
; File D:\software_install\VS2019\VC\Tools\MSVC\14.26.28801\include\type_traits
;	COMDAT ??$forward@PEAX@std@@YA$$QEAPEAXAEAPEAX@Z
_TEXT	SEGMENT
_Arg$ = 8
??$forward@PEAX@std@@YA$$QEAPEAXAEAPEAX@Z PROC		; std::forward<void *>, COMDAT

; 1455 :     return static_cast<_Ty&&>(_Arg);

	mov	rax, rcx

; 1456 : }

	ret	0
??$forward@PEAX@std@@YA$$QEAPEAXAEAPEAX@Z ENDP		; std::forward<void *>
_TEXT	ENDS
; Function compile flags: /Ogtpy
; File D:\software_install\VS2019\VC\Tools\MSVC\14.26.28801\include\type_traits
;	COMDAT ??$_Call@P6APEAXPEAX@ZPEAX@_Invoker_functor@std@@SAPEAX$$QEAP6APEAXPEAX@Z$$QEAPEAX@Z
_TEXT	SEGMENT
_Obj$ = 8
<_Args_0>$ = 16
??$_Call@P6APEAXPEAX@ZPEAX@_Invoker_functor@std@@SAPEAX$$QEAP6APEAXPEAX@Z$$QEAPEAX@Z PROC ; std::_Invoker_functor::_Call<void * (__cdecl*)(void *),void *>, COMDAT

; 1612 : _IMPLEMENT_INVOKE(_EMPTY_ARGUMENT, inline)

	mov	rax, rcx
	mov	rcx, QWORD PTR [rdx]
	rex_jmp	QWORD PTR [rax]
??$_Call@P6APEAXPEAX@ZPEAX@_Invoker_functor@std@@SAPEAX$$QEAP6APEAXPEAX@Z$$QEAPEAX@Z ENDP ; std::_Invoker_functor::_Call<void * (__cdecl*)(void *),void *>
_TEXT	ENDS
; Function compile flags: /Ogtpy
; File D:\software_install\VS2019\VC\Tools\MSVC\14.26.28801\include\tuple
;	COMDAT ??$?0U_Exact_args_t@std@@AEAP6APEAXPEAX@ZAEAPEAX$0A@@?$tuple@P6APEAXPEAX@ZPEAX@std@@QEAA@U_Exact_args_t@1@AEAP6APEAXPEAX@ZAEAPEAX@Z
_TEXT	SEGMENT
this$ = 8
__formal$dead$ = 16
_This_arg$ = 24
<_Rest_arg_0>$ = 32
??$?0U_Exact_args_t@std@@AEAP6APEAXPEAX@ZAEAPEAX$0A@@?$tuple@P6APEAXPEAX@ZPEAX@std@@QEAA@U_Exact_args_t@1@AEAP6APEAXPEAX@ZAEAPEAX@Z PROC ; std::tuple<void * (__cdecl*)(void *),void *>::tuple<void * (__cdecl*)(void *),void *><std::_Exact_args_t,void * (__cdecl*&)(void *),void * &,0>, COMDAT

; 163  :     constexpr _Tuple_val(_Other&& _Arg) : _Val(_STD forward<_Other>(_Arg)) {}

	mov	rax, QWORD PTR [r9]
	mov	QWORD PTR [rcx], rax
	mov	rax, QWORD PTR [r8]
	mov	QWORD PTR [rcx+8], rax

; 234  :         : _Mybase(_Exact_args_t{}, _STD forward<_Rest2>(_Rest_arg)...), _Myfirst(_STD forward<_This2>(_This_arg)) {}

	mov	rax, rcx
	ret	0
??$?0U_Exact_args_t@std@@AEAP6APEAXPEAX@ZAEAPEAX$0A@@?$tuple@P6APEAXPEAX@ZPEAX@std@@QEAA@U_Exact_args_t@1@AEAP6APEAXPEAX@ZAEAPEAX@Z ENDP ; std::tuple<void * (__cdecl*)(void *),void *>::tuple<void * (__cdecl*)(void *),void *><std::_Exact_args_t,void * (__cdecl*&)(void *),void * &,0>
_TEXT	ENDS
; Function compile flags: /Ogtpy
; File D:\software_install\VS2019\VC\Tools\MSVC\14.26.28801\include\xmemory
;	COMDAT ??$?0AEAPEAV?$tuple@P6APEAXPEAX@ZPEAX@std@@@?$_Compressed_pair@U?$default_delete@V?$tuple@P6APEAXPEAX@ZPEAX@std@@@std@@PEAV?$tuple@P6APEAXPEAX@ZPEAX@2@$00@std@@QEAA@U_Zero_then_variadic_args_t@1@AEAPEAV?$tuple@P6APEAXPEAX@ZPEAX@1@@Z
_TEXT	SEGMENT
this$ = 8
__formal$dead$ = 16
<_Val2_0>$ = 24
??$?0AEAPEAV?$tuple@P6APEAXPEAX@ZPEAX@std@@@?$_Compressed_pair@U?$default_delete@V?$tuple@P6APEAXPEAX@ZPEAX@std@@@std@@PEAV?$tuple@P6APEAXPEAX@ZPEAX@2@$00@std@@QEAA@U_Zero_then_variadic_args_t@1@AEAPEAV?$tuple@P6APEAXPEAX@ZPEAX@1@@Z PROC ; std::_Compressed_pair<std::default_delete<std::tuple<void * (__cdecl*)(void *),void *> >,std::tuple<void * (__cdecl*)(void *),void *> *,1>::_Compressed_pair<std::default_delete<std::tuple<void * (__cdecl*)(void *),void *> >,std::tuple<void * (__cdecl*)(void *),void *> *,1><std::tuple<void * (__cdecl*)(void *),void *> * &>, COMDAT

; 1328 :         : _Ty1(), _Myval2(_STD forward<_Other2>(_Val2)...) {}

	mov	rax, QWORD PTR [r8]
	mov	QWORD PTR [rcx], rax
	mov	rax, rcx
	ret	0
??$?0AEAPEAV?$tuple@P6APEAXPEAX@ZPEAX@std@@@?$_Compressed_pair@U?$default_delete@V?$tuple@P6APEAXPEAX@ZPEAX@std@@@std@@PEAV?$tuple@P6APEAXPEAX@ZPEAX@2@$00@std@@QEAA@U_Zero_then_variadic_args_t@1@AEAPEAV?$tuple@P6APEAXPEAX@ZPEAX@1@@Z ENDP ; std::_Compressed_pair<std::default_delete<std::tuple<void * (__cdecl*)(void *),void *> >,std::tuple<void * (__cdecl*)(void *),void *> *,1>::_Compressed_pair<std::default_delete<std::tuple<void * (__cdecl*)(void *),void *> >,std::tuple<void * (__cdecl*)(void *),void *> *,1><std::tuple<void * (__cdecl*)(void *),void *> * &>
_TEXT	ENDS
; Function compile flags: /Ogtpy
; File D:\software_install\VS2019\VC\Tools\MSVC\14.26.28801\include\type_traits
;	COMDAT ??$forward@PEAV?$tuple@P6APEAXPEAX@ZPEAX@std@@@std@@YA$$QEAPEAV?$tuple@P6APEAXPEAX@ZPEAX@0@AEAPEAV10@@Z
_TEXT	SEGMENT
_Arg$ = 8
??$forward@PEAV?$tuple@P6APEAXPEAX@ZPEAX@std@@@std@@YA$$QEAPEAV?$tuple@P6APEAXPEAX@ZPEAX@0@AEAPEAV10@@Z PROC ; std::forward<std::tuple<void * (__cdecl*)(void *),void *> *>, COMDAT

; 1455 :     return static_cast<_Ty&&>(_Arg);

	mov	rax, rcx

; 1456 : }

	ret	0
??$forward@PEAV?$tuple@P6APEAXPEAX@ZPEAX@std@@@std@@YA$$QEAPEAV?$tuple@P6APEAXPEAX@ZPEAX@0@AEAPEAV10@@Z ENDP ; std::forward<std::tuple<void * (__cdecl*)(void *),void *> *>
_TEXT	ENDS
; Function compile flags: /Ogtpy
; File D:\software_install\VS2019\VC\Tools\MSVC\14.26.28801\include\tuple
;	COMDAT ??$?0U_Exact_args_t@std@@AEAPEAX$$V$0A@@?$tuple@PEAX@std@@QEAA@U_Exact_args_t@1@AEAPEAX@Z
_TEXT	SEGMENT
this$ = 8
__formal$dead$ = 16
_This_arg$ = 24
??$?0U_Exact_args_t@std@@AEAPEAX$$V$0A@@?$tuple@PEAX@std@@QEAA@U_Exact_args_t@1@AEAPEAX@Z PROC ; std::tuple<void *>::tuple<void *><std::_Exact_args_t,void * &,0>, COMDAT

; 163  :     constexpr _Tuple_val(_Other&& _Arg) : _Val(_STD forward<_Other>(_Arg)) {}

	mov	rax, QWORD PTR [r8]
	mov	QWORD PTR [rcx], rax

; 234  :         : _Mybase(_Exact_args_t{}, _STD forward<_Rest2>(_Rest_arg)...), _Myfirst(_STD forward<_This2>(_This_arg)) {}

	mov	rax, rcx
	ret	0
??$?0U_Exact_args_t@std@@AEAPEAX$$V$0A@@?$tuple@PEAX@std@@QEAA@U_Exact_args_t@1@AEAPEAX@Z ENDP ; std::tuple<void *>::tuple<void *><std::_Exact_args_t,void * &,0>
_TEXT	ENDS
; Function compile flags: /Ogtpy
; File D:\software_install\VS2019\VC\Tools\MSVC\14.26.28801\include\tuple
;	COMDAT ??$?0AEAP6APEAXPEAX@Z@?$_Tuple_val@P6APEAXPEAX@Z@std@@QEAA@AEAP6APEAXPEAX@Z@Z
_TEXT	SEGMENT
this$ = 8
_Arg$ = 16
??$?0AEAP6APEAXPEAX@Z@?$_Tuple_val@P6APEAXPEAX@Z@std@@QEAA@AEAP6APEAXPEAX@Z@Z PROC ; std::_Tuple_val<void * (__cdecl*)(void *)>::_Tuple_val<void * (__cdecl*)(void *)><void * (__cdecl*&)(void *)>, COMDAT

; 163  :     constexpr _Tuple_val(_Other&& _Arg) : _Val(_STD forward<_Other>(_Arg)) {}

	mov	rax, QWORD PTR [rdx]
	mov	QWORD PTR [rcx], rax
	mov	rax, rcx
	ret	0
??$?0AEAP6APEAXPEAX@Z@?$_Tuple_val@P6APEAXPEAX@Z@std@@QEAA@AEAP6APEAXPEAX@Z@Z ENDP ; std::_Tuple_val<void * (__cdecl*)(void *)>::_Tuple_val<void * (__cdecl*)(void *)><void * (__cdecl*&)(void *)>
_TEXT	ENDS
; Function compile flags: /Ogtpy
; File D:\software_install\VS2019\VC\Tools\MSVC\14.26.28801\include\type_traits
;	COMDAT ??$forward@AEAPEAV?$tuple@P6APEAXPEAX@ZPEAX@std@@@std@@YAAEAPEAV?$tuple@P6APEAXPEAX@ZPEAX@0@AEAPEAV10@@Z
_TEXT	SEGMENT
_Arg$ = 8
??$forward@AEAPEAV?$tuple@P6APEAXPEAX@ZPEAX@std@@@std@@YAAEAPEAV?$tuple@P6APEAXPEAX@ZPEAX@0@AEAPEAV10@@Z PROC ; std::forward<std::tuple<void * (__cdecl*)(void *),void *> * &>, COMDAT

; 1455 :     return static_cast<_Ty&&>(_Arg);

	mov	rax, rcx

; 1456 : }

	ret	0
??$forward@AEAPEAV?$tuple@P6APEAXPEAX@ZPEAX@std@@@std@@YAAEAPEAV?$tuple@P6APEAXPEAX@ZPEAX@0@AEAPEAV10@@Z ENDP ; std::forward<std::tuple<void * (__cdecl*)(void *),void *> * &>
_TEXT	ENDS
; Function compile flags: /Ogtpy
; File D:\software_install\VS2019\VC\Tools\MSVC\14.26.28801\include\tuple
;	COMDAT ??$?0U_Exact_args_t@std@@$0A@@?$tuple@$$V@std@@QEAA@U_Exact_args_t@1@@Z
_TEXT	SEGMENT
this$ = 8
__formal$dead$ = 16
??$?0U_Exact_args_t@std@@$0A@@?$tuple@$$V@std@@QEAA@U_Exact_args_t@1@@Z PROC ; std::tuple<>::tuple<><std::_Exact_args_t,0>, COMDAT

; 210  :     constexpr tuple(_Tag) noexcept /* strengthened */ {}

	mov	rax, rcx
	ret	0
??$?0U_Exact_args_t@std@@$0A@@?$tuple@$$V@std@@QEAA@U_Exact_args_t@1@@Z ENDP ; std::tuple<>::tuple<><std::_Exact_args_t,0>
_TEXT	ENDS
; Function compile flags: /Ogtpy
; File D:\software_install\VS2019\VC\Tools\MSVC\14.26.28801\include\tuple
;	COMDAT ??$?0AEAPEAX@?$_Tuple_val@PEAX@std@@QEAA@AEAPEAX@Z
_TEXT	SEGMENT
this$ = 8
_Arg$ = 16
??$?0AEAPEAX@?$_Tuple_val@PEAX@std@@QEAA@AEAPEAX@Z PROC	; std::_Tuple_val<void *>::_Tuple_val<void *><void * &>, COMDAT

; 163  :     constexpr _Tuple_val(_Other&& _Arg) : _Val(_STD forward<_Other>(_Arg)) {}

	mov	rax, QWORD PTR [rdx]
	mov	QWORD PTR [rcx], rax
	mov	rax, rcx
	ret	0
??$?0AEAPEAX@?$_Tuple_val@PEAX@std@@QEAA@AEAPEAX@Z ENDP	; std::_Tuple_val<void *>::_Tuple_val<void *><void * &>
_TEXT	ENDS
END
