; Listing generated by Microsoft (R) Optimizing Compiler Version 19.26.28806.0 

include listing.inc

INCLUDELIB OLDNAMES

PUBLIC	kvz_get_optimized_sad
PUBLIC	kvz_satd_16x16
PUBLIC	kvz_satd_16x16_dual
PUBLIC	kvz_sad_4x4_dual
PUBLIC	kvz_satd_32x32_dual
PUBLIC	kvz_reg_sad
PUBLIC	kvz_sad_16x16
PUBLIC	kvz_pixel_var
PUBLIC	kvz_satd_32x32
PUBLIC	kvz_satd_8x8
PUBLIC	kvz_satd_any_size
PUBLIC	kvz_ver_sad
PUBLIC	kvz_satd_any_size_quad
PUBLIC	kvz_sad_8x8_dual
PUBLIC	kvz_satd_64x64_dual
PUBLIC	kvz_pixels_calc_ssd
PUBLIC	kvz_satd_4x4_dual
PUBLIC	kvz_sad_64x64_dual
PUBLIC	kvz_sad_32x32
PUBLIC	kvz_satd_4x4
PUBLIC	kvz_satd_64x64
PUBLIC	kvz_satd_8x8_dual
PUBLIC	kvz_bipred_average
PUBLIC	kvz_sad_64x64
PUBLIC	kvz_sad_8x8
PUBLIC	kvz_hor_sad
PUBLIC	kvz_sad_32x32_dual
PUBLIC	kvz_sad_4x4
PUBLIC	kvz_sad_16x16_dual
kvz_get_optimized_sad DQ 01H DUP (?)
kvz_satd_16x16 DQ 01H DUP (?)
kvz_satd_16x16_dual DQ 01H DUP (?)
kvz_sad_4x4_dual DQ 01H DUP (?)
kvz_satd_32x32_dual DQ 01H DUP (?)
kvz_reg_sad DQ	01H DUP (?)
kvz_sad_16x16 DQ 01H DUP (?)
kvz_pixel_var DQ 01H DUP (?)
kvz_satd_32x32 DQ 01H DUP (?)
kvz_satd_8x8 DQ	01H DUP (?)
kvz_satd_any_size DQ 01H DUP (?)
kvz_ver_sad DQ	01H DUP (?)
kvz_satd_any_size_quad DQ 01H DUP (?)
kvz_sad_8x8_dual DQ 01H DUP (?)
kvz_satd_64x64_dual DQ 01H DUP (?)
kvz_pixels_calc_ssd DQ 01H DUP (?)
kvz_satd_4x4_dual DQ 01H DUP (?)
kvz_sad_64x64_dual DQ 01H DUP (?)
kvz_sad_32x32 DQ 01H DUP (?)
kvz_satd_4x4 DQ	01H DUP (?)
kvz_satd_64x64 DQ 01H DUP (?)
kvz_satd_8x8_dual DQ 01H DUP (?)
kvz_bipred_average DQ 01H DUP (?)
kvz_sad_64x64 DQ 01H DUP (?)
kvz_sad_8x8 DQ	01H DUP (?)
kvz_hor_sad DQ	01H DUP (?)
kvz_sad_32x32_dual DQ 01H DUP (?)
kvz_sad_4x4 DQ	01H DUP (?)
kvz_sad_16x16_dual DQ 01H DUP (?)
_BSS	ENDS
cbf_masks DW	01fH
	DW	0fH
	DW	07H
	DW	03H
	DW	01H
	ORG $+6
g_sig_last_scan_16x16 DD 00H
	DD	04H
	DD	01H
	DD	08H
	DD	05H
	DD	02H
	DD	0cH
	DD	09H
	DD	06H
	DD	03H
	DD	0dH
	DD	0aH
	DD	07H
	DD	0eH
	DD	0bH
	DD	0fH
g_group_idx DB	00H
	DB	01H
	DB	02H
	DB	03H
	DB	04H
	DB	04H
	DB	05H
	DB	05H
	DB	06H
	DB	06H
	DB	06H
	DB	06H
	DB	07H
	DB	07H
	DB	07H
	DB	07H
	DB	08H
	DB	08H
	DB	08H
	DB	08H
	DB	08H
	DB	08H
	DB	08H
	DB	08H
	DB	09H
	DB	09H
	DB	09H
	DB	09H
	DB	09H
	DB	09H
	DB	09H
	DB	09H
strategies_to_select DQ FLAT:$SG4294958659
	DQ	FLAT:kvz_array_checksum
	DQ	FLAT:$SG4294958658
	DQ	FLAT:kvz_array_md5
	DQ	FLAT:$SG4294958657
	DQ	FLAT:kvz_reg_sad
	DQ	FLAT:$SG4294958656
	DQ	FLAT:kvz_sad_4x4
	DQ	FLAT:$SG4294958655
	DQ	FLAT:kvz_sad_8x8
	DQ	FLAT:$SG4294958654
	DQ	FLAT:kvz_sad_16x16
	DQ	FLAT:$SG4294958653
	DQ	FLAT:kvz_sad_32x32
	DQ	FLAT:$SG4294958652
	DQ	FLAT:kvz_sad_64x64
	DQ	FLAT:$SG4294958651
	DQ	FLAT:kvz_satd_4x4
	DQ	FLAT:$SG4294958650
	DQ	FLAT:kvz_satd_8x8
	DQ	FLAT:$SG4294958649
	DQ	FLAT:kvz_satd_16x16
	DQ	FLAT:$SG4294958648
	DQ	FLAT:kvz_satd_32x32
	DQ	FLAT:$SG4294958647
	DQ	FLAT:kvz_satd_64x64
	DQ	FLAT:$SG4294958646
	DQ	FLAT:kvz_satd_any_size
	DQ	FLAT:$SG4294958645
	DQ	FLAT:kvz_sad_4x4_dual
	DQ	FLAT:$SG4294958644
	DQ	FLAT:kvz_sad_8x8_dual
	DQ	FLAT:$SG4294958643
	DQ	FLAT:kvz_sad_16x16_dual
	DQ	FLAT:$SG4294958642
	DQ	FLAT:kvz_sad_32x32_dual
	DQ	FLAT:$SG4294958641
	DQ	FLAT:kvz_sad_64x64_dual
	DQ	FLAT:$SG4294958640
	DQ	FLAT:kvz_satd_4x4_dual
	DQ	FLAT:$SG4294958639
	DQ	FLAT:kvz_satd_8x8_dual
	DQ	FLAT:$SG4294958638
	DQ	FLAT:kvz_satd_16x16_dual
	DQ	FLAT:$SG4294958637
	DQ	FLAT:kvz_satd_32x32_dual
	DQ	FLAT:$SG4294958636
	DQ	FLAT:kvz_satd_64x64_dual
	DQ	FLAT:$SG4294958635
	DQ	FLAT:kvz_satd_any_size_quad
	DQ	FLAT:$SG4294958634
	DQ	FLAT:kvz_pixels_calc_ssd
	DQ	FLAT:$SG4294958633
	DQ	FLAT:kvz_bipred_average
	DQ	FLAT:$SG4294958632
	DQ	FLAT:kvz_get_optimized_sad
	DQ	FLAT:$SG4294958631
	DQ	FLAT:kvz_ver_sad
	DQ	FLAT:$SG4294958630
	DQ	FLAT:kvz_hor_sad
	DQ	FLAT:$SG4294958629
	DQ	FLAT:kvz_pixel_var
	DQ	FLAT:$SG4294958628
	DQ	FLAT:kvz_fast_forward_dst_4x4
	DQ	FLAT:$SG4294958627
	DQ	FLAT:kvz_dct_4x4
	DQ	FLAT:$SG4294958626
	DQ	FLAT:kvz_dct_8x8
	DQ	FLAT:$SG4294958625
	DQ	FLAT:kvz_dct_16x16
	DQ	FLAT:$SG4294958624
	DQ	FLAT:kvz_dct_32x32
	DQ	FLAT:$SG4294958623
	DQ	FLAT:kvz_fast_inverse_dst_4x4
	DQ	FLAT:$SG4294958622
	DQ	FLAT:kvz_idct_4x4
	DQ	FLAT:$SG4294958621
	DQ	FLAT:kvz_idct_8x8
	DQ	FLAT:$SG4294958620
	DQ	FLAT:kvz_idct_16x16
	DQ	FLAT:$SG4294958619
	DQ	FLAT:kvz_idct_32x32
	DQ	FLAT:$SG4294958618
	DQ	FLAT:kvz_filter_hpel_blocks_hor_ver_luma
	DQ	FLAT:$SG4294958617
	DQ	FLAT:kvz_filter_hpel_blocks_diag_luma
	DQ	FLAT:$SG4294958616
	DQ	FLAT:kvz_filter_qpel_blocks_hor_ver_luma
	DQ	FLAT:$SG4294958615
	DQ	FLAT:kvz_filter_qpel_blocks_diag_luma
	DQ	FLAT:$SG4294958614
	DQ	FLAT:kvz_sample_quarterpel_luma
	DQ	FLAT:$SG4294958613
	DQ	FLAT:kvz_sample_octpel_chroma
	DQ	FLAT:$SG4294958612
	DQ	FLAT:kvz_sample_quarterpel_luma_hi
	DQ	FLAT:$SG4294958611
	DQ	FLAT:kvz_sample_octpel_chroma_hi
	DQ	FLAT:$SG4294958610
	DQ	FLAT:kvz_get_extended_block
	DQ	FLAT:$SG4294958609
	DQ	FLAT:kvz_quant
	DQ	FLAT:$SG4294958608
	DQ	FLAT:kvz_quantize_residual
	DQ	FLAT:$SG4294958607
	DQ	FLAT:kvz_dequant
	DQ	FLAT:$SG4294958606
	DQ	FLAT:kvz_coeff_abs_sum
	DQ	FLAT:$SG4294958605
	DQ	FLAT:kvz_fast_coeff_cost
	DQ	FLAT:$SG4294958604
	DQ	FLAT:kvz_angular_pred
	DQ	FLAT:$SG4294958603
	DQ	FLAT:kvz_intra_pred_planar
	DQ	FLAT:$SG4294958602
	DQ	FLAT:kvz_intra_pred_filtered_dc
	DQ	FLAT:$SG4294958601
	DQ	FLAT:kvz_sao_edge_ddistortion
	DQ	FLAT:$SG4294958600
	DQ	FLAT:kvz_calc_sao_edge_dir
	DQ	FLAT:$SG4294958599
	DQ	FLAT:kvz_sao_reconstruct_color
	DQ	FLAT:$SG4294958598
	DQ	FLAT:kvz_sao_band_ddistortion
	DQ	FLAT:$SG4294958597
	DQ	FLAT:kvz_encode_coeff_nxn
	DQ	0000000000000000H
	DQ	0000000000000000H
g_sig_last_scan_32x32 DD 00H
	DD	08H
	DD	01H
	DD	010H
	DD	09H
	DD	02H
	DD	018H
	DD	011H
	DD	0aH
	DD	03H
	DD	020H
	DD	019H
	DD	012H
	DD	0bH
	DD	04H
	DD	028H
	DD	021H
	DD	01aH
	DD	013H
	DD	0cH
	DD	05H
	DD	030H
	DD	029H
	DD	022H
	DD	01bH
	DD	014H
	DD	0dH
	DD	06H
	DD	038H
	DD	031H
	DD	02aH
	DD	023H
	DD	01cH
	DD	015H
	DD	0eH
	DD	07H
	DD	039H
	DD	032H
	DD	02bH
	DD	024H
	DD	01dH
	DD	016H
	DD	0fH
	DD	03aH
	DD	033H
	DD	02cH
	DD	025H
	DD	01eH
	DD	017H
	DD	03bH
	DD	034H
	DD	02dH
	DD	026H
	DD	01fH
	DD	03cH
	DD	035H
	DD	02eH
	DD	027H
	DD	03dH
	DD	036H
	DD	02fH
	DD	03eH
	DD	037H
	DD	03fH
g_min_in_group DB 00H
	DB	01H
	DB	02H
	DB	03H
	DB	04H
	DB	06H
	DB	08H
	DB	0cH
	DB	010H
	DB	018H
	ORG $+6
default_fast_coeff_cost_wts DD 03e282e88r	; 0.16424
	DD	040852b41r			; 4.16153
	DD	0406093ffr			; 3.50903
	DD	040ddb290r			; 6.92805
	DD	03e282e88r			; 0.16424
	DD	040852b41r			; 4.16153
	DD	0406093ffr			; 3.50903
	DD	040ddb290r			; 6.92805
	DD	03e282e88r			; 0.16424
	DD	040852b41r			; 4.16153
	DD	0406093ffr			; 3.50903
	DD	040ddb290r			; 6.92805
	DD	03e282e88r			; 0.16424
	DD	040852b41r			; 4.16153
	DD	0406093ffr			; 3.50903
	DD	040ddb290r			; 6.92805
	DD	03e282e88r			; 0.16424
	DD	040852b41r			; 4.16153
	DD	0406093ffr			; 3.50903
	DD	040ddb290r			; 6.92805
	DD	03e282e88r			; 0.16424
	DD	040852b41r			; 4.16153
	DD	0406093ffr			; 3.50903
	DD	040ddb290r			; 6.92805
	DD	03e282e88r			; 0.16424
	DD	040852b41r			; 4.16153
	DD	0406093ffr			; 3.50903
	DD	040ddb290r			; 6.92805
	DD	03e282e88r			; 0.16424
	DD	040852b41r			; 4.16153
	DD	0406093ffr			; 3.50903
	DD	040ddb290r			; 6.92805
	DD	03e282e88r			; 0.16424
	DD	040852b41r			; 4.16153
	DD	0406093ffr			; 3.50903
	DD	040ddb290r			; 6.92805
	DD	03e282e88r			; 0.16424
	DD	040852b41r			; 4.16153
	DD	0406093ffr			; 3.50903
	DD	040ddb290r			; 6.92805
	DD	03e282e88r			; 0.16424
	DD	040852b41r			; 4.16153
	DD	0406093ffr			; 3.50903
	DD	040ddb290r			; 6.92805
	DD	03e26c094r			; 0.162844
	DD	04081ca43r			; 4.05594
	DD	04064203ar			; 3.56447
	DD	040db915ar			; 6.86149
	DD	03e03d189r			; 0.128729
	DD	04089fbafr			; 4.31197
	DD	0407c5771r			; 3.94284
	DD	040ddeed2r			; 6.9354
	DD	03de33ce6r			; 0.110956
	DD	0408ddcb1r			; 4.43319
	DD	0407c8738r			; 3.94575
	DD	040dc1618r			; 6.8777
	DD	03dc29cfer			; 0.095026
	DD	0408f7938r			; 4.48355
	DD	0408636aar			; 4.19417
	DD	040d90260r			; 6.78154
	DD	03d99b1b8r			; 0.075046
	DD	04094474cr			; 4.6337
	DD	04082b1b6r			; 4.08419
	DD	040d65aeer			; 6.6986
	DD	03d56bca5r			; 0.052426
	DD	0409ef37er			; 4.96722
	DD	04080dee8r			; 4.02721
	DD	040d19306r			; 6.5492
	DD	03d24bcaer			; 0.040219
	DD	040a489car			; 5.14182
	DD	0407ee3bdr			; 3.98265
	DD	040cec513r			; 6.46156
	DD	03d0fba88r			; 0.03509
	DD	040a628e7r			; 5.19249
	DD	040752e49r			; 3.83095
	DD	040cd642ar			; 6.41848
	DD	03cf47d80r			; 0.029845
	DD	040a6c5d0r			; 5.21165
	DD	040743073r			; 3.81546
	DD	040cb0dd8r			; 6.34544
	DD	03cc0b136r			; 0.023522
	DD	040aa4f92r			; 5.32221
	DD	040744224r			; 3.81654
	DD	040cb8aaar			; 6.36068
	DD	03cae87d3r			; 0.021305
	DD	040a73ac3r			; 5.22592
	DD	04075eeccr			; 3.8427
	DD	040ca6cd9r			; 6.32579
	DD	03c821294r			; 0.015878
	DD	040a5dbe0r			; 5.18309
	DD	0407d2f27r			; 3.956
	DD	040ca8cbdr			; 6.32968
	DD	03c2ae297r			; 0.01043
	DD	040a32ce4r			; 5.09923
	DD	04085a85fr			; 4.1768
	DD	040c9c5d6r			; 6.3054
	DD	03c0a2a91r			; 0.008433
	DD	040a0f7der			; 5.03026
	DD	040879a50r			; 4.23759
	DD	040c8a4eer			; 6.27013
	DD	03bd4fdf4r			; 0.0065
	DD	0409f0412r			; 4.96925
	DD	0408adc57r			; 4.3394
	DD	040c6f870r			; 6.21783
	DD	03ba18373r			; 0.004929
	DD	0409d8d50r			; 4.9235
	DD	0408e283fr			; 4.44241
	DD	040c5df6cr			; 6.18352
	DD	03b73775cr			; 0.003715
	DD	0409d4c75r			; 4.91558
	DD	0408dbb1br			; 4.42909
	DD	040c4029fr			; 6.12532
	DD	03b4a70d2r			; 0.003089
	DD	0409c48f7r			; 4.88391
	DD	040920260r			; 4.56279
	DD	040c5019dr			; 6.15645
	DD	03b219c9dr			; 0.002466
	DD	0409c31abr			; 4.88106
	DD	040942800r			; 4.62988
	DD	040c49088r			; 6.14264
	DD	03b0e25c8r			; 0.002169
	DD	0409c3d62r			; 4.88249
	DD	04094ae99r			; 4.64631
	DD	040c415d1r			; 6.12766
	DD	03b26dacbr			; 0.002546
	DD	040996304r			; 4.79334
	DD	0409acc16r			; 4.83741
	DD	040c6606br			; 6.19927
	DD	03aac3a86r			; 0.001314
	DD	04099e220r			; 4.80885
	DD	0409a81bdr			; 4.82834
	DD	040c7ca3cr			; 6.24344
	DD	03a9741d1r			; 0.001154
	DD	0409b9a72r			; 4.8626
	DD	0409b19aar			; 4.84688
	DD	040c693a5r			; 6.20552
	DD	03a80f990r			; 0.000984
	DD	0409bb993r			; 4.8664
	DD	0409b7fa2r			; 4.85933
	DD	040c7b565r			; 6.24089
	DD	03a551f82r			; 0.000813
	DD	0409b698ar			; 4.85663
	DD	0409d95bar			; 4.92453
	DD	040c963a4r			; 6.29341
	DD	03a91c087r			; 0.001112
	DD	04099419er			; 4.78926
	DD	040a050f0r			; 5.00988
	DD	040cddf8fr			; 6.43354
	DD	03a10b418r			; 0.000552
	DD	04098580ar			; 4.76075
	DD	040a2e4f1r			; 5.09045
	DD	040d32e1fr			; 6.59938
	DD	039ccff22r			; 0.000391
	DD	0409ec42cr			; 4.96145
	DD	040a38d95r			; 5.11103
	DD	040d8342fr			; 6.75637
	DD	039ae1049r			; 0.000332
	DD	0409f63f8r			; 4.98095
	DD	040a46b89r			; 5.13813
	DD	040dbc1e8r			; 6.86742
	DD	03952c387r			; 0.000201
	DD	040a5d297r			; 5.18196
	DD	04097af64r			; 4.74016
	DD	040cec07dr			; 6.461
	DD	0397ba882r			; 0.00024
	DD	040a5eeb7r			; 5.18539
	DD	0409bfeb0r			; 4.87484
	DD	040da3603r			; 6.81909
	DD	03908509cr			; 0.00013
	DD	040a8a6b5r			; 5.27035
	DD	040977eacr			; 4.73421
	DD	040da708fr			; 6.82624
	DD	038da1a93r			; 0.000104
	DD	040abe6e8r			; 5.37194
	DD	040930af4r			; 4.59509
	DD	040d5189ar			; 6.65925
	DD	038ae1049r			; 8.3e-05
	DD	040ab9581r			; 5.362
	DD	04093c250r			; 4.61747
	DD	040dacf03r			; 6.83777
	DD	03890b418r			; 6.9e-05
	DD	040a926e3r			; 5.286
	DD	0409828e7r			; 4.75499
	DD	040e516e1r			; 7.15904
	DD	0384d8559r			; 4.9e-05
	DD	040afa18cr			; 5.48847
	DD	0408cace9r			; 4.39611
	DD	040d74682r			; 6.72736
	DD	038734507r			; 5.8e-05
	DD	0409eafa3r			; 4.95894
	DD	040929321r			; 4.58046
	DD	040cf49a5r			; 6.47774
	DD	037eae18br			; 2.8e-05
	DD	040b0ae1br			; 5.52125
	DD	0408e1885r			; 4.44049
	DD	040e68f80r			; 7.20502
	DD	000000000r			; 0
	DD	000000000r			; 0
	DD	000000000r			; 0
	DD	000000000r			; 0
	DD	0379f6230r			; 1.9e-05
	DD	040b9f5d8r			; 5.81126
	DD	0408cc582r			; 4.39911
	DD	040eac30dr			; 7.33631
g_sao_edge_offsets DD 0ffffffffH
	DD	00H
	DD	01H
	DD	00H
	DD	00H
	DD	0ffffffffH
	DD	00H
	DD	01H
	DD	0ffffffffH
	DD	0ffffffffH
	DD	01H
	DD	01H
	DD	01H
	DD	0ffffffffH
	DD	0ffffffffH
	DD	01H
g_sig_last_scan_cg DQ FLAT:g_sig_last_scan_8x8
	DQ	FLAT:g_sig_last_scan_8x8+16
	DQ	FLAT:g_sig_last_scan_8x8+32
	DQ	FLAT:g_sig_last_scan_8x8
	DQ	FLAT:g_sig_last_scan_8x8+16
	DQ	FLAT:g_sig_last_scan_8x8+32
	DQ	FLAT:g_sig_last_scan_16x16
	DQ	0000000000000000H
	DQ	0000000000000000H
	DQ	FLAT:g_sig_last_scan_32x32
	DQ	0000000000000000H
	DQ	0000000000000000H
g_sig_last_scan_8x8 DD 00H
	DD	02H
	DD	01H
	DD	03H
	DD	00H
	DD	01H
	DD	02H
	DD	03H
	DD	00H
	DD	02H
	DD	01H
	DD	03H
	ORG $+3
$SG4294958609 DB 'quant', 00H
	ORG $+2
$SG4294958659 DB 'array_checksum', 00H
	ORG $+1
$SG4294958658 DB 'array_md5', 00H
	ORG $+1
$SG4294958657 DB 'reg_sad', 00H
$SG4294958656 DB 'sad_4x4', 00H
$SG4294958655 DB 'sad_8x8', 00H
$SG4294958654 DB 'sad_16x16', 00H
	ORG $+2
$SG4294958653 DB 'sad_32x32', 00H
	ORG $+1
$SG4294958652 DB 'sad_64x64', 00H
	ORG $+2
$SG4294958651 DB 'satd_4x4', 00H
$SG4294958650 DB 'satd_8x8', 00H
$SG4294958649 DB 'satd_16x16', 00H
	ORG $+1
$SG4294958648 DB 'satd_32x32', 00H
$SG4294958647 DB 'satd_64x64', 00H
	ORG $+2
$SG4294958646 DB 'satd_any_size', 00H
	ORG $+2
$SG4294958645 DB 'sad_4x4_dual', 00H
	ORG $+3
$SG4294958644 DB 'sad_8x8_dual', 00H
	ORG $+3
$SG4294958643 DB 'sad_16x16_dual', 00H
	ORG $+1
$SG4294958642 DB 'sad_32x32_dual', 00H
	ORG $+1
$SG4294958641 DB 'sad_64x64_dual', 00H
	ORG $+1
$SG4294958640 DB 'satd_4x4_dual', 00H
	ORG $+2
$SG4294958639 DB 'satd_8x8_dual', 00H
	ORG $+2
$SG4294958638 DB 'satd_16x16_dual', 00H
$SG4294958637 DB 'satd_32x32_dual', 00H
$SG4294958636 DB 'satd_64x64_dual', 00H
$SG4294958635 DB 'satd_any_size_quad', 00H
$SG4294958634 DB 'pixels_calc_ssd', 00H
$SG4294958633 DB 'bipred_average', 00H
	ORG $+1
$SG4294958632 DB 'get_optimized_sad', 00H
	ORG $+2
$SG4294958631 DB 'ver_sad', 00H
$SG4294958630 DB 'hor_sad', 00H
$SG4294958629 DB 'pixel_var', 00H
	ORG $+2
$SG4294958628 DB 'fast_forward_dst_4x4', 00H
	ORG $+3
$SG4294958627 DB 'dct_4x4', 00H
$SG4294958626 DB 'dct_8x8', 00H
$SG4294958625 DB 'dct_16x16', 00H
$SG4294958624 DB 'dct_32x32', 00H
	ORG $+2
$SG4294958623 DB 'fast_inverse_dst_4x4', 00H
	ORG $+3
$SG4294958622 DB 'idct_4x4', 00H
	ORG $+2
$SG4294958621 DB 'idct_8x8', 00H
$SG4294958620 DB 'idct_16x16', 00H
	ORG $+2
$SG4294958619 DB 'idct_32x32', 00H
	ORG $+2
$SG4294958618 DB 'filter_hpel_blocks_hor_ver_luma', 00H
$SG4294958617 DB 'filter_hpel_blocks_diag_luma', 00H
	ORG $+3
$SG4294958616 DB 'filter_qpel_blocks_hor_ver_luma', 00H
$SG4294958615 DB 'filter_qpel_blocks_diag_luma', 00H
	ORG $+3
$SG4294958614 DB 'sample_quarterpel_luma', 00H
	ORG $+1
$SG4294958613 DB 'sample_octpel_chroma', 00H
	ORG $+3
$SG4294958612 DB 'sample_quarterpel_luma_hi', 00H
	ORG $+2
$SG4294958611 DB 'sample_octpel_chroma_hi', 00H
$SG4294958610 DB 'get_extended_block', 00H
	ORG $+2
$SG4294958608 DB 'quantize_residual', 00H
	ORG $+2
$SG4294958607 DB 'dequant', 00H
$SG4294958606 DB 'coeff_abs_sum', 00H
	ORG $+2
$SG4294958605 DB 'fast_coeff_cost', 00H
$SG4294958604 DB 'angular_pred', 00H
	ORG $+3
$SG4294958603 DB 'intra_pred_planar', 00H
$SG4294958602 DB 'intra_pred_filtered_dc', 00H
	ORG $+1
$SG4294958601 DB 'sao_edge_ddistortion', 00H
	ORG $+3
$SG4294958600 DB 'calc_sao_edge_dir', 00H
	ORG $+2
$SG4294958599 DB 'sao_reconstruct_color', 00H
	ORG $+2
$SG4294958598 DB 'sao_band_ddistortion', 00H
	ORG $+3
$SG4294958597 DB 'encode_coeff_nxn', 00H
PUBLIC	kvz_pixels_get_sad_dual_func
PUBLIC	kvz_pixels_get_satd_dual_func
PUBLIC	kvz_pixels_get_sad_func
PUBLIC	kvz_pixels_get_satd_func
PUBLIC	kvz_strategy_register_picture
pdata	SEGMENT
$pdata$kvz_strategy_register_picture DD imagerel $LN19
	DD	imagerel $LN19+10
	DD	imagerel $unwind$kvz_strategy_register_picture
$pdata$1$kvz_strategy_register_picture DD imagerel $LN19+10
	DD	imagerel $LN19+850
	DD	imagerel $chain$1$kvz_strategy_register_picture
$pdata$2$kvz_strategy_register_picture DD imagerel $LN19+850
	DD	imagerel $LN19+893
	DD	imagerel $chain$2$kvz_strategy_register_picture
xdata	SEGMENT
$unwind$kvz_strategy_register_picture DD 040a01H
	DD	0a540aH
	DD	06006520aH
$chain$1$kvz_strategy_register_picture DD 048221H
	DD	097482H
	DD	083405H
	DD	imagerel $LN19
	DD	imagerel $LN19+10
	DD	imagerel $unwind$kvz_strategy_register_picture
$chain$2$kvz_strategy_register_picture DD 021H
	DD	imagerel $LN19
	DD	imagerel $LN19+10
	DD	imagerel $unwind$kvz_strategy_register_picture
; Function compile flags: /Ogtpy
; File F:\open_codec_learn_2021\kvazaar-master\src\strategies\strategies-picture.c
; File F:\open_codec_learn_2021\kvazaar-master\src\strategies\sse2\picture-sse2.c
; File F:\open_codec_learn_2021\kvazaar-master\src\strategies\strategies-picture.c
; File F:\open_codec_learn_2021\kvazaar-master\src\strategies\sse41\picture-sse41.c
; File F:\open_codec_learn_2021\kvazaar-master\src\strategies\strategies-picture.c
; File F:\open_codec_learn_2021\kvazaar-master\src\strategies\x86_asm\picture-x86-asm.c
; File F:\open_codec_learn_2021\kvazaar-master\src\strategies\strategies-picture.c
_TEXT	SEGMENT
opaque$ = 64
bitdepth$dead$ = 72
kvz_strategy_register_picture PROC

; 85   : int kvz_strategy_register_picture(void* opaque, uint8_t bitdepth) {

$LN19:
	mov	QWORD PTR [rsp+24], rbp
	push	rsi
	sub	rsp, 48					; 00000030H
	mov	QWORD PTR [rsp+64], rbx
	mov	rbp, rcx

; 86   :   bool success = true;
; 87   : 
; 88   :   success &= kvz_strategy_register_picture_generic(opaque, bitdepth);

	call	kvz_strategy_register_picture_generic
	mov	esi, eax
	and	sil, 1

; 89   : 
; 90   :   if (kvz_g_hardware_flags.intel_flags.sse2) {

	cmp	DWORD PTR kvz_g_hardware_flags+8, 0
	je	SHORT $LN2@kvz_strate
; File F:\open_codec_learn_2021\kvazaar-master\src\strategies\sse2\picture-sse2.c

; 89   :     success &= kvz_strategyselector_register(opaque, "reg_sad", "sse2", 10, &reg_sad_sse2);

	lea	rax, OFFSET FLAT:reg_sad_sse2
	mov	r9d, 10
	lea	r8, OFFSET FLAT:$SG4294950533
	mov	QWORD PTR [rsp+32], rax
	lea	rdx, OFFSET FLAT:$SG4294950532
	mov	rcx, rbp
	call	kvz_strategyselector_register
	mov	ebx, eax

; 90   :     success &= kvz_strategyselector_register(opaque, "sad_4x4", "sse2", 10, &sad_8bit_4x4_sse2);

	lea	r8, OFFSET FLAT:$SG4294950531
	lea	rax, OFFSET FLAT:sad_8bit_4x4_sse2
	mov	r9d, 10
	lea	rdx, OFFSET FLAT:$SG4294950530
	mov	QWORD PTR [rsp+32], rax
	mov	rcx, rbp
	and	ebx, 1
	call	kvz_strategyselector_register
	and	al, bl
; File F:\open_codec_learn_2021\kvazaar-master\src\strategies\strategies-picture.c

; 91   :     success &= kvz_strategy_register_picture_sse2(opaque, bitdepth);

	and	sil, al
$LN2@kvz_strate:

; 92   :   }
; 93   :   if (kvz_g_hardware_flags.intel_flags.sse41) {

	cmp	DWORD PTR kvz_g_hardware_flags+20, 0
	mov	QWORD PTR [rsp+72], rdi
	je	$LN3@kvz_strate
; File F:\open_codec_learn_2021\kvazaar-master\src\strategies\sse41\picture-sse41.c

; 240  :     success &= kvz_strategyselector_register(opaque, "reg_sad", "sse41", 20, &kvz_reg_sad_sse41);

	lea	rax, OFFSET FLAT:kvz_reg_sad_sse41
	mov	r9d, 20
	lea	r8, OFFSET FLAT:$SG4294951930
	mov	QWORD PTR [rsp+32], rax
	lea	rdx, OFFSET FLAT:$SG4294951929
	mov	rcx, rbp
	call	kvz_strategyselector_register
	mov	ebx, eax

; 241  :     success &= kvz_strategyselector_register(opaque, "get_optimized_sad", "sse41", 20, &get_optimized_sad_sse41);

	lea	r8, OFFSET FLAT:$SG4294951928
	lea	rax, OFFSET FLAT:get_optimized_sad_sse41
	mov	r9d, 20
	lea	rdx, OFFSET FLAT:$SG4294951927
	mov	QWORD PTR [rsp+32], rax
	mov	rcx, rbp
	and	ebx, 1
	call	kvz_strategyselector_register
	mov	edi, eax

; 242  :     success &= kvz_strategyselector_register(opaque, "ver_sad", "sse41", 20, &ver_sad_sse41);

	lea	r8, OFFSET FLAT:$SG4294951926
	lea	rax, OFFSET FLAT:ver_sad_sse41
	mov	r9d, 20
	lea	rdx, OFFSET FLAT:$SG4294951925
	mov	QWORD PTR [rsp+32], rax
	mov	rcx, rbp
	and	edi, ebx
	call	kvz_strategyselector_register
	mov	ebx, eax

; 243  :     success &= kvz_strategyselector_register(opaque, "hor_sad", "sse41", 20, &hor_sad_sse41);

	lea	r8, OFFSET FLAT:$SG4294951924
	lea	rax, OFFSET FLAT:hor_sad_sse41
	mov	r9d, 20
	lea	rdx, OFFSET FLAT:$SG4294951923
	mov	QWORD PTR [rsp+32], rax
	mov	rcx, rbp
	and	ebx, edi
	call	kvz_strategyselector_register
	and	al, bl
; File F:\open_codec_learn_2021\kvazaar-master\src\strategies\strategies-picture.c

; 94   :     success &= kvz_strategy_register_picture_sse41(opaque, bitdepth);

	and	sil, al
$LN3@kvz_strate:

; 95   :   }
; 96   :   if (kvz_g_hardware_flags.intel_flags.avx) {

	cmp	DWORD PTR kvz_g_hardware_flags+28, 0
	je	$LN4@kvz_strate
; File F:\open_codec_learn_2021\kvazaar-master\src\strategies\x86_asm\picture-x86-asm.c

; 115  :     success &= kvz_strategyselector_register(opaque, "reg_sad", "x86_asm_avx", 30, &reg_sad_x86_asm);

	lea	rax, OFFSET FLAT:reg_sad_x86_asm
	mov	r9d, 30
	lea	r8, OFFSET FLAT:$SG4294951623
	mov	QWORD PTR [rsp+32], rax
	lea	rdx, OFFSET FLAT:$SG4294951622
	mov	rcx, rbp
	call	kvz_strategyselector_register
	mov	ebx, eax

; 116  : 
; 117  :     success &= kvz_strategyselector_register(opaque, "sad_4x4", "x86_asm_avx", 30, &kvz_sad_4x4_avx);

	lea	r8, OFFSET FLAT:$SG4294951621
	lea	rax, OFFSET FLAT:kvz_sad_4x4_avx
	mov	r9d, 30
	lea	rdx, OFFSET FLAT:$SG4294951620
	mov	QWORD PTR [rsp+32], rax
	mov	rcx, rbp
	and	ebx, 1
	call	kvz_strategyselector_register
	mov	edi, eax

; 118  :     success &= kvz_strategyselector_register(opaque, "sad_8x8", "x86_asm_avx", 30, &kvz_sad_8x8_avx);

	lea	r8, OFFSET FLAT:$SG4294951619
	lea	rax, OFFSET FLAT:kvz_sad_8x8_avx
	mov	r9d, 30
	lea	rdx, OFFSET FLAT:$SG4294951618
	mov	QWORD PTR [rsp+32], rax
	mov	rcx, rbp
	and	edi, ebx
	call	kvz_strategyselector_register
	mov	ebx, eax

; 119  :     success &= kvz_strategyselector_register(opaque, "sad_16x16", "x86_asm_avx", 30, &kvz_sad_16x16_avx);

	lea	r8, OFFSET FLAT:$SG4294951617
	lea	rax, OFFSET FLAT:kvz_sad_16x16_avx
	mov	r9d, 30
	lea	rdx, OFFSET FLAT:$SG4294951616
	mov	QWORD PTR [rsp+32], rax
	mov	rcx, rbp
	and	ebx, edi
	call	kvz_strategyselector_register
	mov	edi, eax

; 120  :     success &= kvz_strategyselector_register(opaque, "sad_32x32", "x86_asm_avx", 30, &kvz_sad_32x32_avx);

	lea	r8, OFFSET FLAT:$SG4294951615
	lea	rax, OFFSET FLAT:kvz_sad_32x32_avx
	mov	r9d, 30
	lea	rdx, OFFSET FLAT:$SG4294951614
	mov	QWORD PTR [rsp+32], rax
	mov	rcx, rbp
	and	edi, ebx
	call	kvz_strategyselector_register
	mov	ebx, eax

; 121  :     success &= kvz_strategyselector_register(opaque, "sad_64x64", "x86_asm_avx", 30, &kvz_sad_64x64_avx);

	lea	r8, OFFSET FLAT:$SG4294951613
	lea	rax, OFFSET FLAT:kvz_sad_64x64_avx
	mov	r9d, 30
	lea	rdx, OFFSET FLAT:$SG4294951612
	mov	QWORD PTR [rsp+32], rax
	mov	rcx, rbp
	and	ebx, edi
	call	kvz_strategyselector_register
	mov	edi, eax

; 122  : 
; 123  :     success &= kvz_strategyselector_register(opaque, "satd_4x4", "x86_asm_avx", 30, &kvz_satd_4x4_avx);

	lea	r8, OFFSET FLAT:$SG4294951611
	lea	rax, OFFSET FLAT:kvz_satd_4x4_avx
	mov	r9d, 30
	lea	rdx, OFFSET FLAT:$SG4294951610
	mov	QWORD PTR [rsp+32], rax
	mov	rcx, rbp
	and	edi, ebx
	call	kvz_strategyselector_register
	mov	ebx, eax

; 124  :     success &= kvz_strategyselector_register(opaque, "satd_8x8", "x86_asm_avx", 30, &kvz_satd_8x8_avx);

	lea	r8, OFFSET FLAT:$SG4294951609
	lea	rax, OFFSET FLAT:kvz_satd_8x8_avx
	mov	r9d, 30
	lea	rdx, OFFSET FLAT:$SG4294951608
	mov	QWORD PTR [rsp+32], rax
	mov	rcx, rbp
	and	ebx, edi
	call	kvz_strategyselector_register
	mov	edi, eax

; 125  :     success &= kvz_strategyselector_register(opaque, "satd_16x16", "x86_asm_avx", 30, &kvz_satd_16x16_avx);

	lea	r8, OFFSET FLAT:$SG4294951607
	lea	rax, OFFSET FLAT:kvz_satd_16x16_avx
	mov	r9d, 30
	lea	rdx, OFFSET FLAT:$SG4294951606
	mov	QWORD PTR [rsp+32], rax
	mov	rcx, rbp
	and	edi, ebx
	call	kvz_strategyselector_register
	mov	ebx, eax
	and	ebx, edi

; 126  :     success &= kvz_strategyselector_register(opaque, "satd_32x32", "x86_asm_avx", 30, &kvz_satd_32x32_avx);

	lea	rax, OFFSET FLAT:kvz_satd_32x32_avx
	mov	r9d, 30
	lea	r8, OFFSET FLAT:$SG4294951605
	mov	QWORD PTR [rsp+32], rax
	lea	rdx, OFFSET FLAT:$SG4294951604
	mov	rcx, rbp
	call	kvz_strategyselector_register
	xor	ecx, ecx

; 127  :     success &= kvz_strategyselector_register(opaque, "satd_64x64", "x86_asm_avx", 30, &kvz_satd_64x64_avx);

	lea	r8, OFFSET FLAT:$SG4294951603
	mov	edi, eax
	lea	rdx, OFFSET FLAT:$SG4294951602
	lea	rax, OFFSET FLAT:kvz_satd_64x64_avx
	test	ebx, ebx
	mov	r9d, 30
	mov	QWORD PTR [rsp+32], rax
	setne	cl
	and	edi, ecx
	mov	rcx, rbp
	call	kvz_strategyselector_register
	and	al, dil
; File F:\open_codec_learn_2021\kvazaar-master\src\strategies\strategies-picture.c

; 97   :     success &= kvz_strategy_register_picture_x86_asm_avx(opaque, bitdepth);

	and	sil, al
$LN4@kvz_strate:

; 98   :   }
; 99   :   if (kvz_g_hardware_flags.intel_flags.avx2) {

	cmp	DWORD PTR kvz_g_hardware_flags+32, 0
	mov	rdi, QWORD PTR [rsp+72]
	mov	rbx, QWORD PTR [rsp+64]
	je	SHORT $LN17@kvz_strate

; 100  :     success &= kvz_strategy_register_picture_avx2(opaque, bitdepth);

	mov	rcx, rbp
	call	kvz_strategy_register_picture_avx2
	test	al, sil
	setne	al

; 101  :   }
; 102  :   if (kvz_g_hardware_flags.powerpc_flags.altivec) {
; 103  :     success &= kvz_strategy_register_picture_altivec(opaque, bitdepth);
; 104  :   }
; 105  : 
; 106  :   return success;

	movzx	eax, al

; 107  : }

	mov	rbp, QWORD PTR [rsp+80]
	add	rsp, 48					; 00000030H
	pop	rsi
	ret	0
$LN17@kvz_strate:
	mov	rbp, QWORD PTR [rsp+80]
	movzx	eax, sil
	add	rsp, 48					; 00000030H
	pop	rsi
	ret	0
kvz_strategy_register_picture ENDP
_TEXT	ENDS
; Function compile flags: /Ogtpy
; File F:\open_codec_learn_2021\kvazaar-master\src\strategies\strategies-picture.c
_TEXT	SEGMENT
n$ = 8
kvz_pixels_get_satd_func PROC

; 119  :   switch (n) {

	cmp	ecx, 4
	je	SHORT $LN4@kvz_pixels
	cmp	ecx, 8
	je	SHORT $LN5@kvz_pixels
	cmp	ecx, 16
	je	SHORT $LN6@kvz_pixels
	cmp	ecx, 32					; 00000020H
	je	SHORT $LN7@kvz_pixels
	mov	rax, QWORD PTR kvz_satd_64x64
	xor	edx, edx
	cmp	ecx, 64					; 00000040H
	cmovne	rax, rdx

; 128  :   case 64:
; 129  :     return kvz_satd_64x64;
; 130  :   default:
; 131  :     return NULL;
; 132  :   }
; 133  : }

	ret	0
$LN7@kvz_pixels:

; 126  :   case 32:
; 127  :     return kvz_satd_32x32;

	mov	rax, QWORD PTR kvz_satd_32x32

; 128  :   case 64:
; 129  :     return kvz_satd_64x64;
; 130  :   default:
; 131  :     return NULL;
; 132  :   }
; 133  : }

	ret	0
$LN6@kvz_pixels:

; 124  :   case 16:
; 125  :     return kvz_satd_16x16;

	mov	rax, QWORD PTR kvz_satd_16x16

; 128  :   case 64:
; 129  :     return kvz_satd_64x64;
; 130  :   default:
; 131  :     return NULL;
; 132  :   }
; 133  : }

	ret	0
$LN5@kvz_pixels:

; 122  :   case 8:
; 123  :     return kvz_satd_8x8;

	mov	rax, QWORD PTR kvz_satd_8x8

; 128  :   case 64:
; 129  :     return kvz_satd_64x64;
; 130  :   default:
; 131  :     return NULL;
; 132  :   }
; 133  : }

	ret	0
$LN4@kvz_pixels:

; 120  :   case 4:
; 121  :     return kvz_satd_4x4;

	mov	rax, QWORD PTR kvz_satd_4x4

; 128  :   case 64:
; 129  :     return kvz_satd_64x64;
; 130  :   default:
; 131  :     return NULL;
; 132  :   }
; 133  : }

	ret	0
kvz_pixels_get_satd_func ENDP
_TEXT	ENDS
; Function compile flags: /Ogtpy
; File F:\open_codec_learn_2021\kvazaar-master\src\strategies\strategies-picture.c
_TEXT	SEGMENT
n$ = 8
kvz_pixels_get_sad_func PROC

; 145  :   switch (n) {

	cmp	ecx, 4
	je	SHORT $LN4@kvz_pixels
	cmp	ecx, 8
	je	SHORT $LN5@kvz_pixels
	cmp	ecx, 16
	je	SHORT $LN6@kvz_pixels
	cmp	ecx, 32					; 00000020H
	je	SHORT $LN7@kvz_pixels
	mov	rax, QWORD PTR kvz_sad_64x64
	xor	edx, edx
	cmp	ecx, 64					; 00000040H
	cmovne	rax, rdx

; 154  :   case 64:
; 155  :     return kvz_sad_64x64;
; 156  :   default:
; 157  :     return NULL;
; 158  :   }
; 159  : }

	ret	0
$LN7@kvz_pixels:

; 152  :   case 32:
; 153  :     return kvz_sad_32x32;

	mov	rax, QWORD PTR kvz_sad_32x32

; 154  :   case 64:
; 155  :     return kvz_sad_64x64;
; 156  :   default:
; 157  :     return NULL;
; 158  :   }
; 159  : }

	ret	0
$LN6@kvz_pixels:

; 150  :   case 16:
; 151  :     return kvz_sad_16x16;

	mov	rax, QWORD PTR kvz_sad_16x16

; 154  :   case 64:
; 155  :     return kvz_sad_64x64;
; 156  :   default:
; 157  :     return NULL;
; 158  :   }
; 159  : }

	ret	0
$LN5@kvz_pixels:

; 148  :   case 8:
; 149  :     return kvz_sad_8x8;

	mov	rax, QWORD PTR kvz_sad_8x8

; 154  :   case 64:
; 155  :     return kvz_sad_64x64;
; 156  :   default:
; 157  :     return NULL;
; 158  :   }
; 159  : }

	ret	0
$LN4@kvz_pixels:

; 146  :   case 4:
; 147  :     return kvz_sad_4x4;

	mov	rax, QWORD PTR kvz_sad_4x4

; 154  :   case 64:
; 155  :     return kvz_sad_64x64;
; 156  :   default:
; 157  :     return NULL;
; 158  :   }
; 159  : }

	ret	0
kvz_pixels_get_sad_func ENDP
_TEXT	ENDS
; Function compile flags: /Ogtpy
; File F:\open_codec_learn_2021\kvazaar-master\src\strategies\strategies-picture.c
_TEXT	SEGMENT
n$ = 8
kvz_pixels_get_satd_dual_func PROC

; 170  :   switch (n) {

	cmp	ecx, 4
	je	SHORT $LN4@kvz_pixels
	cmp	ecx, 8
	je	SHORT $LN5@kvz_pixels
	cmp	ecx, 16
	je	SHORT $LN6@kvz_pixels
	cmp	ecx, 32					; 00000020H
	je	SHORT $LN7@kvz_pixels
	mov	rax, QWORD PTR kvz_satd_64x64_dual
	xor	edx, edx
	cmp	ecx, 64					; 00000040H
	cmovne	rax, rdx

; 179  :   case 64:
; 180  :     return kvz_satd_64x64_dual;
; 181  :   default:
; 182  :     return NULL;
; 183  :   }
; 184  : }

	ret	0
$LN7@kvz_pixels:

; 177  :   case 32:
; 178  :     return kvz_satd_32x32_dual;

	mov	rax, QWORD PTR kvz_satd_32x32_dual

; 179  :   case 64:
; 180  :     return kvz_satd_64x64_dual;
; 181  :   default:
; 182  :     return NULL;
; 183  :   }
; 184  : }

	ret	0
$LN6@kvz_pixels:

; 175  :   case 16:
; 176  :     return kvz_satd_16x16_dual;

	mov	rax, QWORD PTR kvz_satd_16x16_dual

; 179  :   case 64:
; 180  :     return kvz_satd_64x64_dual;
; 181  :   default:
; 182  :     return NULL;
; 183  :   }
; 184  : }

	ret	0
$LN5@kvz_pixels:

; 173  :   case 8:
; 174  :     return kvz_satd_8x8_dual;

	mov	rax, QWORD PTR kvz_satd_8x8_dual

; 179  :   case 64:
; 180  :     return kvz_satd_64x64_dual;
; 181  :   default:
; 182  :     return NULL;
; 183  :   }
; 184  : }

	ret	0
$LN4@kvz_pixels:

; 171  :   case 4:
; 172  :     return kvz_satd_4x4_dual;

	mov	rax, QWORD PTR kvz_satd_4x4_dual

; 179  :   case 64:
; 180  :     return kvz_satd_64x64_dual;
; 181  :   default:
; 182  :     return NULL;
; 183  :   }
; 184  : }

	ret	0
kvz_pixels_get_satd_dual_func ENDP
_TEXT	ENDS
; Function compile flags: /Ogtpy
; File F:\open_codec_learn_2021\kvazaar-master\src\strategies\strategies-picture.c
_TEXT	SEGMENT
n$ = 8
kvz_pixels_get_sad_dual_func PROC

; 196  :   switch (n) {

	cmp	ecx, 4
	je	SHORT $LN4@kvz_pixels
	cmp	ecx, 8
	je	SHORT $LN5@kvz_pixels
	cmp	ecx, 16
	je	SHORT $LN6@kvz_pixels
	cmp	ecx, 32					; 00000020H
	je	SHORT $LN7@kvz_pixels
	mov	rax, QWORD PTR kvz_sad_64x64_dual
	xor	edx, edx
	cmp	ecx, 64					; 00000040H
	cmovne	rax, rdx

; 205  :   case 64:
; 206  :     return kvz_sad_64x64_dual;
; 207  :   default:
; 208  :     return NULL;
; 209  :   }
; 210  : }

	ret	0
$LN7@kvz_pixels:

; 203  :   case 32:
; 204  :     return kvz_sad_32x32_dual;

	mov	rax, QWORD PTR kvz_sad_32x32_dual

; 205  :   case 64:
; 206  :     return kvz_sad_64x64_dual;
; 207  :   default:
; 208  :     return NULL;
; 209  :   }
; 210  : }

	ret	0
$LN6@kvz_pixels:

; 201  :   case 16:
; 202  :     return kvz_sad_16x16_dual;

	mov	rax, QWORD PTR kvz_sad_16x16_dual

; 205  :   case 64:
; 206  :     return kvz_sad_64x64_dual;
; 207  :   default:
; 208  :     return NULL;
; 209  :   }
; 210  : }

	ret	0
$LN5@kvz_pixels:

; 199  :   case 8:
; 200  :     return kvz_sad_8x8_dual;

	mov	rax, QWORD PTR kvz_sad_8x8_dual

; 205  :   case 64:
; 206  :     return kvz_sad_64x64_dual;
; 207  :   default:
; 208  :     return NULL;
; 209  :   }
; 210  : }

	ret	0
$LN4@kvz_pixels:

; 197  :   case 4:
; 198  :     return kvz_sad_4x4_dual;

	mov	rax, QWORD PTR kvz_sad_4x4_dual

; 205  :   case 64:
; 206  :     return kvz_sad_64x64_dual;
; 207  :   default:
; 208  :     return NULL;
; 209  :   }
; 210  : }

	ret	0
kvz_pixels_get_sad_dual_func ENDP
_TEXT	ENDS
END
