; Listing generated by Microsoft (R) Optimizing Compiler Version 19.26.28806.0 

include listing.inc

INCLUDELIB OLDNAMES

PUBLIC	kvz_g_sig_last_scan
PUBLIC	kvz_g_convert_to_bit
kvz_g_sig_last_scan DQ FLAT:g_sig_last_scan_0_0
	DQ	FLAT:g_sig_last_scan_0_1
	DQ	FLAT:g_sig_last_scan_0_2
	DQ	FLAT:g_sig_last_scan_0_3
	DQ	FLAT:g_sig_last_scan_0_4
	DQ	FLAT:g_sig_last_scan_1_0
	DQ	FLAT:g_sig_last_scan_1_1
	DQ	FLAT:g_sig_last_scan_1_2
	DQ	FLAT:g_sig_last_scan_1_3
	DQ	FLAT:g_sig_last_scan_1_4
	DQ	FLAT:g_sig_last_scan_2_0
	DQ	FLAT:g_sig_last_scan_2_1
	DQ	FLAT:g_sig_last_scan_2_2
	DQ	FLAT:g_sig_last_scan_2_3
	DQ	FLAT:g_sig_last_scan_2_4
	ORG $+8
g_sig_last_scan_1_4 DD 00H
	DD	01H
	DD	02H
	DD	03H
	DD	020H
	DD	021H
	DD	022H
	DD	023H
	DD	040H
	DD	041H
	DD	042H
	DD	043H
	DD	060H
	DD	061H
	DD	062H
	DD	063H
	DD	04H
	DD	05H
	DD	06H
	DD	07H
	DD	024H
	DD	025H
	DD	026H
	DD	027H
	DD	044H
	DD	045H
	DD	046H
	DD	047H
	DD	064H
	DD	065H
	DD	066H
	DD	067H
	DD	08H
	DD	09H
	DD	0aH
	DD	0bH
	DD	028H
	DD	029H
	DD	02aH
	DD	02bH
	DD	048H
	DD	049H
	DD	04aH
	DD	04bH
	DD	068H
	DD	069H
	DD	06aH
	DD	06bH
	DD	0cH
	DD	0dH
	DD	0eH
	DD	0fH
	DD	02cH
	DD	02dH
	DD	02eH
	DD	02fH
	DD	04cH
	DD	04dH
	DD	04eH
	DD	04fH
	DD	06cH
	DD	06dH
	DD	06eH
	DD	06fH
	DD	010H
	DD	011H
	DD	012H
	DD	013H
	DD	030H
	DD	031H
	DD	032H
	DD	033H
	DD	050H
	DD	051H
	DD	052H
	DD	053H
	DD	070H
	DD	071H
	DD	072H
	DD	073H
	DD	014H
	DD	015H
	DD	016H
	DD	017H
	DD	034H
	DD	035H
	DD	036H
	DD	037H
	DD	054H
	DD	055H
	DD	056H
	DD	057H
	DD	074H
	DD	075H
	DD	076H
	DD	077H
	DD	018H
	DD	019H
	DD	01aH
	DD	01bH
	DD	038H
	DD	039H
	DD	03aH
	DD	03bH
	DD	058H
	DD	059H
	DD	05aH
	DD	05bH
	DD	078H
	DD	079H
	DD	07aH
	DD	07bH
	DD	01cH
	DD	01dH
	DD	01eH
	DD	01fH
	DD	03cH
	DD	03dH
	DD	03eH
	DD	03fH
	DD	05cH
	DD	05dH
	DD	05eH
	DD	05fH
	DD	07cH
	DD	07dH
	DD	07eH
	DD	07fH
	DD	080H
	DD	081H
	DD	082H
	DD	083H
	DD	0a0H
	DD	0a1H
	DD	0a2H
	DD	0a3H
	DD	0c0H
	DD	0c1H
	DD	0c2H
	DD	0c3H
	DD	0e0H
	DD	0e1H
	DD	0e2H
	DD	0e3H
	DD	084H
	DD	085H
	DD	086H
	DD	087H
	DD	0a4H
	DD	0a5H
	DD	0a6H
	DD	0a7H
	DD	0c4H
	DD	0c5H
	DD	0c6H
	DD	0c7H
	DD	0e4H
	DD	0e5H
	DD	0e6H
	DD	0e7H
	DD	088H
	DD	089H
	DD	08aH
	DD	08bH
	DD	0a8H
	DD	0a9H
	DD	0aaH
	DD	0abH
	DD	0c8H
	DD	0c9H
	DD	0caH
	DD	0cbH
	DD	0e8H
	DD	0e9H
	DD	0eaH
	DD	0ebH
	DD	08cH
	DD	08dH
	DD	08eH
	DD	08fH
	DD	0acH
	DD	0adH
	DD	0aeH
	DD	0afH
	DD	0ccH
	DD	0cdH
	DD	0ceH
	DD	0cfH
	DD	0ecH
	DD	0edH
	DD	0eeH
	DD	0efH
	DD	090H
	DD	091H
	DD	092H
	DD	093H
	DD	0b0H
	DD	0b1H
	DD	0b2H
	DD	0b3H
	DD	0d0H
	DD	0d1H
	DD	0d2H
	DD	0d3H
	DD	0f0H
	DD	0f1H
	DD	0f2H
	DD	0f3H
	DD	094H
	DD	095H
	DD	096H
	DD	097H
	DD	0b4H
	DD	0b5H
	DD	0b6H
	DD	0b7H
	DD	0d4H
	DD	0d5H
	DD	0d6H
	DD	0d7H
	DD	0f4H
	DD	0f5H
	DD	0f6H
	DD	0f7H
	DD	098H
	DD	099H
	DD	09aH
	DD	09bH
	DD	0b8H
	DD	0b9H
	DD	0baH
	DD	0bbH
	DD	0d8H
	DD	0d9H
	DD	0daH
	DD	0dbH
	DD	0f8H
	DD	0f9H
	DD	0faH
	DD	0fbH
	DD	09cH
	DD	09dH
	DD	09eH
	DD	09fH
	DD	0bcH
	DD	0bdH
	DD	0beH
	DD	0bfH
	DD	0dcH
	DD	0ddH
	DD	0deH
	DD	0dfH
	DD	0fcH
	DD	0fdH
	DD	0feH
	DD	0ffH
	DD	0100H
	DD	0101H
	DD	0102H
	DD	0103H
	DD	0120H
	DD	0121H
	DD	0122H
	DD	0123H
	DD	0140H
	DD	0141H
	DD	0142H
	DD	0143H
	DD	0160H
	DD	0161H
	DD	0162H
	DD	0163H
	DD	0104H
	DD	0105H
	DD	0106H
	DD	0107H
	DD	0124H
	DD	0125H
	DD	0126H
	DD	0127H
	DD	0144H
	DD	0145H
	DD	0146H
	DD	0147H
	DD	0164H
	DD	0165H
	DD	0166H
	DD	0167H
	DD	0108H
	DD	0109H
	DD	010aH
	DD	010bH
	DD	0128H
	DD	0129H
	DD	012aH
	DD	012bH
	DD	0148H
	DD	0149H
	DD	014aH
	DD	014bH
	DD	0168H
	DD	0169H
	DD	016aH
	DD	016bH
	DD	010cH
	DD	010dH
	DD	010eH
	DD	010fH
	DD	012cH
	DD	012dH
	DD	012eH
	DD	012fH
	DD	014cH
	DD	014dH
	DD	014eH
	DD	014fH
	DD	016cH
	DD	016dH
	DD	016eH
	DD	016fH
	DD	0110H
	DD	0111H
	DD	0112H
	DD	0113H
	DD	0130H
	DD	0131H
	DD	0132H
	DD	0133H
	DD	0150H
	DD	0151H
	DD	0152H
	DD	0153H
	DD	0170H
	DD	0171H
	DD	0172H
	DD	0173H
	DD	0114H
	DD	0115H
	DD	0116H
	DD	0117H
	DD	0134H
	DD	0135H
	DD	0136H
	DD	0137H
	DD	0154H
	DD	0155H
	DD	0156H
	DD	0157H
	DD	0174H
	DD	0175H
	DD	0176H
	DD	0177H
	DD	0118H
	DD	0119H
	DD	011aH
	DD	011bH
	DD	0138H
	DD	0139H
	DD	013aH
	DD	013bH
	DD	0158H
	DD	0159H
	DD	015aH
	DD	015bH
	DD	0178H
	DD	0179H
	DD	017aH
	DD	017bH
	DD	011cH
	DD	011dH
	DD	011eH
	DD	011fH
	DD	013cH
	DD	013dH
	DD	013eH
	DD	013fH
	DD	015cH
	DD	015dH
	DD	015eH
	DD	015fH
	DD	017cH
	DD	017dH
	DD	017eH
	DD	017fH
	DD	0180H
	DD	0181H
	DD	0182H
	DD	0183H
	DD	01a0H
	DD	01a1H
	DD	01a2H
	DD	01a3H
	DD	01c0H
	DD	01c1H
	DD	01c2H
	DD	01c3H
	DD	01e0H
	DD	01e1H
	DD	01e2H
	DD	01e3H
	DD	0184H
	DD	0185H
	DD	0186H
	DD	0187H
	DD	01a4H
	DD	01a5H
	DD	01a6H
	DD	01a7H
	DD	01c4H
	DD	01c5H
	DD	01c6H
	DD	01c7H
	DD	01e4H
	DD	01e5H
	DD	01e6H
	DD	01e7H
	DD	0188H
	DD	0189H
	DD	018aH
	DD	018bH
	DD	01a8H
	DD	01a9H
	DD	01aaH
	DD	01abH
	DD	01c8H
	DD	01c9H
	DD	01caH
	DD	01cbH
	DD	01e8H
	DD	01e9H
	DD	01eaH
	DD	01ebH
	DD	018cH
	DD	018dH
	DD	018eH
	DD	018fH
	DD	01acH
	DD	01adH
	DD	01aeH
	DD	01afH
	DD	01ccH
	DD	01cdH
	DD	01ceH
	DD	01cfH
	DD	01ecH
	DD	01edH
	DD	01eeH
	DD	01efH
	DD	0190H
	DD	0191H
	DD	0192H
	DD	0193H
	DD	01b0H
	DD	01b1H
	DD	01b2H
	DD	01b3H
	DD	01d0H
	DD	01d1H
	DD	01d2H
	DD	01d3H
	DD	01f0H
	DD	01f1H
	DD	01f2H
	DD	01f3H
	DD	0194H
	DD	0195H
	DD	0196H
	DD	0197H
	DD	01b4H
	DD	01b5H
	DD	01b6H
	DD	01b7H
	DD	01d4H
	DD	01d5H
	DD	01d6H
	DD	01d7H
	DD	01f4H
	DD	01f5H
	DD	01f6H
	DD	01f7H
	DD	0198H
	DD	0199H
	DD	019aH
	DD	019bH
	DD	01b8H
	DD	01b9H
	DD	01baH
	DD	01bbH
	DD	01d8H
	DD	01d9H
	DD	01daH
	DD	01dbH
	DD	01f8H
	DD	01f9H
	DD	01faH
	DD	01fbH
	DD	019cH
	DD	019dH
	DD	019eH
	DD	019fH
	DD	01bcH
	DD	01bdH
	DD	01beH
	DD	01bfH
	DD	01dcH
	DD	01ddH
	DD	01deH
	DD	01dfH
	DD	01fcH
	DD	01fdH
	DD	01feH
	DD	01ffH
	DD	0200H
	DD	0201H
	DD	0202H
	DD	0203H
	DD	0220H
	DD	0221H
	DD	0222H
	DD	0223H
	DD	0240H
	DD	0241H
	DD	0242H
	DD	0243H
	DD	0260H
	DD	0261H
	DD	0262H
	DD	0263H
	DD	0204H
	DD	0205H
	DD	0206H
	DD	0207H
	DD	0224H
	DD	0225H
	DD	0226H
	DD	0227H
	DD	0244H
	DD	0245H
	DD	0246H
	DD	0247H
	DD	0264H
	DD	0265H
	DD	0266H
	DD	0267H
	DD	0208H
	DD	0209H
	DD	020aH
	DD	020bH
	DD	0228H
	DD	0229H
	DD	022aH
	DD	022bH
	DD	0248H
	DD	0249H
	DD	024aH
	DD	024bH
	DD	0268H
	DD	0269H
	DD	026aH
	DD	026bH
	DD	020cH
	DD	020dH
	DD	020eH
	DD	020fH
	DD	022cH
	DD	022dH
	DD	022eH
	DD	022fH
	DD	024cH
	DD	024dH
	DD	024eH
	DD	024fH
	DD	026cH
	DD	026dH
	DD	026eH
	DD	026fH
	DD	0210H
	DD	0211H
	DD	0212H
	DD	0213H
	DD	0230H
	DD	0231H
	DD	0232H
	DD	0233H
	DD	0250H
	DD	0251H
	DD	0252H
	DD	0253H
	DD	0270H
	DD	0271H
	DD	0272H
	DD	0273H
	DD	0214H
	DD	0215H
	DD	0216H
	DD	0217H
	DD	0234H
	DD	0235H
	DD	0236H
	DD	0237H
	DD	0254H
	DD	0255H
	DD	0256H
	DD	0257H
	DD	0274H
	DD	0275H
	DD	0276H
	DD	0277H
	DD	0218H
	DD	0219H
	DD	021aH
	DD	021bH
	DD	0238H
	DD	0239H
	DD	023aH
	DD	023bH
	DD	0258H
	DD	0259H
	DD	025aH
	DD	025bH
	DD	0278H
	DD	0279H
	DD	027aH
	DD	027bH
	DD	021cH
	DD	021dH
	DD	021eH
	DD	021fH
	DD	023cH
	DD	023dH
	DD	023eH
	DD	023fH
	DD	025cH
	DD	025dH
	DD	025eH
	DD	025fH
	DD	027cH
	DD	027dH
	DD	027eH
	DD	027fH
	DD	0280H
	DD	0281H
	DD	0282H
	DD	0283H
	DD	02a0H
	DD	02a1H
	DD	02a2H
	DD	02a3H
	DD	02c0H
	DD	02c1H
	DD	02c2H
	DD	02c3H
	DD	02e0H
	DD	02e1H
	DD	02e2H
	DD	02e3H
	DD	0284H
	DD	0285H
	DD	0286H
	DD	0287H
	DD	02a4H
	DD	02a5H
	DD	02a6H
	DD	02a7H
	DD	02c4H
	DD	02c5H
	DD	02c6H
	DD	02c7H
	DD	02e4H
	DD	02e5H
	DD	02e6H
	DD	02e7H
	DD	0288H
	DD	0289H
	DD	028aH
	DD	028bH
	DD	02a8H
	DD	02a9H
	DD	02aaH
	DD	02abH
	DD	02c8H
	DD	02c9H
	DD	02caH
	DD	02cbH
	DD	02e8H
	DD	02e9H
	DD	02eaH
	DD	02ebH
	DD	028cH
	DD	028dH
	DD	028eH
	DD	028fH
	DD	02acH
	DD	02adH
	DD	02aeH
	DD	02afH
	DD	02ccH
	DD	02cdH
	DD	02ceH
	DD	02cfH
	DD	02ecH
	DD	02edH
	DD	02eeH
	DD	02efH
	DD	0290H
	DD	0291H
	DD	0292H
	DD	0293H
	DD	02b0H
	DD	02b1H
	DD	02b2H
	DD	02b3H
	DD	02d0H
	DD	02d1H
	DD	02d2H
	DD	02d3H
	DD	02f0H
	DD	02f1H
	DD	02f2H
	DD	02f3H
	DD	0294H
	DD	0295H
	DD	0296H
	DD	0297H
	DD	02b4H
	DD	02b5H
	DD	02b6H
	DD	02b7H
	DD	02d4H
	DD	02d5H
	DD	02d6H
	DD	02d7H
	DD	02f4H
	DD	02f5H
	DD	02f6H
	DD	02f7H
	DD	0298H
	DD	0299H
	DD	029aH
	DD	029bH
	DD	02b8H
	DD	02b9H
	DD	02baH
	DD	02bbH
	DD	02d8H
	DD	02d9H
	DD	02daH
	DD	02dbH
	DD	02f8H
	DD	02f9H
	DD	02faH
	DD	02fbH
	DD	029cH
	DD	029dH
	DD	029eH
	DD	029fH
	DD	02bcH
	DD	02bdH
	DD	02beH
	DD	02bfH
	DD	02dcH
	DD	02ddH
	DD	02deH
	DD	02dfH
	DD	02fcH
	DD	02fdH
	DD	02feH
	DD	02ffH
	DD	0300H
	DD	0301H
	DD	0302H
	DD	0303H
	DD	0320H
	DD	0321H
	DD	0322H
	DD	0323H
	DD	0340H
	DD	0341H
	DD	0342H
	DD	0343H
	DD	0360H
	DD	0361H
	DD	0362H
	DD	0363H
	DD	0304H
	DD	0305H
	DD	0306H
	DD	0307H
	DD	0324H
	DD	0325H
	DD	0326H
	DD	0327H
	DD	0344H
	DD	0345H
	DD	0346H
	DD	0347H
	DD	0364H
	DD	0365H
	DD	0366H
	DD	0367H
	DD	0308H
	DD	0309H
	DD	030aH
	DD	030bH
	DD	0328H
	DD	0329H
	DD	032aH
	DD	032bH
	DD	0348H
	DD	0349H
	DD	034aH
	DD	034bH
	DD	0368H
	DD	0369H
	DD	036aH
	DD	036bH
	DD	030cH
	DD	030dH
	DD	030eH
	DD	030fH
	DD	032cH
	DD	032dH
	DD	032eH
	DD	032fH
	DD	034cH
	DD	034dH
	DD	034eH
	DD	034fH
	DD	036cH
	DD	036dH
	DD	036eH
	DD	036fH
	DD	0310H
	DD	0311H
	DD	0312H
	DD	0313H
	DD	0330H
	DD	0331H
	DD	0332H
	DD	0333H
	DD	0350H
	DD	0351H
	DD	0352H
	DD	0353H
	DD	0370H
	DD	0371H
	DD	0372H
	DD	0373H
	DD	0314H
	DD	0315H
	DD	0316H
	DD	0317H
	DD	0334H
	DD	0335H
	DD	0336H
	DD	0337H
	DD	0354H
	DD	0355H
	DD	0356H
	DD	0357H
	DD	0374H
	DD	0375H
	DD	0376H
	DD	0377H
	DD	0318H
	DD	0319H
	DD	031aH
	DD	031bH
	DD	0338H
	DD	0339H
	DD	033aH
	DD	033bH
	DD	0358H
	DD	0359H
	DD	035aH
	DD	035bH
	DD	0378H
	DD	0379H
	DD	037aH
	DD	037bH
	DD	031cH
	DD	031dH
	DD	031eH
	DD	031fH
	DD	033cH
	DD	033dH
	DD	033eH
	DD	033fH
	DD	035cH
	DD	035dH
	DD	035eH
	DD	035fH
	DD	037cH
	DD	037dH
	DD	037eH
	DD	037fH
	DD	0380H
	DD	0381H
	DD	0382H
	DD	0383H
	DD	03a0H
	DD	03a1H
	DD	03a2H
	DD	03a3H
	DD	03c0H
	DD	03c1H
	DD	03c2H
	DD	03c3H
	DD	03e0H
	DD	03e1H
	DD	03e2H
	DD	03e3H
	DD	0384H
	DD	0385H
	DD	0386H
	DD	0387H
	DD	03a4H
	DD	03a5H
	DD	03a6H
	DD	03a7H
	DD	03c4H
	DD	03c5H
	DD	03c6H
	DD	03c7H
	DD	03e4H
	DD	03e5H
	DD	03e6H
	DD	03e7H
	DD	0388H
	DD	0389H
	DD	038aH
	DD	038bH
	DD	03a8H
	DD	03a9H
	DD	03aaH
	DD	03abH
	DD	03c8H
	DD	03c9H
	DD	03caH
	DD	03cbH
	DD	03e8H
	DD	03e9H
	DD	03eaH
	DD	03ebH
	DD	038cH
	DD	038dH
	DD	038eH
	DD	038fH
	DD	03acH
	DD	03adH
	DD	03aeH
	DD	03afH
	DD	03ccH
	DD	03cdH
	DD	03ceH
	DD	03cfH
	DD	03ecH
	DD	03edH
	DD	03eeH
	DD	03efH
	DD	0390H
	DD	0391H
	DD	0392H
	DD	0393H
	DD	03b0H
	DD	03b1H
	DD	03b2H
	DD	03b3H
	DD	03d0H
	DD	03d1H
	DD	03d2H
	DD	03d3H
	DD	03f0H
	DD	03f1H
	DD	03f2H
	DD	03f3H
	DD	0394H
	DD	0395H
	DD	0396H
	DD	0397H
	DD	03b4H
	DD	03b5H
	DD	03b6H
	DD	03b7H
	DD	03d4H
	DD	03d5H
	DD	03d6H
	DD	03d7H
	DD	03f4H
	DD	03f5H
	DD	03f6H
	DD	03f7H
	DD	0398H
	DD	0399H
	DD	039aH
	DD	039bH
	DD	03b8H
	DD	03b9H
	DD	03baH
	DD	03bbH
	DD	03d8H
	DD	03d9H
	DD	03daH
	DD	03dbH
	DD	03f8H
	DD	03f9H
	DD	03faH
	DD	03fbH
	DD	039cH
	DD	039dH
	DD	039eH
	DD	039fH
	DD	03bcH
	DD	03bdH
	DD	03beH
	DD	03bfH
	DD	03dcH
	DD	03ddH
	DD	03deH
	DD	03dfH
	DD	03fcH
	DD	03fdH
	DD	03feH
	DD	03ffH
g_sig_last_scan_2_1 DD 00H
	DD	04H
	DD	08H
	DD	0cH
	DD	01H
	DD	05H
	DD	09H
	DD	0dH
	DD	02H
	DD	06H
	DD	0aH
	DD	0eH
	DD	03H
	DD	07H
	DD	0bH
	DD	0fH
g_sig_last_scan_1_0 DD 00H
	DD	01H
	DD	02H
	DD	03H
g_sig_last_scan_2_4 DD 00H
	DD	020H
	DD	040H
	DD	060H
	DD	01H
	DD	021H
	DD	041H
	DD	061H
	DD	02H
	DD	022H
	DD	042H
	DD	062H
	DD	03H
	DD	023H
	DD	043H
	DD	063H
	DD	080H
	DD	0a0H
	DD	0c0H
	DD	0e0H
	DD	081H
	DD	0a1H
	DD	0c1H
	DD	0e1H
	DD	082H
	DD	0a2H
	DD	0c2H
	DD	0e2H
	DD	083H
	DD	0a3H
	DD	0c3H
	DD	0e3H
	DD	0100H
	DD	0120H
	DD	0140H
	DD	0160H
	DD	0101H
	DD	0121H
	DD	0141H
	DD	0161H
	DD	0102H
	DD	0122H
	DD	0142H
	DD	0162H
	DD	0103H
	DD	0123H
	DD	0143H
	DD	0163H
	DD	0180H
	DD	01a0H
	DD	01c0H
	DD	01e0H
	DD	0181H
	DD	01a1H
	DD	01c1H
	DD	01e1H
	DD	0182H
	DD	01a2H
	DD	01c2H
	DD	01e2H
	DD	0183H
	DD	01a3H
	DD	01c3H
	DD	01e3H
	DD	0200H
	DD	0220H
	DD	0240H
	DD	0260H
	DD	0201H
	DD	0221H
	DD	0241H
	DD	0261H
	DD	0202H
	DD	0222H
	DD	0242H
	DD	0262H
	DD	0203H
	DD	0223H
	DD	0243H
	DD	0263H
	DD	0280H
	DD	02a0H
	DD	02c0H
	DD	02e0H
	DD	0281H
	DD	02a1H
	DD	02c1H
	DD	02e1H
	DD	0282H
	DD	02a2H
	DD	02c2H
	DD	02e2H
	DD	0283H
	DD	02a3H
	DD	02c3H
	DD	02e3H
	DD	0300H
	DD	0320H
	DD	0340H
	DD	0360H
	DD	0301H
	DD	0321H
	DD	0341H
	DD	0361H
	DD	0302H
	DD	0322H
	DD	0342H
	DD	0362H
	DD	0303H
	DD	0323H
	DD	0343H
	DD	0363H
	DD	0380H
	DD	03a0H
	DD	03c0H
	DD	03e0H
	DD	0381H
	DD	03a1H
	DD	03c1H
	DD	03e1H
	DD	0382H
	DD	03a2H
	DD	03c2H
	DD	03e2H
	DD	0383H
	DD	03a3H
	DD	03c3H
	DD	03e3H
	DD	04H
	DD	024H
	DD	044H
	DD	064H
	DD	05H
	DD	025H
	DD	045H
	DD	065H
	DD	06H
	DD	026H
	DD	046H
	DD	066H
	DD	07H
	DD	027H
	DD	047H
	DD	067H
	DD	084H
	DD	0a4H
	DD	0c4H
	DD	0e4H
	DD	085H
	DD	0a5H
	DD	0c5H
	DD	0e5H
	DD	086H
	DD	0a6H
	DD	0c6H
	DD	0e6H
	DD	087H
	DD	0a7H
	DD	0c7H
	DD	0e7H
	DD	0104H
	DD	0124H
	DD	0144H
	DD	0164H
	DD	0105H
	DD	0125H
	DD	0145H
	DD	0165H
	DD	0106H
	DD	0126H
	DD	0146H
	DD	0166H
	DD	0107H
	DD	0127H
	DD	0147H
	DD	0167H
	DD	0184H
	DD	01a4H
	DD	01c4H
	DD	01e4H
	DD	0185H
	DD	01a5H
	DD	01c5H
	DD	01e5H
	DD	0186H
	DD	01a6H
	DD	01c6H
	DD	01e6H
	DD	0187H
	DD	01a7H
	DD	01c7H
	DD	01e7H
	DD	0204H
	DD	0224H
	DD	0244H
	DD	0264H
	DD	0205H
	DD	0225H
	DD	0245H
	DD	0265H
	DD	0206H
	DD	0226H
	DD	0246H
	DD	0266H
	DD	0207H
	DD	0227H
	DD	0247H
	DD	0267H
	DD	0284H
	DD	02a4H
	DD	02c4H
	DD	02e4H
	DD	0285H
	DD	02a5H
	DD	02c5H
	DD	02e5H
	DD	0286H
	DD	02a6H
	DD	02c6H
	DD	02e6H
	DD	0287H
	DD	02a7H
	DD	02c7H
	DD	02e7H
	DD	0304H
	DD	0324H
	DD	0344H
	DD	0364H
	DD	0305H
	DD	0325H
	DD	0345H
	DD	0365H
	DD	0306H
	DD	0326H
	DD	0346H
	DD	0366H
	DD	0307H
	DD	0327H
	DD	0347H
	DD	0367H
	DD	0384H
	DD	03a4H
	DD	03c4H
	DD	03e4H
	DD	0385H
	DD	03a5H
	DD	03c5H
	DD	03e5H
	DD	0386H
	DD	03a6H
	DD	03c6H
	DD	03e6H
	DD	0387H
	DD	03a7H
	DD	03c7H
	DD	03e7H
	DD	08H
	DD	028H
	DD	048H
	DD	068H
	DD	09H
	DD	029H
	DD	049H
	DD	069H
	DD	0aH
	DD	02aH
	DD	04aH
	DD	06aH
	DD	0bH
	DD	02bH
	DD	04bH
	DD	06bH
	DD	088H
	DD	0a8H
	DD	0c8H
	DD	0e8H
	DD	089H
	DD	0a9H
	DD	0c9H
	DD	0e9H
	DD	08aH
	DD	0aaH
	DD	0caH
	DD	0eaH
	DD	08bH
	DD	0abH
	DD	0cbH
	DD	0ebH
	DD	0108H
	DD	0128H
	DD	0148H
	DD	0168H
	DD	0109H
	DD	0129H
	DD	0149H
	DD	0169H
	DD	010aH
	DD	012aH
	DD	014aH
	DD	016aH
	DD	010bH
	DD	012bH
	DD	014bH
	DD	016bH
	DD	0188H
	DD	01a8H
	DD	01c8H
	DD	01e8H
	DD	0189H
	DD	01a9H
	DD	01c9H
	DD	01e9H
	DD	018aH
	DD	01aaH
	DD	01caH
	DD	01eaH
	DD	018bH
	DD	01abH
	DD	01cbH
	DD	01ebH
	DD	0208H
	DD	0228H
	DD	0248H
	DD	0268H
	DD	0209H
	DD	0229H
	DD	0249H
	DD	0269H
	DD	020aH
	DD	022aH
	DD	024aH
	DD	026aH
	DD	020bH
	DD	022bH
	DD	024bH
	DD	026bH
	DD	0288H
	DD	02a8H
	DD	02c8H
	DD	02e8H
	DD	0289H
	DD	02a9H
	DD	02c9H
	DD	02e9H
	DD	028aH
	DD	02aaH
	DD	02caH
	DD	02eaH
	DD	028bH
	DD	02abH
	DD	02cbH
	DD	02ebH
	DD	0308H
	DD	0328H
	DD	0348H
	DD	0368H
	DD	0309H
	DD	0329H
	DD	0349H
	DD	0369H
	DD	030aH
	DD	032aH
	DD	034aH
	DD	036aH
	DD	030bH
	DD	032bH
	DD	034bH
	DD	036bH
	DD	0388H
	DD	03a8H
	DD	03c8H
	DD	03e8H
	DD	0389H
	DD	03a9H
	DD	03c9H
	DD	03e9H
	DD	038aH
	DD	03aaH
	DD	03caH
	DD	03eaH
	DD	038bH
	DD	03abH
	DD	03cbH
	DD	03ebH
	DD	0cH
	DD	02cH
	DD	04cH
	DD	06cH
	DD	0dH
	DD	02dH
	DD	04dH
	DD	06dH
	DD	0eH
	DD	02eH
	DD	04eH
	DD	06eH
	DD	0fH
	DD	02fH
	DD	04fH
	DD	06fH
	DD	08cH
	DD	0acH
	DD	0ccH
	DD	0ecH
	DD	08dH
	DD	0adH
	DD	0cdH
	DD	0edH
	DD	08eH
	DD	0aeH
	DD	0ceH
	DD	0eeH
	DD	08fH
	DD	0afH
	DD	0cfH
	DD	0efH
	DD	010cH
	DD	012cH
	DD	014cH
	DD	016cH
	DD	010dH
	DD	012dH
	DD	014dH
	DD	016dH
	DD	010eH
	DD	012eH
	DD	014eH
	DD	016eH
	DD	010fH
	DD	012fH
	DD	014fH
	DD	016fH
	DD	018cH
	DD	01acH
	DD	01ccH
	DD	01ecH
	DD	018dH
	DD	01adH
	DD	01cdH
	DD	01edH
	DD	018eH
	DD	01aeH
	DD	01ceH
	DD	01eeH
	DD	018fH
	DD	01afH
	DD	01cfH
	DD	01efH
	DD	020cH
	DD	022cH
	DD	024cH
	DD	026cH
	DD	020dH
	DD	022dH
	DD	024dH
	DD	026dH
	DD	020eH
	DD	022eH
	DD	024eH
	DD	026eH
	DD	020fH
	DD	022fH
	DD	024fH
	DD	026fH
	DD	028cH
	DD	02acH
	DD	02ccH
	DD	02ecH
	DD	028dH
	DD	02adH
	DD	02cdH
	DD	02edH
	DD	028eH
	DD	02aeH
	DD	02ceH
	DD	02eeH
	DD	028fH
	DD	02afH
	DD	02cfH
	DD	02efH
	DD	030cH
	DD	032cH
	DD	034cH
	DD	036cH
	DD	030dH
	DD	032dH
	DD	034dH
	DD	036dH
	DD	030eH
	DD	032eH
	DD	034eH
	DD	036eH
	DD	030fH
	DD	032fH
	DD	034fH
	DD	036fH
	DD	038cH
	DD	03acH
	DD	03ccH
	DD	03ecH
	DD	038dH
	DD	03adH
	DD	03cdH
	DD	03edH
	DD	038eH
	DD	03aeH
	DD	03ceH
	DD	03eeH
	DD	038fH
	DD	03afH
	DD	03cfH
	DD	03efH
	DD	010H
	DD	030H
	DD	050H
	DD	070H
	DD	011H
	DD	031H
	DD	051H
	DD	071H
	DD	012H
	DD	032H
	DD	052H
	DD	072H
	DD	013H
	DD	033H
	DD	053H
	DD	073H
	DD	090H
	DD	0b0H
	DD	0d0H
	DD	0f0H
	DD	091H
	DD	0b1H
	DD	0d1H
	DD	0f1H
	DD	092H
	DD	0b2H
	DD	0d2H
	DD	0f2H
	DD	093H
	DD	0b3H
	DD	0d3H
	DD	0f3H
	DD	0110H
	DD	0130H
	DD	0150H
	DD	0170H
	DD	0111H
	DD	0131H
	DD	0151H
	DD	0171H
	DD	0112H
	DD	0132H
	DD	0152H
	DD	0172H
	DD	0113H
	DD	0133H
	DD	0153H
	DD	0173H
	DD	0190H
	DD	01b0H
	DD	01d0H
	DD	01f0H
	DD	0191H
	DD	01b1H
	DD	01d1H
	DD	01f1H
	DD	0192H
	DD	01b2H
	DD	01d2H
	DD	01f2H
	DD	0193H
	DD	01b3H
	DD	01d3H
	DD	01f3H
	DD	0210H
	DD	0230H
	DD	0250H
	DD	0270H
	DD	0211H
	DD	0231H
	DD	0251H
	DD	0271H
	DD	0212H
	DD	0232H
	DD	0252H
	DD	0272H
	DD	0213H
	DD	0233H
	DD	0253H
	DD	0273H
	DD	0290H
	DD	02b0H
	DD	02d0H
	DD	02f0H
	DD	0291H
	DD	02b1H
	DD	02d1H
	DD	02f1H
	DD	0292H
	DD	02b2H
	DD	02d2H
	DD	02f2H
	DD	0293H
	DD	02b3H
	DD	02d3H
	DD	02f3H
	DD	0310H
	DD	0330H
	DD	0350H
	DD	0370H
	DD	0311H
	DD	0331H
	DD	0351H
	DD	0371H
	DD	0312H
	DD	0332H
	DD	0352H
	DD	0372H
	DD	0313H
	DD	0333H
	DD	0353H
	DD	0373H
	DD	0390H
	DD	03b0H
	DD	03d0H
	DD	03f0H
	DD	0391H
	DD	03b1H
	DD	03d1H
	DD	03f1H
	DD	0392H
	DD	03b2H
	DD	03d2H
	DD	03f2H
	DD	0393H
	DD	03b3H
	DD	03d3H
	DD	03f3H
	DD	014H
	DD	034H
	DD	054H
	DD	074H
	DD	015H
	DD	035H
	DD	055H
	DD	075H
	DD	016H
	DD	036H
	DD	056H
	DD	076H
	DD	017H
	DD	037H
	DD	057H
	DD	077H
	DD	094H
	DD	0b4H
	DD	0d4H
	DD	0f4H
	DD	095H
	DD	0b5H
	DD	0d5H
	DD	0f5H
	DD	096H
	DD	0b6H
	DD	0d6H
	DD	0f6H
	DD	097H
	DD	0b7H
	DD	0d7H
	DD	0f7H
	DD	0114H
	DD	0134H
	DD	0154H
	DD	0174H
	DD	0115H
	DD	0135H
	DD	0155H
	DD	0175H
	DD	0116H
	DD	0136H
	DD	0156H
	DD	0176H
	DD	0117H
	DD	0137H
	DD	0157H
	DD	0177H
	DD	0194H
	DD	01b4H
	DD	01d4H
	DD	01f4H
	DD	0195H
	DD	01b5H
	DD	01d5H
	DD	01f5H
	DD	0196H
	DD	01b6H
	DD	01d6H
	DD	01f6H
	DD	0197H
	DD	01b7H
	DD	01d7H
	DD	01f7H
	DD	0214H
	DD	0234H
	DD	0254H
	DD	0274H
	DD	0215H
	DD	0235H
	DD	0255H
	DD	0275H
	DD	0216H
	DD	0236H
	DD	0256H
	DD	0276H
	DD	0217H
	DD	0237H
	DD	0257H
	DD	0277H
	DD	0294H
	DD	02b4H
	DD	02d4H
	DD	02f4H
	DD	0295H
	DD	02b5H
	DD	02d5H
	DD	02f5H
	DD	0296H
	DD	02b6H
	DD	02d6H
	DD	02f6H
	DD	0297H
	DD	02b7H
	DD	02d7H
	DD	02f7H
	DD	0314H
	DD	0334H
	DD	0354H
	DD	0374H
	DD	0315H
	DD	0335H
	DD	0355H
	DD	0375H
	DD	0316H
	DD	0336H
	DD	0356H
	DD	0376H
	DD	0317H
	DD	0337H
	DD	0357H
	DD	0377H
	DD	0394H
	DD	03b4H
	DD	03d4H
	DD	03f4H
	DD	0395H
	DD	03b5H
	DD	03d5H
	DD	03f5H
	DD	0396H
	DD	03b6H
	DD	03d6H
	DD	03f6H
	DD	0397H
	DD	03b7H
	DD	03d7H
	DD	03f7H
	DD	018H
	DD	038H
	DD	058H
	DD	078H
	DD	019H
	DD	039H
	DD	059H
	DD	079H
	DD	01aH
	DD	03aH
	DD	05aH
	DD	07aH
	DD	01bH
	DD	03bH
	DD	05bH
	DD	07bH
	DD	098H
	DD	0b8H
	DD	0d8H
	DD	0f8H
	DD	099H
	DD	0b9H
	DD	0d9H
	DD	0f9H
	DD	09aH
	DD	0baH
	DD	0daH
	DD	0faH
	DD	09bH
	DD	0bbH
	DD	0dbH
	DD	0fbH
	DD	0118H
	DD	0138H
	DD	0158H
	DD	0178H
	DD	0119H
	DD	0139H
	DD	0159H
	DD	0179H
	DD	011aH
	DD	013aH
	DD	015aH
	DD	017aH
	DD	011bH
	DD	013bH
	DD	015bH
	DD	017bH
	DD	0198H
	DD	01b8H
	DD	01d8H
	DD	01f8H
	DD	0199H
	DD	01b9H
	DD	01d9H
	DD	01f9H
	DD	019aH
	DD	01baH
	DD	01daH
	DD	01faH
	DD	019bH
	DD	01bbH
	DD	01dbH
	DD	01fbH
	DD	0218H
	DD	0238H
	DD	0258H
	DD	0278H
	DD	0219H
	DD	0239H
	DD	0259H
	DD	0279H
	DD	021aH
	DD	023aH
	DD	025aH
	DD	027aH
	DD	021bH
	DD	023bH
	DD	025bH
	DD	027bH
	DD	0298H
	DD	02b8H
	DD	02d8H
	DD	02f8H
	DD	0299H
	DD	02b9H
	DD	02d9H
	DD	02f9H
	DD	029aH
	DD	02baH
	DD	02daH
	DD	02faH
	DD	029bH
	DD	02bbH
	DD	02dbH
	DD	02fbH
	DD	0318H
	DD	0338H
	DD	0358H
	DD	0378H
	DD	0319H
	DD	0339H
	DD	0359H
	DD	0379H
	DD	031aH
	DD	033aH
	DD	035aH
	DD	037aH
	DD	031bH
	DD	033bH
	DD	035bH
	DD	037bH
	DD	0398H
	DD	03b8H
	DD	03d8H
	DD	03f8H
	DD	0399H
	DD	03b9H
	DD	03d9H
	DD	03f9H
	DD	039aH
	DD	03baH
	DD	03daH
	DD	03faH
	DD	039bH
	DD	03bbH
	DD	03dbH
	DD	03fbH
	DD	01cH
	DD	03cH
	DD	05cH
	DD	07cH
	DD	01dH
	DD	03dH
	DD	05dH
	DD	07dH
	DD	01eH
	DD	03eH
	DD	05eH
	DD	07eH
	DD	01fH
	DD	03fH
	DD	05fH
	DD	07fH
	DD	09cH
	DD	0bcH
	DD	0dcH
	DD	0fcH
	DD	09dH
	DD	0bdH
	DD	0ddH
	DD	0fdH
	DD	09eH
	DD	0beH
	DD	0deH
	DD	0feH
	DD	09fH
	DD	0bfH
	DD	0dfH
	DD	0ffH
	DD	011cH
	DD	013cH
	DD	015cH
	DD	017cH
	DD	011dH
	DD	013dH
	DD	015dH
	DD	017dH
	DD	011eH
	DD	013eH
	DD	015eH
	DD	017eH
	DD	011fH
	DD	013fH
	DD	015fH
	DD	017fH
	DD	019cH
	DD	01bcH
	DD	01dcH
	DD	01fcH
	DD	019dH
	DD	01bdH
	DD	01ddH
	DD	01fdH
	DD	019eH
	DD	01beH
	DD	01deH
	DD	01feH
	DD	019fH
	DD	01bfH
	DD	01dfH
	DD	01ffH
	DD	021cH
	DD	023cH
	DD	025cH
	DD	027cH
	DD	021dH
	DD	023dH
	DD	025dH
	DD	027dH
	DD	021eH
	DD	023eH
	DD	025eH
	DD	027eH
	DD	021fH
	DD	023fH
	DD	025fH
	DD	027fH
	DD	029cH
	DD	02bcH
	DD	02dcH
	DD	02fcH
	DD	029dH
	DD	02bdH
	DD	02ddH
	DD	02fdH
	DD	029eH
	DD	02beH
	DD	02deH
	DD	02feH
	DD	029fH
	DD	02bfH
	DD	02dfH
	DD	02ffH
	DD	031cH
	DD	033cH
	DD	035cH
	DD	037cH
	DD	031dH
	DD	033dH
	DD	035dH
	DD	037dH
	DD	031eH
	DD	033eH
	DD	035eH
	DD	037eH
	DD	031fH
	DD	033fH
	DD	035fH
	DD	037fH
	DD	039cH
	DD	03bcH
	DD	03dcH
	DD	03fcH
	DD	039dH
	DD	03bdH
	DD	03ddH
	DD	03fdH
	DD	039eH
	DD	03beH
	DD	03deH
	DD	03feH
	DD	039fH
	DD	03bfH
	DD	03dfH
	DD	03ffH
g_sig_last_scan_1_3 DD 00H
	DD	01H
	DD	02H
	DD	03H
	DD	010H
	DD	011H
	DD	012H
	DD	013H
	DD	020H
	DD	021H
	DD	022H
	DD	023H
	DD	030H
	DD	031H
	DD	032H
	DD	033H
	DD	04H
	DD	05H
	DD	06H
	DD	07H
	DD	014H
	DD	015H
	DD	016H
	DD	017H
	DD	024H
	DD	025H
	DD	026H
	DD	027H
	DD	034H
	DD	035H
	DD	036H
	DD	037H
	DD	08H
	DD	09H
	DD	0aH
	DD	0bH
	DD	018H
	DD	019H
	DD	01aH
	DD	01bH
	DD	028H
	DD	029H
	DD	02aH
	DD	02bH
	DD	038H
	DD	039H
	DD	03aH
	DD	03bH
	DD	0cH
	DD	0dH
	DD	0eH
	DD	0fH
	DD	01cH
	DD	01dH
	DD	01eH
	DD	01fH
	DD	02cH
	DD	02dH
	DD	02eH
	DD	02fH
	DD	03cH
	DD	03dH
	DD	03eH
	DD	03fH
	DD	040H
	DD	041H
	DD	042H
	DD	043H
	DD	050H
	DD	051H
	DD	052H
	DD	053H
	DD	060H
	DD	061H
	DD	062H
	DD	063H
	DD	070H
	DD	071H
	DD	072H
	DD	073H
	DD	044H
	DD	045H
	DD	046H
	DD	047H
	DD	054H
	DD	055H
	DD	056H
	DD	057H
	DD	064H
	DD	065H
	DD	066H
	DD	067H
	DD	074H
	DD	075H
	DD	076H
	DD	077H
	DD	048H
	DD	049H
	DD	04aH
	DD	04bH
	DD	058H
	DD	059H
	DD	05aH
	DD	05bH
	DD	068H
	DD	069H
	DD	06aH
	DD	06bH
	DD	078H
	DD	079H
	DD	07aH
	DD	07bH
	DD	04cH
	DD	04dH
	DD	04eH
	DD	04fH
	DD	05cH
	DD	05dH
	DD	05eH
	DD	05fH
	DD	06cH
	DD	06dH
	DD	06eH
	DD	06fH
	DD	07cH
	DD	07dH
	DD	07eH
	DD	07fH
	DD	080H
	DD	081H
	DD	082H
	DD	083H
	DD	090H
	DD	091H
	DD	092H
	DD	093H
	DD	0a0H
	DD	0a1H
	DD	0a2H
	DD	0a3H
	DD	0b0H
	DD	0b1H
	DD	0b2H
	DD	0b3H
	DD	084H
	DD	085H
	DD	086H
	DD	087H
	DD	094H
	DD	095H
	DD	096H
	DD	097H
	DD	0a4H
	DD	0a5H
	DD	0a6H
	DD	0a7H
	DD	0b4H
	DD	0b5H
	DD	0b6H
	DD	0b7H
	DD	088H
	DD	089H
	DD	08aH
	DD	08bH
	DD	098H
	DD	099H
	DD	09aH
	DD	09bH
	DD	0a8H
	DD	0a9H
	DD	0aaH
	DD	0abH
	DD	0b8H
	DD	0b9H
	DD	0baH
	DD	0bbH
	DD	08cH
	DD	08dH
	DD	08eH
	DD	08fH
	DD	09cH
	DD	09dH
	DD	09eH
	DD	09fH
	DD	0acH
	DD	0adH
	DD	0aeH
	DD	0afH
	DD	0bcH
	DD	0bdH
	DD	0beH
	DD	0bfH
	DD	0c0H
	DD	0c1H
	DD	0c2H
	DD	0c3H
	DD	0d0H
	DD	0d1H
	DD	0d2H
	DD	0d3H
	DD	0e0H
	DD	0e1H
	DD	0e2H
	DD	0e3H
	DD	0f0H
	DD	0f1H
	DD	0f2H
	DD	0f3H
	DD	0c4H
	DD	0c5H
	DD	0c6H
	DD	0c7H
	DD	0d4H
	DD	0d5H
	DD	0d6H
	DD	0d7H
	DD	0e4H
	DD	0e5H
	DD	0e6H
	DD	0e7H
	DD	0f4H
	DD	0f5H
	DD	0f6H
	DD	0f7H
	DD	0c8H
	DD	0c9H
	DD	0caH
	DD	0cbH
	DD	0d8H
	DD	0d9H
	DD	0daH
	DD	0dbH
	DD	0e8H
	DD	0e9H
	DD	0eaH
	DD	0ebH
	DD	0f8H
	DD	0f9H
	DD	0faH
	DD	0fbH
	DD	0ccH
	DD	0cdH
	DD	0ceH
	DD	0cfH
	DD	0dcH
	DD	0ddH
	DD	0deH
	DD	0dfH
	DD	0ecH
	DD	0edH
	DD	0eeH
	DD	0efH
	DD	0fcH
	DD	0fdH
	DD	0feH
	DD	0ffH
g_sig_last_scan_0_2 DD 00H
	DD	08H
	DD	01H
	DD	010H
	DD	09H
	DD	02H
	DD	018H
	DD	011H
	DD	0aH
	DD	03H
	DD	019H
	DD	012H
	DD	0bH
	DD	01aH
	DD	013H
	DD	01bH
	DD	020H
	DD	028H
	DD	021H
	DD	030H
	DD	029H
	DD	022H
	DD	038H
	DD	031H
	DD	02aH
	DD	023H
	DD	039H
	DD	032H
	DD	02bH
	DD	03aH
	DD	033H
	DD	03bH
	DD	04H
	DD	0cH
	DD	05H
	DD	014H
	DD	0dH
	DD	06H
	DD	01cH
	DD	015H
	DD	0eH
	DD	07H
	DD	01dH
	DD	016H
	DD	0fH
	DD	01eH
	DD	017H
	DD	01fH
	DD	024H
	DD	02cH
	DD	025H
	DD	034H
	DD	02dH
	DD	026H
	DD	03cH
	DD	035H
	DD	02eH
	DD	027H
	DD	03dH
	DD	036H
	DD	02fH
	DD	03eH
	DD	037H
	DD	03fH
g_sig_last_scan_0_1 DD 00H
	DD	04H
	DD	01H
	DD	08H
	DD	05H
	DD	02H
	DD	0cH
	DD	09H
	DD	06H
	DD	03H
	DD	0dH
	DD	0aH
	DD	07H
	DD	0eH
	DD	0bH
	DD	0fH
g_sig_last_scan_16x16 DD 00H
	DD	04H
	DD	01H
	DD	08H
	DD	05H
	DD	02H
	DD	0cH
	DD	09H
	DD	06H
	DD	03H
	DD	0dH
	DD	0aH
	DD	07H
	DD	0eH
	DD	0bH
	DD	0fH
g_sig_last_scan_1_2 DD 00H
	DD	01H
	DD	02H
	DD	03H
	DD	08H
	DD	09H
	DD	0aH
	DD	0bH
	DD	010H
	DD	011H
	DD	012H
	DD	013H
	DD	018H
	DD	019H
	DD	01aH
	DD	01bH
	DD	04H
	DD	05H
	DD	06H
	DD	07H
	DD	0cH
	DD	0dH
	DD	0eH
	DD	0fH
	DD	014H
	DD	015H
	DD	016H
	DD	017H
	DD	01cH
	DD	01dH
	DD	01eH
	DD	01fH
	DD	020H
	DD	021H
	DD	022H
	DD	023H
	DD	028H
	DD	029H
	DD	02aH
	DD	02bH
	DD	030H
	DD	031H
	DD	032H
	DD	033H
	DD	038H
	DD	039H
	DD	03aH
	DD	03bH
	DD	024H
	DD	025H
	DD	026H
	DD	027H
	DD	02cH
	DD	02dH
	DD	02eH
	DD	02fH
	DD	034H
	DD	035H
	DD	036H
	DD	037H
	DD	03cH
	DD	03dH
	DD	03eH
	DD	03fH
g_sig_last_scan_1_1 DD 00H
	DD	01H
	DD	02H
	DD	03H
	DD	04H
	DD	05H
	DD	06H
	DD	07H
	DD	08H
	DD	09H
	DD	0aH
	DD	0bH
	DD	0cH
	DD	0dH
	DD	0eH
	DD	0fH
g_sig_last_scan_32x32 DD 00H
	DD	08H
	DD	01H
	DD	010H
	DD	09H
	DD	02H
	DD	018H
	DD	011H
	DD	0aH
	DD	03H
	DD	020H
	DD	019H
	DD	012H
	DD	0bH
	DD	04H
	DD	028H
	DD	021H
	DD	01aH
	DD	013H
	DD	0cH
	DD	05H
	DD	030H
	DD	029H
	DD	022H
	DD	01bH
	DD	014H
	DD	0dH
	DD	06H
	DD	038H
	DD	031H
	DD	02aH
	DD	023H
	DD	01cH
	DD	015H
	DD	0eH
	DD	07H
	DD	039H
	DD	032H
	DD	02bH
	DD	024H
	DD	01dH
	DD	016H
	DD	0fH
	DD	03aH
	DD	033H
	DD	02cH
	DD	025H
	DD	01eH
	DD	017H
	DD	03bH
	DD	034H
	DD	02dH
	DD	026H
	DD	01fH
	DD	03cH
	DD	035H
	DD	02eH
	DD	027H
	DD	03dH
	DD	036H
	DD	02fH
	DD	03eH
	DD	037H
	DD	03fH
g_sig_last_scan_2_2 DD 00H
	DD	08H
	DD	010H
	DD	018H
	DD	01H
	DD	09H
	DD	011H
	DD	019H
	DD	02H
	DD	0aH
	DD	012H
	DD	01aH
	DD	03H
	DD	0bH
	DD	013H
	DD	01bH
	DD	020H
	DD	028H
	DD	030H
	DD	038H
	DD	021H
	DD	029H
	DD	031H
	DD	039H
	DD	022H
	DD	02aH
	DD	032H
	DD	03aH
	DD	023H
	DD	02bH
	DD	033H
	DD	03bH
	DD	04H
	DD	0cH
	DD	014H
	DD	01cH
	DD	05H
	DD	0dH
	DD	015H
	DD	01dH
	DD	06H
	DD	0eH
	DD	016H
	DD	01eH
	DD	07H
	DD	0fH
	DD	017H
	DD	01fH
	DD	024H
	DD	02cH
	DD	034H
	DD	03cH
	DD	025H
	DD	02dH
	DD	035H
	DD	03dH
	DD	026H
	DD	02eH
	DD	036H
	DD	03eH
	DD	027H
	DD	02fH
	DD	037H
	DD	03fH
g_sig_last_scan_2_3 DD 00H
	DD	010H
	DD	020H
	DD	030H
	DD	01H
	DD	011H
	DD	021H
	DD	031H
	DD	02H
	DD	012H
	DD	022H
	DD	032H
	DD	03H
	DD	013H
	DD	023H
	DD	033H
	DD	040H
	DD	050H
	DD	060H
	DD	070H
	DD	041H
	DD	051H
	DD	061H
	DD	071H
	DD	042H
	DD	052H
	DD	062H
	DD	072H
	DD	043H
	DD	053H
	DD	063H
	DD	073H
	DD	080H
	DD	090H
	DD	0a0H
	DD	0b0H
	DD	081H
	DD	091H
	DD	0a1H
	DD	0b1H
	DD	082H
	DD	092H
	DD	0a2H
	DD	0b2H
	DD	083H
	DD	093H
	DD	0a3H
	DD	0b3H
	DD	0c0H
	DD	0d0H
	DD	0e0H
	DD	0f0H
	DD	0c1H
	DD	0d1H
	DD	0e1H
	DD	0f1H
	DD	0c2H
	DD	0d2H
	DD	0e2H
	DD	0f2H
	DD	0c3H
	DD	0d3H
	DD	0e3H
	DD	0f3H
	DD	04H
	DD	014H
	DD	024H
	DD	034H
	DD	05H
	DD	015H
	DD	025H
	DD	035H
	DD	06H
	DD	016H
	DD	026H
	DD	036H
	DD	07H
	DD	017H
	DD	027H
	DD	037H
	DD	044H
	DD	054H
	DD	064H
	DD	074H
	DD	045H
	DD	055H
	DD	065H
	DD	075H
	DD	046H
	DD	056H
	DD	066H
	DD	076H
	DD	047H
	DD	057H
	DD	067H
	DD	077H
	DD	084H
	DD	094H
	DD	0a4H
	DD	0b4H
	DD	085H
	DD	095H
	DD	0a5H
	DD	0b5H
	DD	086H
	DD	096H
	DD	0a6H
	DD	0b6H
	DD	087H
	DD	097H
	DD	0a7H
	DD	0b7H
	DD	0c4H
	DD	0d4H
	DD	0e4H
	DD	0f4H
	DD	0c5H
	DD	0d5H
	DD	0e5H
	DD	0f5H
	DD	0c6H
	DD	0d6H
	DD	0e6H
	DD	0f6H
	DD	0c7H
	DD	0d7H
	DD	0e7H
	DD	0f7H
	DD	08H
	DD	018H
	DD	028H
	DD	038H
	DD	09H
	DD	019H
	DD	029H
	DD	039H
	DD	0aH
	DD	01aH
	DD	02aH
	DD	03aH
	DD	0bH
	DD	01bH
	DD	02bH
	DD	03bH
	DD	048H
	DD	058H
	DD	068H
	DD	078H
	DD	049H
	DD	059H
	DD	069H
	DD	079H
	DD	04aH
	DD	05aH
	DD	06aH
	DD	07aH
	DD	04bH
	DD	05bH
	DD	06bH
	DD	07bH
	DD	088H
	DD	098H
	DD	0a8H
	DD	0b8H
	DD	089H
	DD	099H
	DD	0a9H
	DD	0b9H
	DD	08aH
	DD	09aH
	DD	0aaH
	DD	0baH
	DD	08bH
	DD	09bH
	DD	0abH
	DD	0bbH
	DD	0c8H
	DD	0d8H
	DD	0e8H
	DD	0f8H
	DD	0c9H
	DD	0d9H
	DD	0e9H
	DD	0f9H
	DD	0caH
	DD	0daH
	DD	0eaH
	DD	0faH
	DD	0cbH
	DD	0dbH
	DD	0ebH
	DD	0fbH
	DD	0cH
	DD	01cH
	DD	02cH
	DD	03cH
	DD	0dH
	DD	01dH
	DD	02dH
	DD	03dH
	DD	0eH
	DD	01eH
	DD	02eH
	DD	03eH
	DD	0fH
	DD	01fH
	DD	02fH
	DD	03fH
	DD	04cH
	DD	05cH
	DD	06cH
	DD	07cH
	DD	04dH
	DD	05dH
	DD	06dH
	DD	07dH
	DD	04eH
	DD	05eH
	DD	06eH
	DD	07eH
	DD	04fH
	DD	05fH
	DD	06fH
	DD	07fH
	DD	08cH
	DD	09cH
	DD	0acH
	DD	0bcH
	DD	08dH
	DD	09dH
	DD	0adH
	DD	0bdH
	DD	08eH
	DD	09eH
	DD	0aeH
	DD	0beH
	DD	08fH
	DD	09fH
	DD	0afH
	DD	0bfH
	DD	0ccH
	DD	0dcH
	DD	0ecH
	DD	0fcH
	DD	0cdH
	DD	0ddH
	DD	0edH
	DD	0fdH
	DD	0ceH
	DD	0deH
	DD	0eeH
	DD	0feH
	DD	0cfH
	DD	0dfH
	DD	0efH
	DD	0ffH
g_sig_last_scan_2_0 DD 00H
	DD	02H
	DD	01H
	DD	03H
g_sig_last_scan_0_3 DD 00H
	DD	010H
	DD	01H
	DD	020H
	DD	011H
	DD	02H
	DD	030H
	DD	021H
	DD	012H
	DD	03H
	DD	031H
	DD	022H
	DD	013H
	DD	032H
	DD	023H
	DD	033H
	DD	040H
	DD	050H
	DD	041H
	DD	060H
	DD	051H
	DD	042H
	DD	070H
	DD	061H
	DD	052H
	DD	043H
	DD	071H
	DD	062H
	DD	053H
	DD	072H
	DD	063H
	DD	073H
	DD	04H
	DD	014H
	DD	05H
	DD	024H
	DD	015H
	DD	06H
	DD	034H
	DD	025H
	DD	016H
	DD	07H
	DD	035H
	DD	026H
	DD	017H
	DD	036H
	DD	027H
	DD	037H
	DD	080H
	DD	090H
	DD	081H
	DD	0a0H
	DD	091H
	DD	082H
	DD	0b0H
	DD	0a1H
	DD	092H
	DD	083H
	DD	0b1H
	DD	0a2H
	DD	093H
	DD	0b2H
	DD	0a3H
	DD	0b3H
	DD	044H
	DD	054H
	DD	045H
	DD	064H
	DD	055H
	DD	046H
	DD	074H
	DD	065H
	DD	056H
	DD	047H
	DD	075H
	DD	066H
	DD	057H
	DD	076H
	DD	067H
	DD	077H
	DD	08H
	DD	018H
	DD	09H
	DD	028H
	DD	019H
	DD	0aH
	DD	038H
	DD	029H
	DD	01aH
	DD	0bH
	DD	039H
	DD	02aH
	DD	01bH
	DD	03aH
	DD	02bH
	DD	03bH
	DD	0c0H
	DD	0d0H
	DD	0c1H
	DD	0e0H
	DD	0d1H
	DD	0c2H
	DD	0f0H
	DD	0e1H
	DD	0d2H
	DD	0c3H
	DD	0f1H
	DD	0e2H
	DD	0d3H
	DD	0f2H
	DD	0e3H
	DD	0f3H
	DD	084H
	DD	094H
	DD	085H
	DD	0a4H
	DD	095H
	DD	086H
	DD	0b4H
	DD	0a5H
	DD	096H
	DD	087H
	DD	0b5H
	DD	0a6H
	DD	097H
	DD	0b6H
	DD	0a7H
	DD	0b7H
	DD	048H
	DD	058H
	DD	049H
	DD	068H
	DD	059H
	DD	04aH
	DD	078H
	DD	069H
	DD	05aH
	DD	04bH
	DD	079H
	DD	06aH
	DD	05bH
	DD	07aH
	DD	06bH
	DD	07bH
	DD	0cH
	DD	01cH
	DD	0dH
	DD	02cH
	DD	01dH
	DD	0eH
	DD	03cH
	DD	02dH
	DD	01eH
	DD	0fH
	DD	03dH
	DD	02eH
	DD	01fH
	DD	03eH
	DD	02fH
	DD	03fH
	DD	0c4H
	DD	0d4H
	DD	0c5H
	DD	0e4H
	DD	0d5H
	DD	0c6H
	DD	0f4H
	DD	0e5H
	DD	0d6H
	DD	0c7H
	DD	0f5H
	DD	0e6H
	DD	0d7H
	DD	0f6H
	DD	0e7H
	DD	0f7H
	DD	088H
	DD	098H
	DD	089H
	DD	0a8H
	DD	099H
	DD	08aH
	DD	0b8H
	DD	0a9H
	DD	09aH
	DD	08bH
	DD	0b9H
	DD	0aaH
	DD	09bH
	DD	0baH
	DD	0abH
	DD	0bbH
	DD	04cH
	DD	05cH
	DD	04dH
	DD	06cH
	DD	05dH
	DD	04eH
	DD	07cH
	DD	06dH
	DD	05eH
	DD	04fH
	DD	07dH
	DD	06eH
	DD	05fH
	DD	07eH
	DD	06fH
	DD	07fH
	DD	0c8H
	DD	0d8H
	DD	0c9H
	DD	0e8H
	DD	0d9H
	DD	0caH
	DD	0f8H
	DD	0e9H
	DD	0daH
	DD	0cbH
	DD	0f9H
	DD	0eaH
	DD	0dbH
	DD	0faH
	DD	0ebH
	DD	0fbH
	DD	08cH
	DD	09cH
	DD	08dH
	DD	0acH
	DD	09dH
	DD	08eH
	DD	0bcH
	DD	0adH
	DD	09eH
	DD	08fH
	DD	0bdH
	DD	0aeH
	DD	09fH
	DD	0beH
	DD	0afH
	DD	0bfH
	DD	0ccH
	DD	0dcH
	DD	0cdH
	DD	0ecH
	DD	0ddH
	DD	0ceH
	DD	0fcH
	DD	0edH
	DD	0deH
	DD	0cfH
	DD	0fdH
	DD	0eeH
	DD	0dfH
	DD	0feH
	DD	0efH
	DD	0ffH
g_sig_last_scan_0_4 DD 00H
	DD	020H
	DD	01H
	DD	040H
	DD	021H
	DD	02H
	DD	060H
	DD	041H
	DD	022H
	DD	03H
	DD	061H
	DD	042H
	DD	023H
	DD	062H
	DD	043H
	DD	063H
	DD	080H
	DD	0a0H
	DD	081H
	DD	0c0H
	DD	0a1H
	DD	082H
	DD	0e0H
	DD	0c1H
	DD	0a2H
	DD	083H
	DD	0e1H
	DD	0c2H
	DD	0a3H
	DD	0e2H
	DD	0c3H
	DD	0e3H
	DD	04H
	DD	024H
	DD	05H
	DD	044H
	DD	025H
	DD	06H
	DD	064H
	DD	045H
	DD	026H
	DD	07H
	DD	065H
	DD	046H
	DD	027H
	DD	066H
	DD	047H
	DD	067H
	DD	0100H
	DD	0120H
	DD	0101H
	DD	0140H
	DD	0121H
	DD	0102H
	DD	0160H
	DD	0141H
	DD	0122H
	DD	0103H
	DD	0161H
	DD	0142H
	DD	0123H
	DD	0162H
	DD	0143H
	DD	0163H
	DD	084H
	DD	0a4H
	DD	085H
	DD	0c4H
	DD	0a5H
	DD	086H
	DD	0e4H
	DD	0c5H
	DD	0a6H
	DD	087H
	DD	0e5H
	DD	0c6H
	DD	0a7H
	DD	0e6H
	DD	0c7H
	DD	0e7H
	DD	08H
	DD	028H
	DD	09H
	DD	048H
	DD	029H
	DD	0aH
	DD	068H
	DD	049H
	DD	02aH
	DD	0bH
	DD	069H
	DD	04aH
	DD	02bH
	DD	06aH
	DD	04bH
	DD	06bH
	DD	0180H
	DD	01a0H
	DD	0181H
	DD	01c0H
	DD	01a1H
	DD	0182H
	DD	01e0H
	DD	01c1H
	DD	01a2H
	DD	0183H
	DD	01e1H
	DD	01c2H
	DD	01a3H
	DD	01e2H
	DD	01c3H
	DD	01e3H
	DD	0104H
	DD	0124H
	DD	0105H
	DD	0144H
	DD	0125H
	DD	0106H
	DD	0164H
	DD	0145H
	DD	0126H
	DD	0107H
	DD	0165H
	DD	0146H
	DD	0127H
	DD	0166H
	DD	0147H
	DD	0167H
	DD	088H
	DD	0a8H
	DD	089H
	DD	0c8H
	DD	0a9H
	DD	08aH
	DD	0e8H
	DD	0c9H
	DD	0aaH
	DD	08bH
	DD	0e9H
	DD	0caH
	DD	0abH
	DD	0eaH
	DD	0cbH
	DD	0ebH
	DD	0cH
	DD	02cH
	DD	0dH
	DD	04cH
	DD	02dH
	DD	0eH
	DD	06cH
	DD	04dH
	DD	02eH
	DD	0fH
	DD	06dH
	DD	04eH
	DD	02fH
	DD	06eH
	DD	04fH
	DD	06fH
	DD	0200H
	DD	0220H
	DD	0201H
	DD	0240H
	DD	0221H
	DD	0202H
	DD	0260H
	DD	0241H
	DD	0222H
	DD	0203H
	DD	0261H
	DD	0242H
	DD	0223H
	DD	0262H
	DD	0243H
	DD	0263H
	DD	0184H
	DD	01a4H
	DD	0185H
	DD	01c4H
	DD	01a5H
	DD	0186H
	DD	01e4H
	DD	01c5H
	DD	01a6H
	DD	0187H
	DD	01e5H
	DD	01c6H
	DD	01a7H
	DD	01e6H
	DD	01c7H
	DD	01e7H
	DD	0108H
	DD	0128H
	DD	0109H
	DD	0148H
	DD	0129H
	DD	010aH
	DD	0168H
	DD	0149H
	DD	012aH
	DD	010bH
	DD	0169H
	DD	014aH
	DD	012bH
	DD	016aH
	DD	014bH
	DD	016bH
	DD	08cH
	DD	0acH
	DD	08dH
	DD	0ccH
	DD	0adH
	DD	08eH
	DD	0ecH
	DD	0cdH
	DD	0aeH
	DD	08fH
	DD	0edH
	DD	0ceH
	DD	0afH
	DD	0eeH
	DD	0cfH
	DD	0efH
	DD	010H
	DD	030H
	DD	011H
	DD	050H
	DD	031H
	DD	012H
	DD	070H
	DD	051H
	DD	032H
	DD	013H
	DD	071H
	DD	052H
	DD	033H
	DD	072H
	DD	053H
	DD	073H
	DD	0280H
	DD	02a0H
	DD	0281H
	DD	02c0H
	DD	02a1H
	DD	0282H
	DD	02e0H
	DD	02c1H
	DD	02a2H
	DD	0283H
	DD	02e1H
	DD	02c2H
	DD	02a3H
	DD	02e2H
	DD	02c3H
	DD	02e3H
	DD	0204H
	DD	0224H
	DD	0205H
	DD	0244H
	DD	0225H
	DD	0206H
	DD	0264H
	DD	0245H
	DD	0226H
	DD	0207H
	DD	0265H
	DD	0246H
	DD	0227H
	DD	0266H
	DD	0247H
	DD	0267H
	DD	0188H
	DD	01a8H
	DD	0189H
	DD	01c8H
	DD	01a9H
	DD	018aH
	DD	01e8H
	DD	01c9H
	DD	01aaH
	DD	018bH
	DD	01e9H
	DD	01caH
	DD	01abH
	DD	01eaH
	DD	01cbH
	DD	01ebH
	DD	010cH
	DD	012cH
	DD	010dH
	DD	014cH
	DD	012dH
	DD	010eH
	DD	016cH
	DD	014dH
	DD	012eH
	DD	010fH
	DD	016dH
	DD	014eH
	DD	012fH
	DD	016eH
	DD	014fH
	DD	016fH
	DD	090H
	DD	0b0H
	DD	091H
	DD	0d0H
	DD	0b1H
	DD	092H
	DD	0f0H
	DD	0d1H
	DD	0b2H
	DD	093H
	DD	0f1H
	DD	0d2H
	DD	0b3H
	DD	0f2H
	DD	0d3H
	DD	0f3H
	DD	014H
	DD	034H
	DD	015H
	DD	054H
	DD	035H
	DD	016H
	DD	074H
	DD	055H
	DD	036H
	DD	017H
	DD	075H
	DD	056H
	DD	037H
	DD	076H
	DD	057H
	DD	077H
	DD	0300H
	DD	0320H
	DD	0301H
	DD	0340H
	DD	0321H
	DD	0302H
	DD	0360H
	DD	0341H
	DD	0322H
	DD	0303H
	DD	0361H
	DD	0342H
	DD	0323H
	DD	0362H
	DD	0343H
	DD	0363H
	DD	0284H
	DD	02a4H
	DD	0285H
	DD	02c4H
	DD	02a5H
	DD	0286H
	DD	02e4H
	DD	02c5H
	DD	02a6H
	DD	0287H
	DD	02e5H
	DD	02c6H
	DD	02a7H
	DD	02e6H
	DD	02c7H
	DD	02e7H
	DD	0208H
	DD	0228H
	DD	0209H
	DD	0248H
	DD	0229H
	DD	020aH
	DD	0268H
	DD	0249H
	DD	022aH
	DD	020bH
	DD	0269H
	DD	024aH
	DD	022bH
	DD	026aH
	DD	024bH
	DD	026bH
	DD	018cH
	DD	01acH
	DD	018dH
	DD	01ccH
	DD	01adH
	DD	018eH
	DD	01ecH
	DD	01cdH
	DD	01aeH
	DD	018fH
	DD	01edH
	DD	01ceH
	DD	01afH
	DD	01eeH
	DD	01cfH
	DD	01efH
	DD	0110H
	DD	0130H
	DD	0111H
	DD	0150H
	DD	0131H
	DD	0112H
	DD	0170H
	DD	0151H
	DD	0132H
	DD	0113H
	DD	0171H
	DD	0152H
	DD	0133H
	DD	0172H
	DD	0153H
	DD	0173H
	DD	094H
	DD	0b4H
	DD	095H
	DD	0d4H
	DD	0b5H
	DD	096H
	DD	0f4H
	DD	0d5H
	DD	0b6H
	DD	097H
	DD	0f5H
	DD	0d6H
	DD	0b7H
	DD	0f6H
	DD	0d7H
	DD	0f7H
	DD	018H
	DD	038H
	DD	019H
	DD	058H
	DD	039H
	DD	01aH
	DD	078H
	DD	059H
	DD	03aH
	DD	01bH
	DD	079H
	DD	05aH
	DD	03bH
	DD	07aH
	DD	05bH
	DD	07bH
	DD	0380H
	DD	03a0H
	DD	0381H
	DD	03c0H
	DD	03a1H
	DD	0382H
	DD	03e0H
	DD	03c1H
	DD	03a2H
	DD	0383H
	DD	03e1H
	DD	03c2H
	DD	03a3H
	DD	03e2H
	DD	03c3H
	DD	03e3H
	DD	0304H
	DD	0324H
	DD	0305H
	DD	0344H
	DD	0325H
	DD	0306H
	DD	0364H
	DD	0345H
	DD	0326H
	DD	0307H
	DD	0365H
	DD	0346H
	DD	0327H
	DD	0366H
	DD	0347H
	DD	0367H
	DD	0288H
	DD	02a8H
	DD	0289H
	DD	02c8H
	DD	02a9H
	DD	028aH
	DD	02e8H
	DD	02c9H
	DD	02aaH
	DD	028bH
	DD	02e9H
	DD	02caH
	DD	02abH
	DD	02eaH
	DD	02cbH
	DD	02ebH
	DD	020cH
	DD	022cH
	DD	020dH
	DD	024cH
	DD	022dH
	DD	020eH
	DD	026cH
	DD	024dH
	DD	022eH
	DD	020fH
	DD	026dH
	DD	024eH
	DD	022fH
	DD	026eH
	DD	024fH
	DD	026fH
	DD	0190H
	DD	01b0H
	DD	0191H
	DD	01d0H
	DD	01b1H
	DD	0192H
	DD	01f0H
	DD	01d1H
	DD	01b2H
	DD	0193H
	DD	01f1H
	DD	01d2H
	DD	01b3H
	DD	01f2H
	DD	01d3H
	DD	01f3H
	DD	0114H
	DD	0134H
	DD	0115H
	DD	0154H
	DD	0135H
	DD	0116H
	DD	0174H
	DD	0155H
	DD	0136H
	DD	0117H
	DD	0175H
	DD	0156H
	DD	0137H
	DD	0176H
	DD	0157H
	DD	0177H
	DD	098H
	DD	0b8H
	DD	099H
	DD	0d8H
	DD	0b9H
	DD	09aH
	DD	0f8H
	DD	0d9H
	DD	0baH
	DD	09bH
	DD	0f9H
	DD	0daH
	DD	0bbH
	DD	0faH
	DD	0dbH
	DD	0fbH
	DD	01cH
	DD	03cH
	DD	01dH
	DD	05cH
	DD	03dH
	DD	01eH
	DD	07cH
	DD	05dH
	DD	03eH
	DD	01fH
	DD	07dH
	DD	05eH
	DD	03fH
	DD	07eH
	DD	05fH
	DD	07fH
	DD	0384H
	DD	03a4H
	DD	0385H
	DD	03c4H
	DD	03a5H
	DD	0386H
	DD	03e4H
	DD	03c5H
	DD	03a6H
	DD	0387H
	DD	03e5H
	DD	03c6H
	DD	03a7H
	DD	03e6H
	DD	03c7H
	DD	03e7H
	DD	0308H
	DD	0328H
	DD	0309H
	DD	0348H
	DD	0329H
	DD	030aH
	DD	0368H
	DD	0349H
	DD	032aH
	DD	030bH
	DD	0369H
	DD	034aH
	DD	032bH
	DD	036aH
	DD	034bH
	DD	036bH
	DD	028cH
	DD	02acH
	DD	028dH
	DD	02ccH
	DD	02adH
	DD	028eH
	DD	02ecH
	DD	02cdH
	DD	02aeH
	DD	028fH
	DD	02edH
	DD	02ceH
	DD	02afH
	DD	02eeH
	DD	02cfH
	DD	02efH
	DD	0210H
	DD	0230H
	DD	0211H
	DD	0250H
	DD	0231H
	DD	0212H
	DD	0270H
	DD	0251H
	DD	0232H
	DD	0213H
	DD	0271H
	DD	0252H
	DD	0233H
	DD	0272H
	DD	0253H
	DD	0273H
	DD	0194H
	DD	01b4H
	DD	0195H
	DD	01d4H
	DD	01b5H
	DD	0196H
	DD	01f4H
	DD	01d5H
	DD	01b6H
	DD	0197H
	DD	01f5H
	DD	01d6H
	DD	01b7H
	DD	01f6H
	DD	01d7H
	DD	01f7H
	DD	0118H
	DD	0138H
	DD	0119H
	DD	0158H
	DD	0139H
	DD	011aH
	DD	0178H
	DD	0159H
	DD	013aH
	DD	011bH
	DD	0179H
	DD	015aH
	DD	013bH
	DD	017aH
	DD	015bH
	DD	017bH
	DD	09cH
	DD	0bcH
	DD	09dH
	DD	0dcH
	DD	0bdH
	DD	09eH
	DD	0fcH
	DD	0ddH
	DD	0beH
	DD	09fH
	DD	0fdH
	DD	0deH
	DD	0bfH
	DD	0feH
	DD	0dfH
	DD	0ffH
	DD	0388H
	DD	03a8H
	DD	0389H
	DD	03c8H
	DD	03a9H
	DD	038aH
	DD	03e8H
	DD	03c9H
	DD	03aaH
	DD	038bH
	DD	03e9H
	DD	03caH
	DD	03abH
	DD	03eaH
	DD	03cbH
	DD	03ebH
	DD	030cH
	DD	032cH
	DD	030dH
	DD	034cH
	DD	032dH
	DD	030eH
	DD	036cH
	DD	034dH
	DD	032eH
	DD	030fH
	DD	036dH
	DD	034eH
	DD	032fH
	DD	036eH
	DD	034fH
	DD	036fH
	DD	0290H
	DD	02b0H
	DD	0291H
	DD	02d0H
	DD	02b1H
	DD	0292H
	DD	02f0H
	DD	02d1H
	DD	02b2H
	DD	0293H
	DD	02f1H
	DD	02d2H
	DD	02b3H
	DD	02f2H
	DD	02d3H
	DD	02f3H
	DD	0214H
	DD	0234H
	DD	0215H
	DD	0254H
	DD	0235H
	DD	0216H
	DD	0274H
	DD	0255H
	DD	0236H
	DD	0217H
	DD	0275H
	DD	0256H
	DD	0237H
	DD	0276H
	DD	0257H
	DD	0277H
	DD	0198H
	DD	01b8H
	DD	0199H
	DD	01d8H
	DD	01b9H
	DD	019aH
	DD	01f8H
	DD	01d9H
	DD	01baH
	DD	019bH
	DD	01f9H
	DD	01daH
	DD	01bbH
	DD	01faH
	DD	01dbH
	DD	01fbH
	DD	011cH
	DD	013cH
	DD	011dH
	DD	015cH
	DD	013dH
	DD	011eH
	DD	017cH
	DD	015dH
	DD	013eH
	DD	011fH
	DD	017dH
	DD	015eH
	DD	013fH
	DD	017eH
	DD	015fH
	DD	017fH
	DD	038cH
	DD	03acH
	DD	038dH
	DD	03ccH
	DD	03adH
	DD	038eH
	DD	03ecH
	DD	03cdH
	DD	03aeH
	DD	038fH
	DD	03edH
	DD	03ceH
	DD	03afH
	DD	03eeH
	DD	03cfH
	DD	03efH
	DD	0310H
	DD	0330H
	DD	0311H
	DD	0350H
	DD	0331H
	DD	0312H
	DD	0370H
	DD	0351H
	DD	0332H
	DD	0313H
	DD	0371H
	DD	0352H
	DD	0333H
	DD	0372H
	DD	0353H
	DD	0373H
	DD	0294H
	DD	02b4H
	DD	0295H
	DD	02d4H
	DD	02b5H
	DD	0296H
	DD	02f4H
	DD	02d5H
	DD	02b6H
	DD	0297H
	DD	02f5H
	DD	02d6H
	DD	02b7H
	DD	02f6H
	DD	02d7H
	DD	02f7H
	DD	0218H
	DD	0238H
	DD	0219H
	DD	0258H
	DD	0239H
	DD	021aH
	DD	0278H
	DD	0259H
	DD	023aH
	DD	021bH
	DD	0279H
	DD	025aH
	DD	023bH
	DD	027aH
	DD	025bH
	DD	027bH
	DD	019cH
	DD	01bcH
	DD	019dH
	DD	01dcH
	DD	01bdH
	DD	019eH
	DD	01fcH
	DD	01ddH
	DD	01beH
	DD	019fH
	DD	01fdH
	DD	01deH
	DD	01bfH
	DD	01feH
	DD	01dfH
	DD	01ffH
	DD	0390H
	DD	03b0H
	DD	0391H
	DD	03d0H
	DD	03b1H
	DD	0392H
	DD	03f0H
	DD	03d1H
	DD	03b2H
	DD	0393H
	DD	03f1H
	DD	03d2H
	DD	03b3H
	DD	03f2H
	DD	03d3H
	DD	03f3H
	DD	0314H
	DD	0334H
	DD	0315H
	DD	0354H
	DD	0335H
	DD	0316H
	DD	0374H
	DD	0355H
	DD	0336H
	DD	0317H
	DD	0375H
	DD	0356H
	DD	0337H
	DD	0376H
	DD	0357H
	DD	0377H
	DD	0298H
	DD	02b8H
	DD	0299H
	DD	02d8H
	DD	02b9H
	DD	029aH
	DD	02f8H
	DD	02d9H
	DD	02baH
	DD	029bH
	DD	02f9H
	DD	02daH
	DD	02bbH
	DD	02faH
	DD	02dbH
	DD	02fbH
	DD	021cH
	DD	023cH
	DD	021dH
	DD	025cH
	DD	023dH
	DD	021eH
	DD	027cH
	DD	025dH
	DD	023eH
	DD	021fH
	DD	027dH
	DD	025eH
	DD	023fH
	DD	027eH
	DD	025fH
	DD	027fH
	DD	0394H
	DD	03b4H
	DD	0395H
	DD	03d4H
	DD	03b5H
	DD	0396H
	DD	03f4H
	DD	03d5H
	DD	03b6H
	DD	0397H
	DD	03f5H
	DD	03d6H
	DD	03b7H
	DD	03f6H
	DD	03d7H
	DD	03f7H
	DD	0318H
	DD	0338H
	DD	0319H
	DD	0358H
	DD	0339H
	DD	031aH
	DD	0378H
	DD	0359H
	DD	033aH
	DD	031bH
	DD	0379H
	DD	035aH
	DD	033bH
	DD	037aH
	DD	035bH
	DD	037bH
	DD	029cH
	DD	02bcH
	DD	029dH
	DD	02dcH
	DD	02bdH
	DD	029eH
	DD	02fcH
	DD	02ddH
	DD	02beH
	DD	029fH
	DD	02fdH
	DD	02deH
	DD	02bfH
	DD	02feH
	DD	02dfH
	DD	02ffH
	DD	0398H
	DD	03b8H
	DD	0399H
	DD	03d8H
	DD	03b9H
	DD	039aH
	DD	03f8H
	DD	03d9H
	DD	03baH
	DD	039bH
	DD	03f9H
	DD	03daH
	DD	03bbH
	DD	03faH
	DD	03dbH
	DD	03fbH
	DD	031cH
	DD	033cH
	DD	031dH
	DD	035cH
	DD	033dH
	DD	031eH
	DD	037cH
	DD	035dH
	DD	033eH
	DD	031fH
	DD	037dH
	DD	035eH
	DD	033fH
	DD	037eH
	DD	035fH
	DD	037fH
	DD	039cH
	DD	03bcH
	DD	039dH
	DD	03dcH
	DD	03bdH
	DD	039eH
	DD	03fcH
	DD	03ddH
	DD	03beH
	DD	039fH
	DD	03fdH
	DD	03deH
	DD	03bfH
	DD	03feH
	DD	03dfH
	DD	03ffH
g_sig_last_scan_cg DQ FLAT:g_sig_last_scan_8x8
	DQ	FLAT:g_sig_last_scan_8x8+16
	DQ	FLAT:g_sig_last_scan_8x8+32
	DQ	FLAT:g_sig_last_scan_8x8
	DQ	FLAT:g_sig_last_scan_8x8+16
	DQ	FLAT:g_sig_last_scan_8x8+32
	DQ	FLAT:g_sig_last_scan_16x16
	DQ	0000000000000000H
	DQ	0000000000000000H
	DQ	FLAT:g_sig_last_scan_32x32
	DQ	0000000000000000H
	DQ	0000000000000000H
g_sig_last_scan_8x8 DD 00H
	DD	02H
	DD	01H
	DD	03H
	DD	00H
	DD	01H
	DD	02H
	DD	03H
	DD	00H
	DD	02H
	DD	01H
	DD	03H
g_sig_last_scan_0_0 DD 00H
	DD	02H
	DD	01H
	DD	03H
kvz_g_convert_to_bit DB 0ffH
	DB	0ffH
	DB	0ffH
	DB	0ffH
	DB	00H
	DB	0ffH
	DB	0ffH
	DB	0ffH
	DB	01H
	DB	0ffH
	DB	0ffH
	DB	0ffH
	DB	0ffH
	DB	0ffH
	DB	0ffH
	DB	0ffH
	DB	02H
	DB	0ffH
	DB	0ffH
	DB	0ffH
	DB	0ffH
	DB	0ffH
	DB	0ffH
	DB	0ffH
	DB	0ffH
	DB	0ffH
	DB	0ffH
	DB	0ffH
	DB	0ffH
	DB	0ffH
	DB	0ffH
	DB	0ffH
	DB	03H
	DB	0ffH
	DB	0ffH
	DB	0ffH
	DB	0ffH
	DB	0ffH
	DB	0ffH
	DB	0ffH
	DB	0ffH
	DB	0ffH
	DB	0ffH
	DB	0ffH
	DB	0ffH
	DB	0ffH
	DB	0ffH
	DB	0ffH
	DB	0ffH
	DB	0ffH
	DB	0ffH
	DB	0ffH
	DB	0ffH
	DB	0ffH
	DB	0ffH
	DB	0ffH
	DB	0ffH
	DB	0ffH
	DB	0ffH
	DB	0ffH
	DB	0ffH
	DB	0ffH
	DB	0ffH
	DB	0ffH
	DB	04H
END
