; Listing generated by Microsoft (R) Optimizing Compiler Version 19.26.28806.0 

include listing.inc

INCLUDELIB OLDNAMES

cbf_masks DW	01fH
	DW	0fH
	DW	07H
	DW	03H
	DW	01H
	ORG $+6
g_sig_last_scan_16x16 DD 00H
	DD	04H
	DD	01H
	DD	08H
	DD	05H
	DD	02H
	DD	0cH
	DD	09H
	DD	06H
	DD	03H
	DD	0dH
	DD	0aH
	DD	07H
	DD	0eH
	DD	0bH
	DD	0fH
g_group_idx DB	00H
	DB	01H
	DB	02H
	DB	03H
	DB	04H
	DB	04H
	DB	05H
	DB	05H
	DB	06H
	DB	06H
	DB	06H
	DB	06H
	DB	07H
	DB	07H
	DB	07H
	DB	07H
	DB	08H
	DB	08H
	DB	08H
	DB	08H
	DB	08H
	DB	08H
	DB	08H
	DB	08H
	DB	09H
	DB	09H
	DB	09H
	DB	09H
	DB	09H
	DB	09H
	DB	09H
	DB	09H
g_sig_last_scan_32x32 DD 00H
	DD	08H
	DD	01H
	DD	010H
	DD	09H
	DD	02H
	DD	018H
	DD	011H
	DD	0aH
	DD	03H
	DD	020H
	DD	019H
	DD	012H
	DD	0bH
	DD	04H
	DD	028H
	DD	021H
	DD	01aH
	DD	013H
	DD	0cH
	DD	05H
	DD	030H
	DD	029H
	DD	022H
	DD	01bH
	DD	014H
	DD	0dH
	DD	06H
	DD	038H
	DD	031H
	DD	02aH
	DD	023H
	DD	01cH
	DD	015H
	DD	0eH
	DD	07H
	DD	039H
	DD	032H
	DD	02bH
	DD	024H
	DD	01dH
	DD	016H
	DD	0fH
	DD	03aH
	DD	033H
	DD	02cH
	DD	025H
	DD	01eH
	DD	017H
	DD	03bH
	DD	034H
	DD	02dH
	DD	026H
	DD	01fH
	DD	03cH
	DD	035H
	DD	02eH
	DD	027H
	DD	03dH
	DD	036H
	DD	02fH
	DD	03eH
	DD	037H
	DD	03fH
g_min_in_group DB 00H
	DB	01H
	DB	02H
	DB	03H
	DB	04H
	DB	06H
	DB	08H
	DB	0cH
	DB	010H
	DB	018H
	ORG $+6
default_fast_coeff_cost_wts DD 03e282e88r	; 0.16424
	DD	040852b41r			; 4.16153
	DD	0406093ffr			; 3.50903
	DD	040ddb290r			; 6.92805
	DD	03e282e88r			; 0.16424
	DD	040852b41r			; 4.16153
	DD	0406093ffr			; 3.50903
	DD	040ddb290r			; 6.92805
	DD	03e282e88r			; 0.16424
	DD	040852b41r			; 4.16153
	DD	0406093ffr			; 3.50903
	DD	040ddb290r			; 6.92805
	DD	03e282e88r			; 0.16424
	DD	040852b41r			; 4.16153
	DD	0406093ffr			; 3.50903
	DD	040ddb290r			; 6.92805
	DD	03e282e88r			; 0.16424
	DD	040852b41r			; 4.16153
	DD	0406093ffr			; 3.50903
	DD	040ddb290r			; 6.92805
	DD	03e282e88r			; 0.16424
	DD	040852b41r			; 4.16153
	DD	0406093ffr			; 3.50903
	DD	040ddb290r			; 6.92805
	DD	03e282e88r			; 0.16424
	DD	040852b41r			; 4.16153
	DD	0406093ffr			; 3.50903
	DD	040ddb290r			; 6.92805
	DD	03e282e88r			; 0.16424
	DD	040852b41r			; 4.16153
	DD	0406093ffr			; 3.50903
	DD	040ddb290r			; 6.92805
	DD	03e282e88r			; 0.16424
	DD	040852b41r			; 4.16153
	DD	0406093ffr			; 3.50903
	DD	040ddb290r			; 6.92805
	DD	03e282e88r			; 0.16424
	DD	040852b41r			; 4.16153
	DD	0406093ffr			; 3.50903
	DD	040ddb290r			; 6.92805
	DD	03e282e88r			; 0.16424
	DD	040852b41r			; 4.16153
	DD	0406093ffr			; 3.50903
	DD	040ddb290r			; 6.92805
	DD	03e26c094r			; 0.162844
	DD	04081ca43r			; 4.05594
	DD	04064203ar			; 3.56447
	DD	040db915ar			; 6.86149
	DD	03e03d189r			; 0.128729
	DD	04089fbafr			; 4.31197
	DD	0407c5771r			; 3.94284
	DD	040ddeed2r			; 6.9354
	DD	03de33ce6r			; 0.110956
	DD	0408ddcb1r			; 4.43319
	DD	0407c8738r			; 3.94575
	DD	040dc1618r			; 6.8777
	DD	03dc29cfer			; 0.095026
	DD	0408f7938r			; 4.48355
	DD	0408636aar			; 4.19417
	DD	040d90260r			; 6.78154
	DD	03d99b1b8r			; 0.075046
	DD	04094474cr			; 4.6337
	DD	04082b1b6r			; 4.08419
	DD	040d65aeer			; 6.6986
	DD	03d56bca5r			; 0.052426
	DD	0409ef37er			; 4.96722
	DD	04080dee8r			; 4.02721
	DD	040d19306r			; 6.5492
	DD	03d24bcaer			; 0.040219
	DD	040a489car			; 5.14182
	DD	0407ee3bdr			; 3.98265
	DD	040cec513r			; 6.46156
	DD	03d0fba88r			; 0.03509
	DD	040a628e7r			; 5.19249
	DD	040752e49r			; 3.83095
	DD	040cd642ar			; 6.41848
	DD	03cf47d80r			; 0.029845
	DD	040a6c5d0r			; 5.21165
	DD	040743073r			; 3.81546
	DD	040cb0dd8r			; 6.34544
	DD	03cc0b136r			; 0.023522
	DD	040aa4f92r			; 5.32221
	DD	040744224r			; 3.81654
	DD	040cb8aaar			; 6.36068
	DD	03cae87d3r			; 0.021305
	DD	040a73ac3r			; 5.22592
	DD	04075eeccr			; 3.8427
	DD	040ca6cd9r			; 6.32579
	DD	03c821294r			; 0.015878
	DD	040a5dbe0r			; 5.18309
	DD	0407d2f27r			; 3.956
	DD	040ca8cbdr			; 6.32968
	DD	03c2ae297r			; 0.01043
	DD	040a32ce4r			; 5.09923
	DD	04085a85fr			; 4.1768
	DD	040c9c5d6r			; 6.3054
	DD	03c0a2a91r			; 0.008433
	DD	040a0f7der			; 5.03026
	DD	040879a50r			; 4.23759
	DD	040c8a4eer			; 6.27013
	DD	03bd4fdf4r			; 0.0065
	DD	0409f0412r			; 4.96925
	DD	0408adc57r			; 4.3394
	DD	040c6f870r			; 6.21783
	DD	03ba18373r			; 0.004929
	DD	0409d8d50r			; 4.9235
	DD	0408e283fr			; 4.44241
	DD	040c5df6cr			; 6.18352
	DD	03b73775cr			; 0.003715
	DD	0409d4c75r			; 4.91558
	DD	0408dbb1br			; 4.42909
	DD	040c4029fr			; 6.12532
	DD	03b4a70d2r			; 0.003089
	DD	0409c48f7r			; 4.88391
	DD	040920260r			; 4.56279
	DD	040c5019dr			; 6.15645
	DD	03b219c9dr			; 0.002466
	DD	0409c31abr			; 4.88106
	DD	040942800r			; 4.62988
	DD	040c49088r			; 6.14264
	DD	03b0e25c8r			; 0.002169
	DD	0409c3d62r			; 4.88249
	DD	04094ae99r			; 4.64631
	DD	040c415d1r			; 6.12766
	DD	03b26dacbr			; 0.002546
	DD	040996304r			; 4.79334
	DD	0409acc16r			; 4.83741
	DD	040c6606br			; 6.19927
	DD	03aac3a86r			; 0.001314
	DD	04099e220r			; 4.80885
	DD	0409a81bdr			; 4.82834
	DD	040c7ca3cr			; 6.24344
	DD	03a9741d1r			; 0.001154
	DD	0409b9a72r			; 4.8626
	DD	0409b19aar			; 4.84688
	DD	040c693a5r			; 6.20552
	DD	03a80f990r			; 0.000984
	DD	0409bb993r			; 4.8664
	DD	0409b7fa2r			; 4.85933
	DD	040c7b565r			; 6.24089
	DD	03a551f82r			; 0.000813
	DD	0409b698ar			; 4.85663
	DD	0409d95bar			; 4.92453
	DD	040c963a4r			; 6.29341
	DD	03a91c087r			; 0.001112
	DD	04099419er			; 4.78926
	DD	040a050f0r			; 5.00988
	DD	040cddf8fr			; 6.43354
	DD	03a10b418r			; 0.000552
	DD	04098580ar			; 4.76075
	DD	040a2e4f1r			; 5.09045
	DD	040d32e1fr			; 6.59938
	DD	039ccff22r			; 0.000391
	DD	0409ec42cr			; 4.96145
	DD	040a38d95r			; 5.11103
	DD	040d8342fr			; 6.75637
	DD	039ae1049r			; 0.000332
	DD	0409f63f8r			; 4.98095
	DD	040a46b89r			; 5.13813
	DD	040dbc1e8r			; 6.86742
	DD	03952c387r			; 0.000201
	DD	040a5d297r			; 5.18196
	DD	04097af64r			; 4.74016
	DD	040cec07dr			; 6.461
	DD	0397ba882r			; 0.00024
	DD	040a5eeb7r			; 5.18539
	DD	0409bfeb0r			; 4.87484
	DD	040da3603r			; 6.81909
	DD	03908509cr			; 0.00013
	DD	040a8a6b5r			; 5.27035
	DD	040977eacr			; 4.73421
	DD	040da708fr			; 6.82624
	DD	038da1a93r			; 0.000104
	DD	040abe6e8r			; 5.37194
	DD	040930af4r			; 4.59509
	DD	040d5189ar			; 6.65925
	DD	038ae1049r			; 8.3e-05
	DD	040ab9581r			; 5.362
	DD	04093c250r			; 4.61747
	DD	040dacf03r			; 6.83777
	DD	03890b418r			; 6.9e-05
	DD	040a926e3r			; 5.286
	DD	0409828e7r			; 4.75499
	DD	040e516e1r			; 7.15904
	DD	0384d8559r			; 4.9e-05
	DD	040afa18cr			; 5.48847
	DD	0408cace9r			; 4.39611
	DD	040d74682r			; 6.72736
	DD	038734507r			; 5.8e-05
	DD	0409eafa3r			; 4.95894
	DD	040929321r			; 4.58046
	DD	040cf49a5r			; 6.47774
	DD	037eae18br			; 2.8e-05
	DD	040b0ae1br			; 5.52125
	DD	0408e1885r			; 4.44049
	DD	040e68f80r			; 7.20502
	DD	000000000r			; 0
	DD	000000000r			; 0
	DD	000000000r			; 0
	DD	000000000r			; 0
	DD	0379f6230r			; 1.9e-05
	DD	040b9f5d8r			; 5.81126
	DD	0408cc582r			; 4.39911
	DD	040eac30dr			; 7.33631
g_sao_edge_offsets DD 0ffffffffH
	DD	00H
	DD	01H
	DD	00H
	DD	00H
	DD	0ffffffffH
	DD	00H
	DD	01H
	DD	0ffffffffH
	DD	0ffffffffH
	DD	01H
	DD	01H
	DD	01H
	DD	0ffffffffH
	DD	0ffffffffH
	DD	01H
g_sig_last_scan_cg DQ FLAT:g_sig_last_scan_8x8
	DQ	FLAT:g_sig_last_scan_8x8+16
	DQ	FLAT:g_sig_last_scan_8x8+32
	DQ	FLAT:g_sig_last_scan_8x8
	DQ	FLAT:g_sig_last_scan_8x8+16
	DQ	FLAT:g_sig_last_scan_8x8+32
	DQ	FLAT:g_sig_last_scan_16x16
	DQ	0000000000000000H
	DQ	0000000000000000H
	DQ	FLAT:g_sig_last_scan_32x32
	DQ	0000000000000000H
	DQ	0000000000000000H
g_sig_last_scan_8x8 DD 00H
	DD	02H
	DD	01H
	DD	03H
	DD	00H
	DD	01H
	DD	02H
	DD	03H
	DD	00H
	DD	02H
	DD	01H
	DD	03H
PUBLIC	kvz_videoframe_set_poc
PUBLIC	kvz_videoframe_free
PUBLIC	kvz_videoframe_alloc
pdata	SEGMENT
$pdata$kvz_videoframe_free DD imagerel $LN28
	DD	imagerel $LN28+286
	DD	imagerel $unwind$kvz_videoframe_free
$pdata$kvz_videoframe_alloc DD imagerel $LN6
	DD	imagerel $LN6+149
	DD	imagerel $unwind$kvz_videoframe_alloc
xdata	SEGMENT
$unwind$kvz_videoframe_free DD 081401H
	DD	086414H
	DD	075414H
	DD	063414H
	DD	070103214H
$unwind$kvz_videoframe_alloc DD 081401H
	DD	086414H
	DD	075414H
	DD	063414H
	DD	070103214H
; Function compile flags: /Ogtpy
; File F:\open_codec_learn_2021\kvazaar-master\src\videoframe.c
_TEXT	SEGMENT
width$ = 48
height$ = 56
chroma_format$ = 64
kvz_videoframe_alloc PROC

; 49   : {

$LN6:
	mov	QWORD PTR [rsp+8], rbx
	mov	QWORD PTR [rsp+16], rbp
	mov	QWORD PTR [rsp+24], rsi
	push	rdi
	sub	rsp, 32					; 00000020H
	mov	edi, edx
	mov	esi, ecx

; 50   :   videoframe_t *frame = calloc(1, sizeof(videoframe_t));

	mov	edx, 64					; 00000040H
	mov	ebp, r8d
	lea	ecx, QWORD PTR [rdx-63]
	call	QWORD PTR __imp_calloc
	mov	rbx, rax

; 51   :   if (!frame) return 0;

	test	rax, rax
	je	SHORT $LN1@kvz_videof
$LN2@kvz_videof:

; 52   : 
; 53   :   frame->width  = width;
; 54   :   frame->height = height;

	mov	DWORD PTR [rax+20], edi
	mov	DWORD PTR [rax+16], esi

; 55   :   frame->width_in_lcu  = CEILDIV(frame->width,  LCU_WIDTH);

	lea	eax, DWORD PTR [rsi+63]
	cdq
	and	edx, 63					; 0000003fH
	lea	ecx, DWORD PTR [rdx+rax]
	sar	ecx, 6

; 56   :   frame->height_in_lcu = CEILDIV(frame->height, LCU_WIDTH);

	lea	eax, DWORD PTR [rdi+63]
	cdq
	mov	DWORD PTR [rbx+28], ecx
	and	edx, 63					; 0000003fH
	add	eax, edx
	sar	eax, 6
	mov	DWORD PTR [rbx+24], eax

; 57   : 
; 58   :   frame->sao_luma = MALLOC(sao_info_t, frame->width_in_lcu * frame->height_in_lcu);

	imul	eax, ecx
	cdqe
	imul	rdi, rax, 68				; 00000044H
	mov	rcx, rdi
	call	QWORD PTR __imp_malloc
	mov	QWORD PTR [rbx+40], rax

; 59   :   if (chroma_format != KVZ_CSP_400) {

	test	ebp, ebp
	je	SHORT $LN3@kvz_videof

; 60   :     frame->sao_chroma = MALLOC(sao_info_t, frame->width_in_lcu * frame->height_in_lcu);

	mov	rcx, rdi
	call	QWORD PTR __imp_malloc
	mov	QWORD PTR [rbx+48], rax
$LN3@kvz_videof:

; 61   :   }
; 62   : 
; 63   :   return frame;

	mov	rax, rbx
$LN1@kvz_videof:

; 64   : }

	mov	rbx, QWORD PTR [rsp+48]
	mov	rbp, QWORD PTR [rsp+56]
	mov	rsi, QWORD PTR [rsp+64]
	add	rsp, 32					; 00000020H
	pop	rdi
	ret	0
kvz_videoframe_alloc ENDP
_TEXT	ENDS
; Function compile flags: /Ogtpy
; File F:\open_codec_learn_2021\kvazaar-master\src\videoframe.c
; File F:\open_codec_learn_2021\kvazaar-master\src\image.c
; File F:\open_codec_learn_2021\kvazaar-master\src\videoframe.c
; File F:\open_codec_learn_2021\kvazaar-master\src\image.c
; File F:\open_codec_learn_2021\kvazaar-master\src\videoframe.c
; File F:\open_codec_learn_2021\kvazaar-master\src\image.c
; File F:\open_codec_learn_2021\kvazaar-master\src\videoframe.c
_TEXT	SEGMENT
frame$ = 48
kvz_videoframe_free PROC

; 72   : {

$LN28:
	mov	QWORD PTR [rsp+8], rbx
	mov	QWORD PTR [rsp+16], rbp
	mov	QWORD PTR [rsp+24], rsi
	push	rdi
	sub	rsp, 32					; 00000020H

; 73   :   kvz_image_free(frame->source);

	mov	rbx, QWORD PTR [rcx]
; File F:\open_codec_learn_2021\kvazaar-master\src\image.c

; 116  :   if (im == NULL) return;

	xor	ebp, ebp
; File F:\open_codec_learn_2021\kvazaar-master\src\videoframe.c

; 72   : {

	mov	rdi, rcx
; File F:\open_codec_learn_2021\kvazaar-master\src\image.c

; 116  :   if (im == NULL) return;

	mov	esi, -1
	test	rbx, rbx
	je	SHORT $LN3@kvz_videof

; 117  : 
; 118  :   int32_t new_refcount = KVZ_ATOMIC_DEC(&(im->refcount));

	mov	eax, esi
	lock xadd DWORD PTR [rbx+88], eax
	sub	eax, 1

; 119  :   if (new_refcount > 0) {

	jg	SHORT $LN3@kvz_videof

; 120  :     // There are still references so we don't free the data yet.
; 121  :     return;
; 122  :   }
; 123  : 
; 124  :   if (im->base_image != im) {

	mov	rcx, QWORD PTR [rbx+80]
	cmp	rcx, rbx
	je	SHORT $LN6@kvz_videof

; 125  :     // Free our reference to the base image.
; 126  :     kvz_image_free(im->base_image);

	call	kvz_image_free

; 127  :   } else {

	jmp	SHORT $LN7@kvz_videof
$LN6@kvz_videof:

; 128  :     free(im->fulldata_buf);

	mov	rcx, QWORD PTR [rbx]
	call	QWORD PTR __imp_free
$LN7@kvz_videof:

; 129  :   }
; 130  : 
; 131  :   // Make sure freed data won't be used.
; 132  :   im->base_image = NULL;
; 133  :   im->fulldata_buf = NULL;
; 134  :   im->fulldata = NULL;
; 135  :   im->y = im->u = im->v = NULL;
; 136  :   im->data[COLOR_Y] = im->data[COLOR_U] = im->data[COLOR_V] = NULL;
; 137  :   free(im);

	mov	rcx, rbx
	mov	QWORD PTR [rbx+80], rbp
	mov	QWORD PTR [rbx], rbp
	mov	QWORD PTR [rbx+8], rbp
	mov	QWORD PTR [rbx+32], rbp
	mov	QWORD PTR [rbx+24], rbp
	mov	QWORD PTR [rbx+16], rbp
	mov	QWORD PTR [rbx+56], rbp
	mov	QWORD PTR [rbx+48], rbp
	mov	QWORD PTR [rbx+40], rbp
	call	QWORD PTR __imp_free
$LN3@kvz_videof:
; File F:\open_codec_learn_2021\kvazaar-master\src\videoframe.c

; 75   :   kvz_image_free(frame->rec);

	mov	rbx, QWORD PTR [rdi+8]
	mov	QWORD PTR [rdi], rbp
; File F:\open_codec_learn_2021\kvazaar-master\src\image.c

; 116  :   if (im == NULL) return;

	test	rbx, rbx
	je	SHORT $LN15@kvz_videof

; 117  : 
; 118  :   int32_t new_refcount = KVZ_ATOMIC_DEC(&(im->refcount));

	lock xadd DWORD PTR [rbx+88], esi
	sub	esi, 1

; 119  :   if (new_refcount > 0) {

	jg	SHORT $LN15@kvz_videof

; 120  :     // There are still references so we don't free the data yet.
; 121  :     return;
; 122  :   }
; 123  : 
; 124  :   if (im->base_image != im) {

	mov	rcx, QWORD PTR [rbx+80]
	cmp	rcx, rbx
	je	SHORT $LN18@kvz_videof

; 125  :     // Free our reference to the base image.
; 126  :     kvz_image_free(im->base_image);

	call	kvz_image_free

; 127  :   } else {

	jmp	SHORT $LN19@kvz_videof
$LN18@kvz_videof:

; 128  :     free(im->fulldata_buf);

	mov	rcx, QWORD PTR [rbx]
	call	QWORD PTR __imp_free
$LN19@kvz_videof:

; 129  :   }
; 130  : 
; 131  :   // Make sure freed data won't be used.
; 132  :   im->base_image = NULL;
; 133  :   im->fulldata_buf = NULL;
; 134  :   im->fulldata = NULL;
; 135  :   im->y = im->u = im->v = NULL;
; 136  :   im->data[COLOR_Y] = im->data[COLOR_U] = im->data[COLOR_V] = NULL;
; 137  :   free(im);

	mov	rcx, rbx
	mov	QWORD PTR [rbx+80], rbp
	mov	QWORD PTR [rbx], rbp
	mov	QWORD PTR [rbx+8], rbp
	mov	QWORD PTR [rbx+32], rbp
	mov	QWORD PTR [rbx+24], rbp
	mov	QWORD PTR [rbx+16], rbp
	mov	QWORD PTR [rbx+56], rbp
	mov	QWORD PTR [rbx+48], rbp
	mov	QWORD PTR [rbx+40], rbp
	call	QWORD PTR __imp_free
$LN15@kvz_videof:
; File F:\open_codec_learn_2021\kvazaar-master\src\videoframe.c

; 78   :   kvz_cu_array_free(&frame->cu_array);

	lea	rcx, QWORD PTR [rdi+32]
	mov	QWORD PTR [rdi+8], rbp
	call	kvz_cu_array_free

; 79   : 
; 80   :   FREE_POINTER(frame->sao_luma);

	mov	rcx, QWORD PTR [rdi+40]
	call	QWORD PTR __imp_free

; 81   :   FREE_POINTER(frame->sao_chroma);

	mov	rcx, QWORD PTR [rdi+48]
	mov	QWORD PTR [rdi+40], rbp
	call	QWORD PTR __imp_free

; 82   : 
; 83   :   free(frame);

	mov	rcx, rdi
	mov	QWORD PTR [rdi+48], rbp
	call	QWORD PTR __imp_free

; 84   : 
; 85   :   return 1;
; 86   : }

	mov	rbx, QWORD PTR [rsp+48]
	mov	eax, 1
	mov	rbp, QWORD PTR [rsp+56]
	mov	rsi, QWORD PTR [rsp+64]
	add	rsp, 32					; 00000020H
	pop	rdi
	ret	0
kvz_videoframe_free ENDP
_TEXT	ENDS
; Function compile flags: /Ogtpy
; File F:\open_codec_learn_2021\kvazaar-master\src\videoframe.c
_TEXT	SEGMENT
frame$ = 8
poc$ = 16
kvz_videoframe_set_poc PROC

; 89   :   frame->poc = poc;

	mov	DWORD PTR [rcx+56], edx

; 90   : }

	ret	0
kvz_videoframe_set_poc ENDP
_TEXT	ENDS
END
